 S3Relay

 Timestamp is 669cac2c (Sun Jul 21 13:35:24 2024)

 Preferred load address is 00400000

 Start         Length     Name                   Class
 0001:00000000 000b54f0H .text                   CODE
 0001:000b54f0 000036aaH .text$x                 CODE
 0002:00000000 0000028cH .idata$5                DATA
 0002:00000290 00003d74H .rdata                  DATA
 0002:00004008 0000017cH .rdata$r                DATA
 0002:00004188 00004600H .xdata$x                DATA
 0002:00008788 00000064H .idata$2                DATA
 0002:000087ec 00000014H .idata$3                DATA
 0002:00008800 0000028cH .idata$4                DATA
 0002:00008a8c 00000b94H .idata$6                DATA
 0002:00009620 00000000H .edata                  DATA
 0003:00000000 00000004H .CRT$XCA                DATA
 0003:00000004 00000110H .CRT$XCU                DATA
 0003:00000114 00000004H .CRT$XCZ                DATA
 0003:00000118 00000004H .CRT$XIA                DATA
 0003:0000011c 0000000cH .CRT$XIC                DATA
 0003:00000128 00000004H .CRT$XIY                DATA
 0003:0000012c 00000004H .CRT$XIZ                DATA
 0003:00000130 00000004H .CRT$XPA                DATA
 0003:00000134 00000004H .CRT$XPX                DATA
 0003:00000138 00000004H .CRT$XPZ                DATA
 0003:0000013c 00000004H .CRT$XTA                DATA
 0003:00000140 00000004H .CRT$XTB                DATA
 0003:00000144 00000004H .CRT$XTZ                DATA
 0003:00000150 0000adbcH .data                   DATA
 0003:0000af10 0025a6b8H .bss                    DATA
 0004:00000000 00000280H .rsrc$01                DATA
 0004:00000280 00000bc0H .rsrc$02                DATA

  Address         Publics by Value              Rva+Base     Lib:Object

 0001:00000000       ??0CChannelMgr@@QAE@XZ     00401000 f   ChannelMgr.obj
 0001:00000250       ??_GCChannelMgr@@UAEPAXI@Z 00401250 f i ChannelMgr.obj
 0001:00000250       ??_ECChannelMgr@@UAEPAXI@Z 00401250 f i ChannelMgr.obj
 0001:00000270       ??1?$map@KUCHANNINFO@CChannelMgr@@U?$less@K@std@@V?$allocator@UCHANNINFO@CChannelMgr@@@4@@std@@QAE@XZ 00401270 f i ChannelMgr.obj
 0001:000002e0       ??1?$map@V?$basic_string@DU?$char_traits@D@std@@V?$allocator@D@2@@std@@KU_tstring_less@@V?$allocator@K@2@@std@@QAE@XZ 004012e0 f i ChannelMgr.obj
 0001:00000350       ??1?$map@KV?$list@PAU_BLOCKCHANNELOP@CChannelMgr@@V?$allocator@PAU_BLOCKCHANNELOP@CChannelMgr@@@std@@@std@@U?$less@K@2@V?$allocator@V?$list@PAU_BLOCKCHANNELOP@CChannelMgr@@V?$allocator@PAU_BLOCKCHANNELOP@CChannelMgr@@@std@@@std@@@2@@std@@QAE@XZ 00401350 f i ChannelMgr.obj
 0001:000003c0       ??1CChannelMgr@@UAE@XZ     004013c0 f   ChannelMgr.obj
 0001:00000550       ?Initialize@CChannelMgr@@QAEHXZ 00401550 f   ChannelMgr.obj
 0001:00000ca0       ?Uninitialize@CChannelMgr@@QAEHXZ 00401ca0 f   ChannelMgr.obj
 0001:00000d20       ?GenChannID@CChannelMgr@@AAEKXZ 00401d20 f   ChannelMgr.obj
 0001:00000d70       ?GetChannelName@CChannelMgr@@QAE?AV?$basic_string@DU?$char_traits@D@std@@V?$allocator@D@2@@std@@KH@Z 00401d70 f   ChannelMgr.obj
 0001:00000f10       ?GetChannelID@CChannelMgr@@QAEKABV?$basic_string@DU?$char_traits@D@std@@V?$allocator@D@2@@std@@K@Z 00401f10 f   ChannelMgr.obj
 0001:000010b0       ?IsSubscribed@CChannelMgr@@QAEHKKK@Z 004020b0 f   ChannelMgr.obj
 0001:00001180       ?GmSubscribe@CChannelMgr@@QAEHK@Z 00402180 f   ChannelMgr.obj
 0001:00001210       ?GmUnsubscribe@CChannelMgr@@QAEHK@Z 00402210 f   ChannelMgr.obj
 0001:000012a0       ?IsGmSubscribed@CChannelMgr@@QAEHK@Z 004022a0 f   ChannelMgr.obj
 0001:00001310       ?GmQueryChannelID@CChannelMgr@@QAEHABV?$basic_string@DU?$char_traits@D@std@@V?$allocator@D@2@@std@@H@Z 00402310 f   ChannelMgr.obj
 0001:000014c0       ?GmFreeChannID@CChannelMgr@@QAEHK@Z 004024c0 f   ChannelMgr.obj
 0001:000015b0       ?IsUsed@CChannelMgr@@QAEHKKK@Z 004025b0 f   ChannelMgr.obj
 0001:00001690       ?IsGmUsed@CChannelMgr@@QAEHK@Z 00402690 f   ChannelMgr.obj
 0001:000016f0       ?MakeChannelName@CChannelMgr@@QAE?AV?$basic_string@DU?$char_traits@D@std@@V?$allocator@D@2@@std@@ABV23@K@Z 004026f0 f   ChannelMgr.obj
 0001:00001c80       ??R_tstring_less@@QBE_NABV?$basic_string@DU?$char_traits@D@std@@V?$allocator@D@2@@std@@0@Z 00402c80 f i ChannelMgr.obj
 0001:00001cd0       ?ReduceChannelName@CChannelMgr@@QAE?AV?$basic_string@DU?$char_traits@D@std@@V?$allocator@D@2@@std@@ABV23@@Z 00402cd0 f   ChannelMgr.obj
 0001:00001f90       ?ParseChannelName@CChannelMgr@@QAEKABV?$basic_string@DU?$char_traits@D@std@@V?$allocator@D@2@@std@@PAK@Z 00402f90 f   ChannelMgr.obj
 0001:000022d0       ?GainPreCost@CChannelMgr@@QAEEABV?$basic_string@DU?$char_traits@D@std@@V?$allocator@D@2@@std@@@Z 004032d0 f   ChannelMgr.obj
 0001:000023b0       ?GetGMChannID@CChannelMgr@@QAEKXZ 004033b0 f   ChannelMgr.obj
 0001:000023c0       ?IsGodChannel@CChannelMgr@@QAEHK@Z 004033c0 f   ChannelMgr.obj
 0001:00002420       ?IsStockChannel@CChannelMgr@@QAEHK@Z 00403420 f   ChannelMgr.obj
 0001:00002480       ?PassToSpecMan@CChannelMgr@@AAEHKKKPBXI@Z 00403480 f   ChannelMgr.obj
 0001:00002550       ??1CNetConnectDup@@UAE@XZ  00403550 f i ChannelMgr.obj
 0001:00002570       ??_GCNetConnectDup@@UAEPAXI@Z 00403570 f i ChannelMgr.obj
 0001:00002570       ??_ECNetConnectDup@@UAEPAXI@Z 00403570 f i ChannelMgr.obj
 0001:000025b0       ?PassToGroupMan@CChannelMgr@@AAEHKHABV?$list@UtagPlusSrcInfo@@V?$allocator@UtagPlusSrcInfo@@@std@@@std@@PBXI@Z 004035b0 f   ChannelMgr.obj
 0001:00002750       ?PassToGM@CChannelMgr@@AAEHPBXI@Z 00403750 f   ChannelMgr.obj
 0001:000027c0       ?IsValidTeamID@CChannelMgr@@AAEHK@Z 004037c0 f   ChannelMgr.obj
 0001:000027f0       ?IsValidKimID@CChannelMgr@@AAEHK@Z 004037f0 f   ChannelMgr.obj
 0001:00002820       ?IsValidFacID@CChannelMgr@@AAEHK@Z 00403820 f   ChannelMgr.obj
 0001:00002850       ?IsValidTongID@CChannelMgr@@AAEHK@Z 00403850 f   ChannelMgr.obj
 0001:00002880       ?SomeoneChat@CChannelMgr@@QAEHKABUtagPlusSrcInfo@@PBUCHAT_SOMEONECHAT_CMD@@@Z 00403880 f   ChannelMgr.obj
 0001:00002b40       ?ChannelChat@CChannelMgr@@QAEHKABUtagPlusSrcInfo@@PBUCHAT_CHANNELCHAT_CMD@@@Z 00403b40 f   ChannelMgr.obj
 0001:000033d0       ?IsNeedRelegate@CChannelMgr@@AAEHABV?$basic_string@DU?$char_traits@D@std@@V?$allocator@D@2@@std@@H@Z 004043d0 f   ChannelMgr.obj
 0001:00003420       ?QueryChannelID@CChannelMgr@@QAEHABV?$basic_string@DU?$char_traits@D@std@@V?$allocator@D@2@@std@@KKK@Z 00404420 f   ChannelMgr.obj
 0001:00003430       ?Subscribe@CChannelMgr@@QAEHKKK@Z 00404430 f   ChannelMgr.obj
 0001:00003440       ?Unsubscribe@CChannelMgr@@QAEHKKK@Z 00404440 f   ChannelMgr.obj
 0001:00003450       ?FreeChannID@CChannelMgr@@QAEHKKK@Z 00404450 f   ChannelMgr.obj
 0001:00003460       ?ClearPlayer@CChannelMgr@@QAEHKK@Z 00404460 f   ChannelMgr.obj
 0001:00003470       ?DoBlockOp@CChannelMgr@@QAEKK@Z 00404470 f   ChannelMgr.obj
 0001:00003480       ?Block_QueryChannelID@CChannelMgr@@AAEHABV?$basic_string@DU?$char_traits@D@std@@V?$allocator@D@2@@std@@KKK@Z 00404480 f   ChannelMgr.obj
 0001:00003980       ?Block_Subscribe@CChannelMgr@@AAEHKKK@Z 00404980 f   ChannelMgr.obj
 0001:00003a80       ?Block_Unsubscribe@CChannelMgr@@AAEHKKK@Z 00404a80 f   ChannelMgr.obj
 0001:00003b80       ?Block_FreeChannID@CChannelMgr@@AAEHKKK@Z 00404b80 f   ChannelMgr.obj
 0001:00003d30       ?Block_ClearPlayer@CChannelMgr@@AAEHKK@Z 00404d30 f   ChannelMgr.obj
 0001:00003eb0       ?B_QueryChannelID@CChannelMgr@@QAEHABV?$basic_string@DU?$char_traits@D@std@@V?$allocator@D@2@@std@@KKK@Z 00404eb0 f   ChannelMgr.obj
 0001:00003ed0       ?B_Subscribe@CChannelMgr@@QAEHKKK@Z 00404ed0 f   ChannelMgr.obj
 0001:00003ef0       ?B_Unsubscribe@CChannelMgr@@QAEHKKK@Z 00404ef0 f   ChannelMgr.obj
 0001:00003f10       ?B_FreeChannID@CChannelMgr@@QAEHKKK@Z 00404f10 f   ChannelMgr.obj
 0001:00003f30       ?B_ClearPlayer@CChannelMgr@@QAEHKK@Z 00404f30 f   ChannelMgr.obj
 0001:00003f50       ?GetChannelCount@CChannelMgr@@QAEIXZ 00404f50 f   ChannelMgr.obj
 0001:00003f60       ?SayOnSomeone@CChannelMgr@@QAEHKKKABV?$basic_string@DU?$char_traits@D@std@@V?$allocator@D@2@@std@@0@Z 00404f60 f   ChannelMgr.obj
 0001:000040c0       ?SayOnChannel@CChannelMgr@@QAEHKHABV?$basic_string@DU?$char_traits@D@std@@V?$allocator@D@2@@std@@00@Z 004050c0 f   ChannelMgr.obj
 0001:00004810       ??0?$basic_string@DU?$char_traits@D@std@@V?$allocator@D@2@@std@@QAE@ABV?$allocator@D@1@@Z 00405810 f i ChannelMgr.obj
 0001:00004830       ??0?$basic_string@DU?$char_traits@D@std@@V?$allocator@D@2@@std@@QAE@ABV01@@Z 00405830 f i ChannelMgr.obj
 0001:00004950       ??1?$basic_string@DU?$char_traits@D@std@@V?$allocator@D@2@@std@@QAE@XZ 00405950 f i ChannelMgr.obj
 0001:00004990       ??A?$map@KV?$map@KUPLAYERINFO@CChannelMgr@@U?$less@K@std@@V?$allocator@UPLAYERINFO@CChannelMgr@@@4@@std@@U?$less@K@2@V?$allocator@V?$map@KUPLAYERINFO@CChannelMgr@@U?$less@K@std@@V?$allocator@UPLAYERINFO@CChannelMgr@@@4@@std@@@2@@std@@QAEAAV?$map@KUPLAYERINFO@CChannelMgr@@U?$less@K@std@@V?$allocator@UPLAYERINFO@CChannelMgr@@@4@@1@ABK@Z 00405990 f i ChannelMgr.obj
 0001:00004b20       ??A?$map@KUCHANNINFO@CChannelMgr@@U?$less@K@std@@V?$allocator@UCHANNINFO@CChannelMgr@@@4@@std@@QAEAAUCHANNINFO@CChannelMgr@@ABK@Z 00405b20 f i ChannelMgr.obj
 0001:00004c80       ??A?$map@V?$basic_string@DU?$char_traits@D@std@@V?$allocator@D@2@@std@@KU_tstring_less@@V?$allocator@K@2@@std@@QAEAAKABV?$basic_string@DU?$char_traits@D@std@@V?$allocator@D@2@@1@@Z 00405c80 f i ChannelMgr.obj
 0001:00004d30       ??1?$list@UtagPlusSrcInfo@@V?$allocator@UtagPlusSrcInfo@@@std@@@std@@QAE@XZ 00405d30 f i ChannelMgr.obj
 0001:00004d80       ??1?$map@KUPLAYERINFO@CChannelMgr@@U?$less@K@std@@V?$allocator@UPLAYERINFO@CChannelMgr@@@4@@std@@QAE@XZ 00405d80 f i ChannelMgr.obj
 0001:00004df0       ??1?$pair@$$CBKV?$map@KUPLAYERINFO@CChannelMgr@@U?$less@K@std@@V?$allocator@UPLAYERINFO@CChannelMgr@@@4@@std@@@std@@QAE@XZ 00405df0 f i ChannelMgr.obj
 0001:00004e60       ??0CHANNINFO@CChannelMgr@@QAE@XZ 00405e60 f i ChannelMgr.obj
 0001:00004f40       ??1CHANNINFO@CChannelMgr@@QAE@XZ 00405f40 f i ChannelMgr.obj
 0001:00005010       ??1?$pair@$$CBKUCHANNINFO@CChannelMgr@@@std@@QAE@XZ 00406010 f i ChannelMgr.obj
 0001:000050e0       ??1?$pair@$$CBV?$basic_string@DU?$char_traits@D@std@@V?$allocator@D@2@@std@@K@std@@QAE@XZ 004060e0 f i ChannelMgr.obj
 0001:00005120       ?append@?$basic_string@DU?$char_traits@D@std@@V?$allocator@D@2@@std@@QAEAAV12@ID@Z 00406120 f i ChannelMgr.obj
 0001:000051f0       ?assign@?$basic_string@DU?$char_traits@D@std@@V?$allocator@D@2@@std@@QAEAAV12@ABV12@II@Z 004061f0 f i ChannelMgr.obj
 0001:000053f0       ?assign@?$basic_string@DU?$char_traits@D@std@@V?$allocator@D@2@@std@@QAEAAV12@PBDI@Z 004063f0 f i ChannelMgr.obj
 0001:00005490       ?rfind@?$basic_string@DU?$char_traits@D@std@@V?$allocator@D@2@@std@@QBEIPBDII@Z 00406490 f i ChannelMgr.obj
 0001:00005510       ?find_last_not_of@?$basic_string@DU?$char_traits@D@std@@V?$allocator@D@2@@std@@QBEIPBDII@Z 00406510 f i ChannelMgr.obj
 0001:00005580       ?_Freeze@?$basic_string@DU?$char_traits@D@std@@V?$allocator@D@2@@std@@AAEXXZ 00406580 f i ChannelMgr.obj
 0001:00005600       ?_Tidy@?$basic_string@DU?$char_traits@D@std@@V?$allocator@D@2@@std@@AAEX_N@Z 00406600 f i ChannelMgr.obj
 0001:00005650       ??0?$map@KV?$map@KUPLAYERINFO@CChannelMgr@@U?$less@K@std@@V?$allocator@UPLAYERINFO@CChannelMgr@@@4@@std@@U?$less@K@2@V?$allocator@V?$map@KUPLAYERINFO@CChannelMgr@@U?$less@K@std@@V?$allocator@UPLAYERINFO@CChannelMgr@@@4@@std@@@2@@std@@QAE@ABU?$less@K@1@ABV?$allocator@V?$map@KUPLAYERINFO@CChannelMgr@@U?$less@K@std@@V?$allocator@UPLAYERINFO@CChannelMgr@@@4@@std@@@1@@Z 00406650 f i ChannelMgr.obj
 0001:00005720       ?insert@?$map@KV?$map@KUPLAYERINFO@CChannelMgr@@U?$less@K@std@@V?$allocator@UPLAYERINFO@CChannelMgr@@@4@@std@@U?$less@K@2@V?$allocator@V?$map@KUPLAYERINFO@CChannelMgr@@U?$less@K@std@@V?$allocator@UPLAYERINFO@CChannelMgr@@@4@@std@@@2@@std@@QAE?AU?$pair@Viterator@?$_Tree@KU?$pair@$$CBKV?$map@KUPLAYERINFO@CChannelMgr@@U?$less@K@std@@V?$allocator@UPLAYERINFO@CChannelMgr@@@4@@std@@@std@@U_Kfn@?$map@KV?$map@KUPLAYERINFO@CChannelMgr@@U?$less@K@std@@V?$allocator@UPLAYERINFO@CChannelMgr@@@4@@std@@U?$less@K@2@V?$allocator@V?$map@KUPLAYERINFO@CChannelMgr@@U?$less@K@std@@V?$allocator@UPLAYERINFO@CChannelMgr@@@4@@std@@@2@@2@U?$less@K@2@V?$allocator@V?$map@KUPLAYERINFO@CChannelMgr@@U?$less@K@std@@V?$allocator@UPLAYERINFO@CChannelMgr@@@4@@std@@@2@@std@@_N@2@ABU?$pair@$$CBKV?$map@KUPLAYERINFO@CChannelMgr@@U?$less@K@std@@V?$allocator@UPLAYERINFO@CChannelMgr@@@4@@std@@@2@@Z 00406720 f i ChannelMgr.obj
 0001:00005750       ??1?$_Tree@KU?$pair@$$CBKV?$map@KUPLAYERINFO@CChannelMgr@@U?$less@K@std@@V?$allocator@UPLAYERINFO@CChannelMgr@@@4@@std@@@std@@U_Kfn@?$map@KV?$map@KUPLAYERINFO@CChannelMgr@@U?$less@K@std@@V?$allocator@UPLAYERINFO@CChannelMgr@@@4@@std@@U?$less@K@2@V?$allocator@V?$map@KUPLAYERINFO@CChannelMgr@@U?$less@K@std@@V?$allocator@UPLAYERINFO@CChannelMgr@@@4@@std@@@2@@2@U?$less@K@2@V?$allocator@V?$map@KUPLAYERINFO@CChannelMgr@@U?$less@K@std@@V?$allocator@UPLAYERINFO@CChannelMgr@@@4@@std@@@2@@std@@QAE@XZ 00406750 f i ChannelMgr.obj
 0001:000057c0       ?erase@?$_Tree@KU?$pair@$$CBKV?$map@KUPLAYERINFO@CChannelMgr@@U?$less@K@std@@V?$allocator@UPLAYERINFO@CChannelMgr@@@4@@std@@@std@@U_Kfn@?$map@KV?$map@KUPLAYERINFO@CChannelMgr@@U?$less@K@std@@V?$allocator@UPLAYERINFO@CChannelMgr@@@4@@std@@U?$less@K@2@V?$allocator@V?$map@KUPLAYERINFO@CChannelMgr@@U?$less@K@std@@V?$allocator@UPLAYERINFO@CChannelMgr@@@4@@std@@@2@@2@U?$less@K@2@V?$allocator@V?$map@KUPLAYERINFO@CChannelMgr@@U?$less@K@std@@V?$allocator@UPLAYERINFO@CChannelMgr@@@4@@std@@@2@@std@@QAE?AViterator@12@V312@@Z 004067c0 f i ChannelMgr.obj
 0001:00005d40       ?find@?$_Tree@KU?$pair@$$CBKV?$map@KUPLAYERINFO@CChannelMgr@@U?$less@K@std@@V?$allocator@UPLAYERINFO@CChannelMgr@@@4@@std@@@std@@U_Kfn@?$map@KV?$map@KUPLAYERINFO@CChannelMgr@@U?$less@K@std@@V?$allocator@UPLAYERINFO@CChannelMgr@@@4@@std@@U?$less@K@2@V?$allocator@V?$map@KUPLAYERINFO@CChannelMgr@@U?$less@K@std@@V?$allocator@UPLAYERINFO@CChannelMgr@@@4@@std@@@2@@2@U?$less@K@2@V?$allocator@V?$map@KUPLAYERINFO@CChannelMgr@@U?$less@K@std@@V?$allocator@UPLAYERINFO@CChannelMgr@@@4@@std@@@2@@std@@QAE?AViterator@12@ABK@Z 00406d40 f i ChannelMgr.obj
 0001:00005d90       ??0?$pair@$$CBKV?$map@KUPLAYERINFO@CChannelMgr@@U?$less@K@std@@V?$allocator@UPLAYERINFO@CChannelMgr@@@4@@std@@@std@@QAE@ABKABV?$map@KUPLAYERINFO@CChannelMgr@@U?$less@K@std@@V?$allocator@UPLAYERINFO@CChannelMgr@@@4@@1@@Z 00406d90 f i ChannelMgr.obj
 0001:00005fa0       ??1?$_Tree@KU?$pair@$$CBKUPLAYERINFO@CChannelMgr@@@std@@U_Kfn@?$map@KUPLAYERINFO@CChannelMgr@@U?$less@K@std@@V?$allocator@UPLAYERINFO@CChannelMgr@@@4@@2@U?$less@K@2@V?$allocator@UPLAYERINFO@CChannelMgr@@@2@@std@@QAE@XZ 00406fa0 f i ChannelMgr.obj
 0001:00006010       ?begin@?$_Tree@KU?$pair@$$CBKUPLAYERINFO@CChannelMgr@@@std@@U_Kfn@?$map@KUPLAYERINFO@CChannelMgr@@U?$less@K@std@@V?$allocator@UPLAYERINFO@CChannelMgr@@@4@@2@U?$less@K@2@V?$allocator@UPLAYERINFO@CChannelMgr@@@2@@std@@QAE?AViterator@12@XZ 00407010 f i ChannelMgr.obj
 0001:00006020       ?insert@?$map@KUCHANNINFO@CChannelMgr@@U?$less@K@std@@V?$allocator@UCHANNINFO@CChannelMgr@@@4@@std@@QAE?AU?$pair@Viterator@?$_Tree@KU?$pair@$$CBKUCHANNINFO@CChannelMgr@@@std@@U_Kfn@?$map@KUCHANNINFO@CChannelMgr@@U?$less@K@std@@V?$allocator@UCHANNINFO@CChannelMgr@@@4@@2@U?$less@K@2@V?$allocator@UCHANNINFO@CChannelMgr@@@2@@std@@_N@2@ABU?$pair@$$CBKUCHANNINFO@CChannelMgr@@@2@@Z 00407020 f i ChannelMgr.obj
 0001:00006050       ?erase@?$_Tree@KU?$pair@$$CBKUCHANNINFO@CChannelMgr@@@std@@U_Kfn@?$map@KUCHANNINFO@CChannelMgr@@U?$less@K@std@@V?$allocator@UCHANNINFO@CChannelMgr@@@4@@2@U?$less@K@2@V?$allocator@UCHANNINFO@CChannelMgr@@@2@@std@@QAE?AViterator@12@V312@@Z 00407050 f i ChannelMgr.obj
 0001:00006640       ?erase@?$_Tree@KU?$pair@$$CBKUCHANNINFO@CChannelMgr@@@std@@U_Kfn@?$map@KUCHANNINFO@CChannelMgr@@U?$less@K@std@@V?$allocator@UCHANNINFO@CChannelMgr@@@4@@2@U?$less@K@2@V?$allocator@UCHANNINFO@CChannelMgr@@@2@@std@@QAE?AViterator@12@V312@0@Z 00407640 f i ChannelMgr.obj
 0001:00006780       ?find@?$_Tree@KU?$pair@$$CBKUCHANNINFO@CChannelMgr@@@std@@U_Kfn@?$map@KUCHANNINFO@CChannelMgr@@U?$less@K@std@@V?$allocator@UCHANNINFO@CChannelMgr@@@4@@2@U?$less@K@2@V?$allocator@UCHANNINFO@CChannelMgr@@@2@@std@@QAE?AViterator@12@ABK@Z 00407780 f i ChannelMgr.obj
 0001:000067d0       ??0?$pair@$$CBKUCHANNINFO@CChannelMgr@@@std@@QAE@ABKABUCHANNINFO@CChannelMgr@@@Z 004077d0 f i ChannelMgr.obj
 0001:00006970       ?insert@?$map@V?$basic_string@DU?$char_traits@D@std@@V?$allocator@D@2@@std@@KU_tstring_less@@V?$allocator@K@2@@std@@QAE?AU?$pair@Viterator@?$_Tree@V?$basic_string@DU?$char_traits@D@std@@V?$allocator@D@2@@std@@U?$pair@$$CBV?$basic_string@DU?$char_traits@D@std@@V?$allocator@D@2@@std@@K@2@U_Kfn@?$map@V?$basic_string@DU?$char_traits@D@std@@V?$allocator@D@2@@std@@KU_tstring_less@@V?$allocator@K@2@@2@U_tstring_less@@V?$allocator@K@2@@std@@_N@2@ABU?$pair@$$CBV?$basic_string@DU?$char_traits@D@std@@V?$allocator@D@2@@std@@K@2@@Z 00407970 f i ChannelMgr.obj
 0001:000069a0       ?erase@?$_Tree@V?$basic_string@DU?$char_traits@D@std@@V?$allocator@D@2@@std@@U?$pair@$$CBV?$basic_string@DU?$char_traits@D@std@@V?$allocator@D@2@@std@@K@2@U_Kfn@?$map@V?$basic_string@DU?$char_traits@D@std@@V?$allocator@D@2@@std@@KU_tstring_less@@V?$allocator@K@2@@2@U_tstring_less@@V?$allocator@K@2@@std@@QAE?AViterator@12@V312@0@Z 004079a0 f i ChannelMgr.obj
 0001:00006ae0       ?find@?$_Tree@V?$basic_string@DU?$char_traits@D@std@@V?$allocator@D@2@@std@@U?$pair@$$CBV?$basic_string@DU?$char_traits@D@std@@V?$allocator@D@2@@std@@K@2@U_Kfn@?$map@V?$basic_string@DU?$char_traits@D@std@@V?$allocator@D@2@@std@@KU_tstring_less@@V?$allocator@K@2@@2@U_tstring_less@@V?$allocator@K@2@@std@@QAE?AViterator@12@ABV?$basic_string@DU?$char_traits@D@std@@V?$allocator@D@2@@2@@Z 00407ae0 f i ChannelMgr.obj
 0001:00006b60       ?erase@?$_Tree@KU?$pair@$$CBKV?$list@PAU_BLOCKCHANNELOP@CChannelMgr@@V?$allocator@PAU_BLOCKCHANNELOP@CChannelMgr@@@std@@@std@@@std@@U_Kfn@?$map@KV?$list@PAU_BLOCKCHANNELOP@CChannelMgr@@V?$allocator@PAU_BLOCKCHANNELOP@CChannelMgr@@@std@@@std@@U?$less@K@2@V?$allocator@V?$list@PAU_BLOCKCHANNELOP@CChannelMgr@@V?$allocator@PAU_BLOCKCHANNELOP@CChannelMgr@@@std@@@std@@@2@@2@U?$less@K@2@V?$allocator@V?$list@PAU_BLOCKCHANNELOP@CChannelMgr@@V?$allocator@PAU_BLOCKCHANNELOP@CChannelMgr@@@std@@@std@@@2@@std@@QAE?AViterator@12@V312@0@Z 00407b60 f i ChannelMgr.obj
 0001:00006ca0       ??1?$list@PAU_BLOCKCHANNELOP@CChannelMgr@@V?$allocator@PAU_BLOCKCHANNELOP@CChannelMgr@@@std@@@std@@QAE@XZ 00407ca0 f i ChannelMgr.obj
 0001:00006cf0       ??0CHANNINFO@CChannelMgr@@QAE@ABU01@@Z 00407cf0 f i ChannelMgr.obj
 0001:00006ec0       ??0?$map@KV?$map@KUPLAYERINFO@CChannelMgr@@U?$less@K@std@@V?$allocator@UPLAYERINFO@CChannelMgr@@@4@@std@@U?$less@K@2@V?$allocator@V?$map@KUPLAYERINFO@CChannelMgr@@U?$less@K@std@@V?$allocator@UPLAYERINFO@CChannelMgr@@@4@@std@@@2@@std@@QAE@ABV01@@Z 00407ec0 f i ChannelMgr.obj
 0001:000070c0       ?append@?$basic_string@DU?$char_traits@D@std@@V?$allocator@D@2@@std@@QAEAAV12@PBDI@Z 004080c0 f i ChannelMgr.obj
 0001:00007180       ?erase@?$basic_string@DU?$char_traits@D@std@@V?$allocator@D@2@@std@@QAEAAV12@II@Z 00408180 f i ChannelMgr.obj
 0001:000072a0       ?_Eos@?$basic_string@DU?$char_traits@D@std@@V?$allocator@D@2@@std@@AAEXI@Z 004082a0 f i ChannelMgr.obj
 0001:000072c0       ?_Grow@?$basic_string@DU?$char_traits@D@std@@V?$allocator@D@2@@std@@AAE_NI_N@Z 004082c0 f i ChannelMgr.obj
 0001:000073e0       ??0?$_Tree@KU?$pair@$$CBKV?$map@KUPLAYERINFO@CChannelMgr@@U?$less@K@std@@V?$allocator@UPLAYERINFO@CChannelMgr@@@4@@std@@@std@@U_Kfn@?$map@KV?$map@KUPLAYERINFO@CChannelMgr@@U?$less@K@std@@V?$allocator@UPLAYERINFO@CChannelMgr@@@4@@std@@U?$less@K@2@V?$allocator@V?$map@KUPLAYERINFO@CChannelMgr@@U?$less@K@std@@V?$allocator@UPLAYERINFO@CChannelMgr@@@4@@std@@@2@@2@U?$less@K@2@V?$allocator@V?$map@KUPLAYERINFO@CChannelMgr@@U?$less@K@std@@V?$allocator@UPLAYERINFO@CChannelMgr@@@4@@std@@@2@@std@@QAE@ABU?$less@K@1@_NABV?$allocator@V?$map@KUPLAYERINFO@CChannelMgr@@U?$less@K@std@@V?$allocator@UPLAYERINFO@CChannelMgr@@@4@@std@@@1@@Z 004083e0 f i ChannelMgr.obj
 0001:00007410       ?insert@?$_Tree@KU?$pair@$$CBKV?$map@KUPLAYERINFO@CChannelMgr@@U?$less@K@std@@V?$allocator@UPLAYERINFO@CChannelMgr@@@4@@std@@@std@@U_Kfn@?$map@KV?$map@KUPLAYERINFO@CChannelMgr@@U?$less@K@std@@V?$allocator@UPLAYERINFO@CChannelMgr@@@4@@std@@U?$less@K@2@V?$allocator@V?$map@KUPLAYERINFO@CChannelMgr@@U?$less@K@std@@V?$allocator@UPLAYERINFO@CChannelMgr@@@4@@std@@@2@@2@U?$less@K@2@V?$allocator@V?$map@KUPLAYERINFO@CChannelMgr@@U?$less@K@std@@V?$allocator@UPLAYERINFO@CChannelMgr@@@4@@std@@@2@@std@@QAE?AU?$pair@Viterator@?$_Tree@KU?$pair@$$CBKV?$map@KUPLAYERINFO@CChannelMgr@@U?$less@K@std@@V?$allocator@UPLAYERINFO@CChannelMgr@@@4@@std@@@std@@U_Kfn@?$map@KV?$map@KUPLAYERINFO@CChannelMgr@@U?$less@K@std@@V?$allocator@UPLAYERINFO@CChannelMgr@@@4@@std@@U?$less@K@2@V?$allocator@V?$map@KUPLAYERINFO@CChannelMgr@@U?$less@K@std@@V?$allocator@UPLAYERINFO@CChannelMgr@@@4@@std@@@2@@2@U?$less@K@2@V?$allocator@V?$map@KUPLAYERINFO@CChannelMgr@@U?$less@K@std@@V?$allocator@UPLAYERINFO@CChannelMgr@@@4@@std@@@2@@std@@_N@2@ABU?$pair@$$CBKV?$map@KUPLAYERINFO@CChannelMgr@@U?$less@K@std@@V?$allocator@UPLAYERINFO@CChannelMgr@@@4@@std@@@2@@Z 00408410 f i ChannelMgr.obj
 0001:00007540       ?erase@?$_Tree@KU?$pair@$$CBKV?$map@KUPLAYERINFO@CChannelMgr@@U?$less@K@std@@V?$allocator@UPLAYERINFO@CChannelMgr@@@4@@std@@@std@@U_Kfn@?$map@KV?$map@KUPLAYERINFO@CChannelMgr@@U?$less@K@std@@V?$allocator@UPLAYERINFO@CChannelMgr@@@4@@std@@U?$less@K@2@V?$allocator@V?$map@KUPLAYERINFO@CChannelMgr@@U?$less@K@std@@V?$allocator@UPLAYERINFO@CChannelMgr@@@4@@std@@@2@@2@U?$less@K@2@V?$allocator@V?$map@KUPLAYERINFO@CChannelMgr@@U?$less@K@std@@V?$allocator@UPLAYERINFO@CChannelMgr@@@4@@std@@@2@@std@@QAE?AViterator@12@V312@0@Z 00408540 f i ChannelMgr.obj
 0001:00007680       ?lower_bound@?$_Tree@KU?$pair@$$CBKV?$map@KUPLAYERINFO@CChannelMgr@@U?$less@K@std@@V?$allocator@UPLAYERINFO@CChannelMgr@@@4@@std@@@std@@U_Kfn@?$map@KV?$map@KUPLAYERINFO@CChannelMgr@@U?$less@K@std@@V?$allocator@UPLAYERINFO@CChannelMgr@@@4@@std@@U?$less@K@2@V?$allocator@V?$map@KUPLAYERINFO@CChannelMgr@@U?$less@K@std@@V?$allocator@UPLAYERINFO@CChannelMgr@@@4@@std@@@2@@2@U?$less@K@2@V?$allocator@V?$map@KUPLAYERINFO@CChannelMgr@@U?$less@K@std@@V?$allocator@UPLAYERINFO@CChannelMgr@@@4@@std@@@2@@std@@QAE?AViterator@12@ABK@Z 00408680 f i ChannelMgr.obj
 0001:000076a0       ?_Lmost@?$_Tree@KU?$pair@$$CBKV?$map@KUPLAYERINFO@CChannelMgr@@U?$less@K@std@@V?$allocator@UPLAYERINFO@CChannelMgr@@@4@@std@@@std@@U_Kfn@?$map@KV?$map@KUPLAYERINFO@CChannelMgr@@U?$less@K@std@@V?$allocator@UPLAYERINFO@CChannelMgr@@@4@@std@@U?$less@K@2@V?$allocator@V?$map@KUPLAYERINFO@CChannelMgr@@U?$less@K@std@@V?$allocator@UPLAYERINFO@CChannelMgr@@@4@@std@@@2@@2@U?$less@K@2@V?$allocator@V?$map@KUPLAYERINFO@CChannelMgr@@U?$less@K@std@@V?$allocator@UPLAYERINFO@CChannelMgr@@@4@@std@@@2@@std@@IAEAAPAU_Node@12@XZ 004086a0 f i ChannelMgr.obj
 0001:000076b0       ?_Max@?$_Tree@KU?$pair@$$CBKV?$map@KUPLAYERINFO@CChannelMgr@@U?$less@K@std@@V?$allocator@UPLAYERINFO@CChannelMgr@@@4@@std@@@std@@U_Kfn@?$map@KV?$map@KUPLAYERINFO@CChannelMgr@@U?$less@K@std@@V?$allocator@UPLAYERINFO@CChannelMgr@@@4@@std@@U?$less@K@2@V?$allocator@V?$map@KUPLAYERINFO@CChannelMgr@@U?$less@K@std@@V?$allocator@UPLAYERINFO@CChannelMgr@@@4@@std@@@2@@2@U?$less@K@2@V?$allocator@V?$map@KUPLAYERINFO@CChannelMgr@@U?$less@K@std@@V?$allocator@UPLAYERINFO@CChannelMgr@@@4@@std@@@2@@std@@KAPAU_Node@12@PAU312@@Z 004086b0 f i ChannelMgr.obj
 0001:000076f0       ?_Min@?$_Tree@KU?$pair@$$CBKV?$map@KUPLAYERINFO@CChannelMgr@@U?$less@K@std@@V?$allocator@UPLAYERINFO@CChannelMgr@@@4@@std@@@std@@U_Kfn@?$map@KV?$map@KUPLAYERINFO@CChannelMgr@@U?$less@K@std@@V?$allocator@UPLAYERINFO@CChannelMgr@@@4@@std@@U?$less@K@2@V?$allocator@V?$map@KUPLAYERINFO@CChannelMgr@@U?$less@K@std@@V?$allocator@UPLAYERINFO@CChannelMgr@@@4@@std@@@2@@2@U?$less@K@2@V?$allocator@V?$map@KUPLAYERINFO@CChannelMgr@@U?$less@K@std@@V?$allocator@UPLAYERINFO@CChannelMgr@@@4@@std@@@2@@std@@KAPAU_Node@12@PAU312@@Z 004086f0 f i ChannelMgr.obj
 0001:00007730       ??0?$_Tree@KU?$pair@$$CBKUPLAYERINFO@CChannelMgr@@@std@@U_Kfn@?$map@KUPLAYERINFO@CChannelMgr@@U?$less@K@std@@V?$allocator@UPLAYERINFO@CChannelMgr@@@4@@2@U?$less@K@2@V?$allocator@UPLAYERINFO@CChannelMgr@@@2@@std@@QAE@ABU?$less@K@1@_NABV?$allocator@UPLAYERINFO@CChannelMgr@@@1@@Z 00408730 f i ChannelMgr.obj
 0001:00007760       ?insert@?$_Tree@KU?$pair@$$CBKUPLAYERINFO@CChannelMgr@@@std@@U_Kfn@?$map@KUPLAYERINFO@CChannelMgr@@U?$less@K@std@@V?$allocator@UPLAYERINFO@CChannelMgr@@@4@@2@U?$less@K@2@V?$allocator@UPLAYERINFO@CChannelMgr@@@2@@std@@QAE?AU?$pair@Viterator@?$_Tree@KU?$pair@$$CBKUPLAYERINFO@CChannelMgr@@@std@@U_Kfn@?$map@KUPLAYERINFO@CChannelMgr@@U?$less@K@std@@V?$allocator@UPLAYERINFO@CChannelMgr@@@4@@2@U?$less@K@2@V?$allocator@UPLAYERINFO@CChannelMgr@@@2@@std@@_N@2@ABU?$pair@$$CBKUPLAYERINFO@CChannelMgr@@@2@@Z 00408760 f i ChannelMgr.obj
 0001:00007890       ?erase@?$_Tree@KU?$pair@$$CBKUPLAYERINFO@CChannelMgr@@@std@@U_Kfn@?$map@KUPLAYERINFO@CChannelMgr@@U?$less@K@std@@V?$allocator@UPLAYERINFO@CChannelMgr@@@4@@2@U?$less@K@2@V?$allocator@UPLAYERINFO@CChannelMgr@@@2@@std@@QAE?AViterator@12@V312@0@Z 00408890 f i ChannelMgr.obj
 0001:000079c0       ?equal_range@?$_Tree@KU?$pair@$$CBKUPLAYERINFO@CChannelMgr@@@std@@U_Kfn@?$map@KUPLAYERINFO@CChannelMgr@@U?$less@K@std@@V?$allocator@UPLAYERINFO@CChannelMgr@@@4@@2@U?$less@K@2@V?$allocator@UPLAYERINFO@CChannelMgr@@@2@@std@@QAE?AU?$pair@Viterator@?$_Tree@KU?$pair@$$CBKUPLAYERINFO@CChannelMgr@@@std@@U_Kfn@?$map@KUPLAYERINFO@CChannelMgr@@U?$less@K@std@@V?$allocator@UPLAYERINFO@CChannelMgr@@@4@@2@U?$less@K@2@V?$allocator@UPLAYERINFO@CChannelMgr@@@2@@std@@V123@@2@ABK@Z 004089c0 f i ChannelMgr.obj
 0001:000079f0       ?_Inc@const_iterator@?$_Tree@KU?$pair@$$CBKUPLAYERINFO@CChannelMgr@@@std@@U_Kfn@?$map@KUPLAYERINFO@CChannelMgr@@U?$less@K@std@@V?$allocator@UPLAYERINFO@CChannelMgr@@@4@@2@U?$less@K@2@V?$allocator@UPLAYERINFO@CChannelMgr@@@2@@std@@QAEXXZ 004089f0 f i ChannelMgr.obj
 0001:00007aa0       ?_Inc@const_iterator@?$_Tree@KU?$pair@$$CBKV?$map@KUPLAYERINFO@CChannelMgr@@U?$less@K@std@@V?$allocator@UPLAYERINFO@CChannelMgr@@@4@@std@@@std@@U_Kfn@?$map@KV?$map@KUPLAYERINFO@CChannelMgr@@U?$less@K@std@@V?$allocator@UPLAYERINFO@CChannelMgr@@@4@@std@@U?$less@K@2@V?$allocator@V?$map@KUPLAYERINFO@CChannelMgr@@U?$less@K@std@@V?$allocator@UPLAYERINFO@CChannelMgr@@@4@@std@@@2@@2@U?$less@K@2@V?$allocator@V?$map@KUPLAYERINFO@CChannelMgr@@U?$less@K@std@@V?$allocator@UPLAYERINFO@CChannelMgr@@@4@@std@@@2@@std@@QAEXXZ 00408aa0 f i ChannelMgr.obj
 0001:00007b50       ??0iterator@?$_Tree@KU?$pair@$$CBKV?$map@KUPLAYERINFO@CChannelMgr@@U?$less@K@std@@V?$allocator@UPLAYERINFO@CChannelMgr@@@4@@std@@@std@@U_Kfn@?$map@KV?$map@KUPLAYERINFO@CChannelMgr@@U?$less@K@std@@V?$allocator@UPLAYERINFO@CChannelMgr@@@4@@std@@U?$less@K@2@V?$allocator@V?$map@KUPLAYERINFO@CChannelMgr@@U?$less@K@std@@V?$allocator@UPLAYERINFO@CChannelMgr@@@4@@std@@@2@@2@U?$less@K@2@V?$allocator@V?$map@KUPLAYERINFO@CChannelMgr@@U?$less@K@std@@V?$allocator@UPLAYERINFO@CChannelMgr@@@4@@std@@@2@@std@@QAE@PAU_Node@12@@Z 00408b50 f i ChannelMgr.obj
 0001:00007b60       ?insert@?$_Tree@KU?$pair@$$CBKUCHANNINFO@CChannelMgr@@@std@@U_Kfn@?$map@KUCHANNINFO@CChannelMgr@@U?$less@K@std@@V?$allocator@UCHANNINFO@CChannelMgr@@@4@@2@U?$less@K@2@V?$allocator@UCHANNINFO@CChannelMgr@@@2@@std@@QAE?AU?$pair@Viterator@?$_Tree@KU?$pair@$$CBKUCHANNINFO@CChannelMgr@@@std@@U_Kfn@?$map@KUCHANNINFO@CChannelMgr@@U?$less@K@std@@V?$allocator@UCHANNINFO@CChannelMgr@@@4@@2@U?$less@K@2@V?$allocator@UCHANNINFO@CChannelMgr@@@2@@std@@_N@2@ABU?$pair@$$CBKUCHANNINFO@CChannelMgr@@@2@@Z 00408b60 f i ChannelMgr.obj
 0001:00007c90       ?lower_bound@?$_Tree@KU?$pair@$$CBKUCHANNINFO@CChannelMgr@@@std@@U_Kfn@?$map@KUCHANNINFO@CChannelMgr@@U?$less@K@std@@V?$allocator@UCHANNINFO@CChannelMgr@@@4@@2@U?$less@K@2@V?$allocator@UCHANNINFO@CChannelMgr@@@2@@std@@QAE?AViterator@12@ABK@Z 00408c90 f i ChannelMgr.obj
 0001:00007cb0       ?_Erase@?$_Tree@KU?$pair@$$CBKUCHANNINFO@CChannelMgr@@@std@@U_Kfn@?$map@KUCHANNINFO@CChannelMgr@@U?$less@K@std@@V?$allocator@UCHANNINFO@CChannelMgr@@@4@@2@U?$less@K@2@V?$allocator@UCHANNINFO@CChannelMgr@@@2@@std@@IAEXPAU_Node@12@@Z 00408cb0 f i ChannelMgr.obj
 0001:00007e20       ?_Inc@const_iterator@?$_Tree@KU?$pair@$$CBKUCHANNINFO@CChannelMgr@@@std@@U_Kfn@?$map@KUCHANNINFO@CChannelMgr@@U?$less@K@std@@V?$allocator@UCHANNINFO@CChannelMgr@@@4@@2@U?$less@K@2@V?$allocator@UCHANNINFO@CChannelMgr@@@2@@std@@QAEXXZ 00408e20 f i ChannelMgr.obj
 0001:00007ed0       ?insert@?$_Tree@V?$basic_string@DU?$char_traits@D@std@@V?$allocator@D@2@@std@@U?$pair@$$CBV?$basic_string@DU?$char_traits@D@std@@V?$allocator@D@2@@std@@K@2@U_Kfn@?$map@V?$basic_string@DU?$char_traits@D@std@@V?$allocator@D@2@@std@@KU_tstring_less@@V?$allocator@K@2@@2@U_tstring_less@@V?$allocator@K@2@@std@@QAE?AU?$pair@Viterator@?$_Tree@V?$basic_string@DU?$char_traits@D@std@@V?$allocator@D@2@@std@@U?$pair@$$CBV?$basic_string@DU?$char_traits@D@std@@V?$allocator@D@2@@std@@K@2@U_Kfn@?$map@V?$basic_string@DU?$char_traits@D@std@@V?$allocator@D@2@@std@@KU_tstring_less@@V?$allocator@K@2@@2@U_tstring_less@@V?$allocator@K@2@@std@@_N@2@ABU?$pair@$$CBV?$basic_string@DU?$char_traits@D@std@@V?$allocator@D@2@@std@@K@2@@Z 00408ed0 f i ChannelMgr.obj
 0001:00008050       ?erase@?$_Tree@V?$basic_string@DU?$char_traits@D@std@@V?$allocator@D@2@@std@@U?$pair@$$CBV?$basic_string@DU?$char_traits@D@std@@V?$allocator@D@2@@std@@K@2@U_Kfn@?$map@V?$basic_string@DU?$char_traits@D@std@@V?$allocator@D@2@@std@@KU_tstring_less@@V?$allocator@K@2@@2@U_tstring_less@@V?$allocator@K@2@@std@@QAE?AViterator@12@V312@@Z 00409050 f i ChannelMgr.obj
 0001:00008580       ?lower_bound@?$_Tree@V?$basic_string@DU?$char_traits@D@std@@V?$allocator@D@2@@std@@U?$pair@$$CBV?$basic_string@DU?$char_traits@D@std@@V?$allocator@D@2@@std@@K@2@U_Kfn@?$map@V?$basic_string@DU?$char_traits@D@std@@V?$allocator@D@2@@std@@KU_tstring_less@@V?$allocator@K@2@@2@U_tstring_less@@V?$allocator@K@2@@std@@QAE?AViterator@12@ABV?$basic_string@DU?$char_traits@D@std@@V?$allocator@D@2@@2@@Z 00409580 f i ChannelMgr.obj
 0001:000085a0       ?_Erase@?$_Tree@V?$basic_string@DU?$char_traits@D@std@@V?$allocator@D@2@@std@@U?$pair@$$CBV?$basic_string@DU?$char_traits@D@std@@V?$allocator@D@2@@std@@K@2@U_Kfn@?$map@V?$basic_string@DU?$char_traits@D@std@@V?$allocator@D@2@@std@@KU_tstring_less@@V?$allocator@K@2@@2@U_tstring_less@@V?$allocator@K@2@@std@@IAEXPAU_Node@12@@Z 004095a0 f i ChannelMgr.obj
 0001:00008650       ?erase@?$_Tree@KU?$pair@$$CBKV?$list@PAU_BLOCKCHANNELOP@CChannelMgr@@V?$allocator@PAU_BLOCKCHANNELOP@CChannelMgr@@@std@@@std@@@std@@U_Kfn@?$map@KV?$list@PAU_BLOCKCHANNELOP@CChannelMgr@@V?$allocator@PAU_BLOCKCHANNELOP@CChannelMgr@@@std@@@std@@U?$less@K@2@V?$allocator@V?$list@PAU_BLOCKCHANNELOP@CChannelMgr@@V?$allocator@PAU_BLOCKCHANNELOP@CChannelMgr@@@std@@@std@@@2@@2@U?$less@K@2@V?$allocator@V?$list@PAU_BLOCKCHANNELOP@CChannelMgr@@V?$allocator@PAU_BLOCKCHANNELOP@CChannelMgr@@@std@@@std@@@2@@std@@QAE?AViterator@12@V312@@Z 00409650 f i ChannelMgr.obj
 0001:00008b90       ?_Next@_Acc@?$list@PAU_BLOCKCHANNELOP@CChannelMgr@@V?$allocator@PAU_BLOCKCHANNELOP@CChannelMgr@@@std@@@std@@SAAAPAU_Node@23@PAU423@@Z 00409b90 f i ChannelMgr.obj
 0001:00008ba0       ?_Erase@?$_Tree@KU?$pair@$$CBKV?$list@PAU_BLOCKCHANNELOP@CChannelMgr@@V?$allocator@PAU_BLOCKCHANNELOP@CChannelMgr@@@std@@@std@@@std@@U_Kfn@?$map@KV?$list@PAU_BLOCKCHANNELOP@CChannelMgr@@V?$allocator@PAU_BLOCKCHANNELOP@CChannelMgr@@@std@@@std@@U?$less@K@2@V?$allocator@V?$list@PAU_BLOCKCHANNELOP@CChannelMgr@@V?$allocator@PAU_BLOCKCHANNELOP@CChannelMgr@@@std@@@std@@@2@@2@U?$less@K@2@V?$allocator@V?$list@PAU_BLOCKCHANNELOP@CChannelMgr@@V?$allocator@PAU_BLOCKCHANNELOP@CChannelMgr@@@std@@@std@@@2@@std@@IAEXPAU_Node@12@@Z 00409ba0 f i ChannelMgr.obj
 0001:00008c80       ?_Inc@const_iterator@?$_Tree@KU?$pair@$$CBKV?$list@PAU_BLOCKCHANNELOP@CChannelMgr@@V?$allocator@PAU_BLOCKCHANNELOP@CChannelMgr@@@std@@@std@@@std@@U_Kfn@?$map@KV?$list@PAU_BLOCKCHANNELOP@CChannelMgr@@V?$allocator@PAU_BLOCKCHANNELOP@CChannelMgr@@@std@@@std@@U?$less@K@2@V?$allocator@V?$list@PAU_BLOCKCHANNELOP@CChannelMgr@@V?$allocator@PAU_BLOCKCHANNELOP@CChannelMgr@@@std@@@std@@@2@@2@U?$less@K@2@V?$allocator@V?$list@PAU_BLOCKCHANNELOP@CChannelMgr@@V?$allocator@PAU_BLOCKCHANNELOP@CChannelMgr@@@std@@@std@@@2@@std@@QAEXXZ 00409c80 f i ChannelMgr.obj
 0001:00008d30       ??0?$pair@Viterator@?$_Tree@KU?$pair@$$CBKUPLAYERINFO@CChannelMgr@@@std@@U_Kfn@?$map@KUPLAYERINFO@CChannelMgr@@U?$less@K@std@@V?$allocator@UPLAYERINFO@CChannelMgr@@@4@@2@U?$less@K@2@V?$allocator@UPLAYERINFO@CChannelMgr@@@2@@std@@_N@std@@QAE@ABViterator@?$_Tree@KU?$pair@$$CBKUPLAYERINFO@CChannelMgr@@@std@@U_Kfn@?$map@KUPLAYERINFO@CChannelMgr@@U?$less@K@std@@V?$allocator@UPLAYERINFO@CChannelMgr@@@4@@2@U?$less@K@2@V?$allocator@UPLAYERINFO@CChannelMgr@@@2@@1@AB_N@Z 00409d30 f i ChannelMgr.obj
 0001:00008d50       ??0?$pair@Viterator@?$_Tree@V?$basic_string@DU?$char_traits@D@std@@V?$allocator@D@2@@std@@U?$pair@$$CBV?$basic_string@DU?$char_traits@D@std@@V?$allocator@D@2@@std@@K@2@U_Kfn@?$map@V?$basic_string@DU?$char_traits@D@std@@V?$allocator@D@2@@std@@KU_tstring_less@@V?$allocator@K@2@@2@U_tstring_less@@V?$allocator@K@2@@std@@_N@std@@QAE@ABViterator@?$_Tree@V?$basic_string@DU?$char_traits@D@std@@V?$allocator@D@2@@std@@U?$pair@$$CBV?$basic_string@DU?$char_traits@D@std@@V?$allocator@D@2@@std@@K@2@U_Kfn@?$map@V?$basic_string@DU?$char_traits@D@std@@V?$allocator@D@2@@std@@KU_tstring_less@@V?$allocator@K@2@@2@U_tstring_less@@V?$allocator@K@2@@1@AB_N@Z 00409d50 f i ChannelMgr.obj
 0001:00008d70       ?max_size@?$basic_string@DU?$char_traits@D@std@@V?$allocator@D@2@@std@@QBEIXZ 00409d70 f i ChannelMgr.obj
 0001:00008d80       ?_Copy@?$basic_string@DU?$char_traits@D@std@@V?$allocator@D@2@@std@@AAEXI@Z 00409d80 f i ChannelMgr.obj
 0001:00008e90       ?_Split@?$basic_string@DU?$char_traits@D@std@@V?$allocator@D@2@@std@@AAEXXZ 00409e90 f i ChannelMgr.obj
 0001:00008f60       ?deallocate@?$allocator@V?$map@KUPLAYERINFO@CChannelMgr@@U?$less@K@std@@V?$allocator@UPLAYERINFO@CChannelMgr@@@4@@std@@@std@@QAEXPAXI@Z 00409f60 f i ChannelMgr.obj
 0001:00008f70       ?_Copy@?$_Tree@KU?$pair@$$CBKV?$map@KUPLAYERINFO@CChannelMgr@@U?$less@K@std@@V?$allocator@UPLAYERINFO@CChannelMgr@@@4@@std@@@std@@U_Kfn@?$map@KV?$map@KUPLAYERINFO@CChannelMgr@@U?$less@K@std@@V?$allocator@UPLAYERINFO@CChannelMgr@@@4@@std@@U?$less@K@2@V?$allocator@V?$map@KUPLAYERINFO@CChannelMgr@@U?$less@K@std@@V?$allocator@UPLAYERINFO@CChannelMgr@@@4@@std@@@2@@2@U?$less@K@2@V?$allocator@V?$map@KUPLAYERINFO@CChannelMgr@@U?$less@K@std@@V?$allocator@UPLAYERINFO@CChannelMgr@@@4@@std@@@2@@std@@IAEXABV12@@Z 00409f70 f i ChannelMgr.obj
 0001:000090f0       ?_Erase@?$_Tree@KU?$pair@$$CBKV?$map@KUPLAYERINFO@CChannelMgr@@U?$less@K@std@@V?$allocator@UPLAYERINFO@CChannelMgr@@@4@@std@@@std@@U_Kfn@?$map@KV?$map@KUPLAYERINFO@CChannelMgr@@U?$less@K@std@@V?$allocator@UPLAYERINFO@CChannelMgr@@@4@@std@@U?$less@K@2@V?$allocator@V?$map@KUPLAYERINFO@CChannelMgr@@U?$less@K@std@@V?$allocator@UPLAYERINFO@CChannelMgr@@@4@@std@@@2@@2@U?$less@K@2@V?$allocator@V?$map@KUPLAYERINFO@CChannelMgr@@U?$less@K@std@@V?$allocator@UPLAYERINFO@CChannelMgr@@@4@@std@@@2@@std@@IAEXPAU_Node@12@@Z 0040a0f0 f i ChannelMgr.obj
 0001:00009210       ?_Init@?$_Tree@KU?$pair@$$CBKV?$map@KUPLAYERINFO@CChannelMgr@@U?$less@K@std@@V?$allocator@UPLAYERINFO@CChannelMgr@@@4@@std@@@std@@U_Kfn@?$map@KV?$map@KUPLAYERINFO@CChannelMgr@@U?$less@K@std@@V?$allocator@UPLAYERINFO@CChannelMgr@@@4@@std@@U?$less@K@2@V?$allocator@V?$map@KUPLAYERINFO@CChannelMgr@@U?$less@K@std@@V?$allocator@UPLAYERINFO@CChannelMgr@@@4@@std@@@2@@2@U?$less@K@2@V?$allocator@V?$map@KUPLAYERINFO@CChannelMgr@@U?$less@K@std@@V?$allocator@UPLAYERINFO@CChannelMgr@@@4@@std@@@2@@std@@IAEXXZ 0040a210 f i ChannelMgr.obj
 0001:000092c0       ?_Insert@?$_Tree@KU?$pair@$$CBKV?$map@KUPLAYERINFO@CChannelMgr@@U?$less@K@std@@V?$allocator@UPLAYERINFO@CChannelMgr@@@4@@std@@@std@@U_Kfn@?$map@KV?$map@KUPLAYERINFO@CChannelMgr@@U?$less@K@std@@V?$allocator@UPLAYERINFO@CChannelMgr@@@4@@std@@U?$less@K@2@V?$allocator@V?$map@KUPLAYERINFO@CChannelMgr@@U?$less@K@std@@V?$allocator@UPLAYERINFO@CChannelMgr@@@4@@std@@@2@@2@U?$less@K@2@V?$allocator@V?$map@KUPLAYERINFO@CChannelMgr@@U?$less@K@std@@V?$allocator@UPLAYERINFO@CChannelMgr@@@4@@std@@@2@@std@@IAE?AViterator@12@PAU_Node@12@0ABU?$pair@$$CBKV?$map@KUPLAYERINFO@CChannelMgr@@U?$less@K@std@@V?$allocator@UPLAYERINFO@CChannelMgr@@@4@@std@@@2@@Z 0040a2c0 f i ChannelMgr.obj
 0001:000095c0       ?_Lbound@?$_Tree@KU?$pair@$$CBKV?$map@KUPLAYERINFO@CChannelMgr@@U?$less@K@std@@V?$allocator@UPLAYERINFO@CChannelMgr@@@4@@std@@@std@@U_Kfn@?$map@KV?$map@KUPLAYERINFO@CChannelMgr@@U?$less@K@std@@V?$allocator@UPLAYERINFO@CChannelMgr@@@4@@std@@U?$less@K@2@V?$allocator@V?$map@KUPLAYERINFO@CChannelMgr@@U?$less@K@std@@V?$allocator@UPLAYERINFO@CChannelMgr@@@4@@std@@@2@@2@U?$less@K@2@V?$allocator@V?$map@KUPLAYERINFO@CChannelMgr@@U?$less@K@std@@V?$allocator@UPLAYERINFO@CChannelMgr@@@4@@std@@@2@@std@@IBEPAU_Node@12@ABK@Z 0040a5c0 f i ChannelMgr.obj
 0001:00009610       ?_Left@?$_Tree@KU?$pair@$$CBKUPLAYERINFO@CChannelMgr@@@std@@U_Kfn@?$map@KUPLAYERINFO@CChannelMgr@@U?$less@K@std@@V?$allocator@UPLAYERINFO@CChannelMgr@@@4@@2@U?$less@K@2@V?$allocator@UPLAYERINFO@CChannelMgr@@@2@@std@@KAAAPAU_Node@12@PAU312@@Z 0040a610 f i ChannelMgr.obj
 0001:00009620       ?erase@?$_Tree@KU?$pair@$$CBKUPLAYERINFO@CChannelMgr@@@std@@U_Kfn@?$map@KUPLAYERINFO@CChannelMgr@@U?$less@K@std@@V?$allocator@UPLAYERINFO@CChannelMgr@@@4@@2@U?$less@K@2@V?$allocator@UPLAYERINFO@CChannelMgr@@@2@@std@@QAE?AViterator@12@V312@@Z 0040a620 f i ChannelMgr.obj
 0001:00009b40       ?_Copy@?$_Tree@KU?$pair@$$CBKUPLAYERINFO@CChannelMgr@@@std@@U_Kfn@?$map@KUPLAYERINFO@CChannelMgr@@U?$less@K@std@@V?$allocator@UPLAYERINFO@CChannelMgr@@@4@@2@U?$less@K@2@V?$allocator@UPLAYERINFO@CChannelMgr@@@2@@std@@IAEXABV12@@Z 0040ab40 f i ChannelMgr.obj
 0001:00009cc0       ?_Erase@?$_Tree@KU?$pair@$$CBKUPLAYERINFO@CChannelMgr@@@std@@U_Kfn@?$map@KUPLAYERINFO@CChannelMgr@@U?$less@K@std@@V?$allocator@UPLAYERINFO@CChannelMgr@@@4@@2@U?$less@K@2@V?$allocator@UPLAYERINFO@CChannelMgr@@@2@@std@@IAEXPAU_Node@12@@Z 0040acc0 f i ChannelMgr.obj
 0001:00009d50       ?_Init@?$_Tree@KU?$pair@$$CBKUPLAYERINFO@CChannelMgr@@@std@@U_Kfn@?$map@KUPLAYERINFO@CChannelMgr@@U?$less@K@std@@V?$allocator@UPLAYERINFO@CChannelMgr@@@4@@2@U?$less@K@2@V?$allocator@UPLAYERINFO@CChannelMgr@@@2@@std@@IAEXXZ 0040ad50 f i ChannelMgr.obj
 0001:00009e00       ?_Insert@?$_Tree@KU?$pair@$$CBKUPLAYERINFO@CChannelMgr@@@std@@U_Kfn@?$map@KUPLAYERINFO@CChannelMgr@@U?$less@K@std@@V?$allocator@UPLAYERINFO@CChannelMgr@@@4@@2@U?$less@K@2@V?$allocator@UPLAYERINFO@CChannelMgr@@@2@@std@@IAE?AViterator@12@PAU_Node@12@0ABU?$pair@$$CBKUPLAYERINFO@CChannelMgr@@@2@@Z 0040ae00 f i ChannelMgr.obj
 0001:0000a100       ?_Lbound@?$_Tree@KU?$pair@$$CBKUPLAYERINFO@CChannelMgr@@@std@@U_Kfn@?$map@KUPLAYERINFO@CChannelMgr@@U?$less@K@std@@V?$allocator@UPLAYERINFO@CChannelMgr@@@4@@2@U?$less@K@2@V?$allocator@UPLAYERINFO@CChannelMgr@@@2@@std@@IBEPAU_Node@12@ABK@Z 0040b100 f i ChannelMgr.obj
 0001:0000a150       ??0const_iterator@?$_Tree@KU?$pair@$$CBKUPLAYERINFO@CChannelMgr@@@std@@U_Kfn@?$map@KUPLAYERINFO@CChannelMgr@@U?$less@K@std@@V?$allocator@UPLAYERINFO@CChannelMgr@@@4@@2@U?$less@K@2@V?$allocator@UPLAYERINFO@CChannelMgr@@@2@@std@@QAE@PAU_Node@12@@Z 0040b150 f i ChannelMgr.obj
 0001:0000a160       ?_Insert@?$_Tree@KU?$pair@$$CBKUCHANNINFO@CChannelMgr@@@std@@U_Kfn@?$map@KUCHANNINFO@CChannelMgr@@U?$less@K@std@@V?$allocator@UCHANNINFO@CChannelMgr@@@4@@2@U?$less@K@2@V?$allocator@UCHANNINFO@CChannelMgr@@@2@@std@@IAE?AViterator@12@PAU_Node@12@0ABU?$pair@$$CBKUCHANNINFO@CChannelMgr@@@2@@Z 0040b160 f i ChannelMgr.obj
 0001:0000a460       ?_Lbound@?$_Tree@KU?$pair@$$CBKUCHANNINFO@CChannelMgr@@@std@@U_Kfn@?$map@KUCHANNINFO@CChannelMgr@@U?$less@K@std@@V?$allocator@UCHANNINFO@CChannelMgr@@@4@@2@U?$less@K@2@V?$allocator@UCHANNINFO@CChannelMgr@@@2@@std@@IBEPAU_Node@12@ABK@Z 0040b460 f i ChannelMgr.obj
 0001:0000a4b0       ?_Buynode@?$_Tree@KU?$pair@$$CBKUCHANNINFO@CChannelMgr@@@std@@U_Kfn@?$map@KUCHANNINFO@CChannelMgr@@U?$less@K@std@@V?$allocator@UCHANNINFO@CChannelMgr@@@4@@2@U?$less@K@2@V?$allocator@UCHANNINFO@CChannelMgr@@@2@@std@@IAEPAU_Node@12@PAU312@W4_Redbl@12@@Z 0040b4b0 f i ChannelMgr.obj
 0001:0000a4d0       ?_Insert@?$_Tree@V?$basic_string@DU?$char_traits@D@std@@V?$allocator@D@2@@std@@U?$pair@$$CBV?$basic_string@DU?$char_traits@D@std@@V?$allocator@D@2@@std@@K@2@U_Kfn@?$map@V?$basic_string@DU?$char_traits@D@std@@V?$allocator@D@2@@std@@KU_tstring_less@@V?$allocator@K@2@@2@U_tstring_less@@V?$allocator@K@2@@std@@IAE?AViterator@12@PAU_Node@12@0ABU?$pair@$$CBV?$basic_string@DU?$char_traits@D@std@@V?$allocator@D@2@@std@@K@2@@Z 0040b4d0 f i ChannelMgr.obj
 0001:0000a800       ?_Lbound@?$_Tree@V?$basic_string@DU?$char_traits@D@std@@V?$allocator@D@2@@std@@U?$pair@$$CBV?$basic_string@DU?$char_traits@D@std@@V?$allocator@D@2@@std@@K@2@U_Kfn@?$map@V?$basic_string@DU?$char_traits@D@std@@V?$allocator@D@2@@std@@KU_tstring_less@@V?$allocator@K@2@@2@U_tstring_less@@V?$allocator@K@2@@std@@IBEPAU_Node@12@ABV?$basic_string@DU?$char_traits@D@std@@V?$allocator@D@2@@2@@Z 0040b800 f i ChannelMgr.obj
 0001:0000a880       ?_Buynode@?$_Tree@V?$basic_string@DU?$char_traits@D@std@@V?$allocator@D@2@@std@@U?$pair@$$CBV?$basic_string@DU?$char_traits@D@std@@V?$allocator@D@2@@std@@K@2@U_Kfn@?$map@V?$basic_string@DU?$char_traits@D@std@@V?$allocator@D@2@@std@@KU_tstring_less@@V?$allocator@K@2@@2@U_tstring_less@@V?$allocator@K@2@@std@@IAEPAU_Node@12@PAU312@W4_Redbl@12@@Z 0040b880 f i ChannelMgr.obj
 0001:0000a8a0       ?_Buynode@?$_Tree@KU?$pair@$$CBKV?$list@PAU_BLOCKCHANNELOP@CChannelMgr@@V?$allocator@PAU_BLOCKCHANNELOP@CChannelMgr@@@std@@@std@@@std@@U_Kfn@?$map@KV?$list@PAU_BLOCKCHANNELOP@CChannelMgr@@V?$allocator@PAU_BLOCKCHANNELOP@CChannelMgr@@@std@@@std@@U?$less@K@2@V?$allocator@V?$list@PAU_BLOCKCHANNELOP@CChannelMgr@@V?$allocator@PAU_BLOCKCHANNELOP@CChannelMgr@@@std@@@std@@@2@@2@U?$less@K@2@V?$allocator@V?$list@PAU_BLOCKCHANNELOP@CChannelMgr@@V?$allocator@PAU_BLOCKCHANNELOP@CChannelMgr@@@std@@@std@@@2@@std@@IAEPAU_Node@12@PAU312@W4_Redbl@12@@Z 0040b8a0 f i ChannelMgr.obj
 0001:0000a8c0       ?erase@?$list@PAU_BLOCKCHANNELOP@CChannelMgr@@V?$allocator@PAU_BLOCKCHANNELOP@CChannelMgr@@@std@@@std@@QAE?AViterator@12@V312@@Z 0040b8c0 f i ChannelMgr.obj
 0001:0000a900       ?_Copy@?$_Tree@KU?$pair@$$CBKV?$map@KUPLAYERINFO@CChannelMgr@@U?$less@K@std@@V?$allocator@UPLAYERINFO@CChannelMgr@@@4@@std@@@std@@U_Kfn@?$map@KV?$map@KUPLAYERINFO@CChannelMgr@@U?$less@K@std@@V?$allocator@UPLAYERINFO@CChannelMgr@@@4@@std@@U?$less@K@2@V?$allocator@V?$map@KUPLAYERINFO@CChannelMgr@@U?$less@K@std@@V?$allocator@UPLAYERINFO@CChannelMgr@@@4@@std@@@2@@2@U?$less@K@2@V?$allocator@V?$map@KUPLAYERINFO@CChannelMgr@@U?$less@K@std@@V?$allocator@UPLAYERINFO@CChannelMgr@@@4@@std@@@2@@std@@IAEPAU_Node@12@PAU312@0@Z 0040b900 f i ChannelMgr.obj
 0001:0000aa10       ??3@YAXPAX0@Z              0040ba10 f i ChannelMgr.obj
 0001:0000aa20       ?_Buynode@?$_Tree@KU?$pair@$$CBKV?$map@KUPLAYERINFO@CChannelMgr@@U?$less@K@std@@V?$allocator@UPLAYERINFO@CChannelMgr@@@4@@std@@@std@@U_Kfn@?$map@KV?$map@KUPLAYERINFO@CChannelMgr@@U?$less@K@std@@V?$allocator@UPLAYERINFO@CChannelMgr@@@4@@std@@U?$less@K@2@V?$allocator@V?$map@KUPLAYERINFO@CChannelMgr@@U?$less@K@std@@V?$allocator@UPLAYERINFO@CChannelMgr@@@4@@std@@@2@@2@U?$less@K@2@V?$allocator@V?$map@KUPLAYERINFO@CChannelMgr@@U?$less@K@std@@V?$allocator@UPLAYERINFO@CChannelMgr@@@4@@std@@@2@@std@@IAEPAU_Node@12@PAU312@W4_Redbl@12@@Z 0040ba20 f i ChannelMgr.obj
 0001:0000aa40       ?_Copy@?$_Tree@KU?$pair@$$CBKUPLAYERINFO@CChannelMgr@@@std@@U_Kfn@?$map@KUPLAYERINFO@CChannelMgr@@U?$less@K@std@@V?$allocator@UPLAYERINFO@CChannelMgr@@@4@@2@U?$less@K@2@V?$allocator@UPLAYERINFO@CChannelMgr@@@2@@std@@IAEPAU_Node@12@PAU312@0@Z 0040ba40 f i ChannelMgr.obj
 0001:0000ab20       ?_Ubound@?$_Tree@KU?$pair@$$CBKUPLAYERINFO@CChannelMgr@@@std@@U_Kfn@?$map@KUPLAYERINFO@CChannelMgr@@U?$less@K@std@@V?$allocator@UPLAYERINFO@CChannelMgr@@@4@@2@U?$less@K@2@V?$allocator@UPLAYERINFO@CChannelMgr@@@2@@std@@IBEPAU_Node@12@ABK@Z 0040bb20 f i ChannelMgr.obj
 0001:0000ab70       ?_Buynode@?$_Tree@KU?$pair@$$CBKUPLAYERINFO@CChannelMgr@@@std@@U_Kfn@?$map@KUPLAYERINFO@CChannelMgr@@U?$less@K@std@@V?$allocator@UPLAYERINFO@CChannelMgr@@@4@@2@U?$less@K@2@V?$allocator@UPLAYERINFO@CChannelMgr@@@2@@std@@IAEPAU_Node@12@PAU312@W4_Redbl@12@@Z 0040bb70 f i ChannelMgr.obj
 0001:0000ab90       ?_Dec@const_iterator@?$_Tree@KU?$pair@$$CBKUPLAYERINFO@CChannelMgr@@@std@@U_Kfn@?$map@KUPLAYERINFO@CChannelMgr@@U?$less@K@std@@V?$allocator@UPLAYERINFO@CChannelMgr@@@4@@2@U?$less@K@2@V?$allocator@UPLAYERINFO@CChannelMgr@@@2@@std@@QAEXXZ 0040bb90 f i ChannelMgr.obj
 0001:0000ac50       ?_Dec@const_iterator@?$_Tree@KU?$pair@$$CBKV?$map@KUPLAYERINFO@CChannelMgr@@U?$less@K@std@@V?$allocator@UPLAYERINFO@CChannelMgr@@@4@@std@@@std@@U_Kfn@?$map@KV?$map@KUPLAYERINFO@CChannelMgr@@U?$less@K@std@@V?$allocator@UPLAYERINFO@CChannelMgr@@@4@@std@@U?$less@K@2@V?$allocator@V?$map@KUPLAYERINFO@CChannelMgr@@U?$less@K@std@@V?$allocator@UPLAYERINFO@CChannelMgr@@@4@@std@@@2@@2@U?$less@K@2@V?$allocator@V?$map@KUPLAYERINFO@CChannelMgr@@U?$less@K@std@@V?$allocator@UPLAYERINFO@CChannelMgr@@@4@@std@@@2@@std@@QAEXXZ 0040bc50 f i ChannelMgr.obj
 0001:0000ad10       ?_Dec@const_iterator@?$_Tree@KU?$pair@$$CBKUCHANNINFO@CChannelMgr@@@std@@U_Kfn@?$map@KUCHANNINFO@CChannelMgr@@U?$less@K@std@@V?$allocator@UCHANNINFO@CChannelMgr@@@4@@2@U?$less@K@2@V?$allocator@UCHANNINFO@CChannelMgr@@@2@@std@@QAEXXZ 0040bd10 f i ChannelMgr.obj
 0001:0000add0       ?_Ubound@?$_Tree@V?$basic_string@DU?$char_traits@D@std@@V?$allocator@D@2@@std@@U?$pair@$$CBV?$basic_string@DU?$char_traits@D@std@@V?$allocator@D@2@@std@@K@2@U_Kfn@?$map@V?$basic_string@DU?$char_traits@D@std@@V?$allocator@D@2@@std@@KU_tstring_less@@V?$allocator@K@2@@2@U_tstring_less@@V?$allocator@K@2@@std@@IBEPAU_Node@12@ABV?$basic_string@DU?$char_traits@D@std@@V?$allocator@D@2@@2@@Z 0040bdd0 f i ChannelMgr.obj
 0001:0000ae50       ?_Dec@const_iterator@?$_Tree@V?$basic_string@DU?$char_traits@D@std@@V?$allocator@D@2@@std@@U?$pair@$$CBV?$basic_string@DU?$char_traits@D@std@@V?$allocator@D@2@@std@@K@2@U_Kfn@?$map@V?$basic_string@DU?$char_traits@D@std@@V?$allocator@D@2@@std@@KU_tstring_less@@V?$allocator@K@2@@2@U_tstring_less@@V?$allocator@K@2@@std@@QAEXXZ 0040be50 f i ChannelMgr.obj
 0001:0000af10       ?_Inc@const_iterator@?$_Tree@V?$basic_string@DU?$char_traits@D@std@@V?$allocator@D@2@@std@@U?$pair@$$CBV?$basic_string@DU?$char_traits@D@std@@V?$allocator@D@2@@std@@K@2@U_Kfn@?$map@V?$basic_string@DU?$char_traits@D@std@@V?$allocator@D@2@@std@@KU_tstring_less@@V?$allocator@K@2@@2@U_tstring_less@@V?$allocator@K@2@@std@@QAEXXZ 0040bf10 f i ChannelMgr.obj
 0001:0000afc0       ?_Distance@std@@YAXViterator@?$_Tree@KU?$pair@$$CBKUPLAYERINFO@CChannelMgr@@@std@@U_Kfn@?$map@KUPLAYERINFO@CChannelMgr@@U?$less@K@std@@V?$allocator@UPLAYERINFO@CChannelMgr@@@4@@2@U?$less@K@2@V?$allocator@UPLAYERINFO@CChannelMgr@@@2@@1@0AAI@Z 0040bfc0 f i ChannelMgr.obj
 0001:0000aff0       ?_Construct@std@@YAXPAU?$pair@$$CBKV?$map@KUPLAYERINFO@CChannelMgr@@U?$less@K@std@@V?$allocator@UPLAYERINFO@CChannelMgr@@@4@@std@@@1@ABU21@@Z 0040bff0 f i ChannelMgr.obj
 0001:0000b200       ?_Construct@std@@YAXPAU?$pair@$$CBKUPLAYERINFO@CChannelMgr@@@1@ABU21@@Z 0040c200 f i ChannelMgr.obj
 0001:0000b220       ?_Construct@std@@YAXPAU?$pair@$$CBKUCHANNINFO@CChannelMgr@@@1@ABU21@@Z 0040c220 f i ChannelMgr.obj
 0001:0000b360       ?_Construct@std@@YAXPAU?$pair@$$CBV?$basic_string@DU?$char_traits@D@std@@V?$allocator@D@2@@std@@K@1@ABU21@@Z 0040c360 f i ChannelMgr.obj
 0001:0000b4b0       ?_Distance@std@@YAXViterator@?$_Tree@KU?$pair@$$CBKUPLAYERINFO@CChannelMgr@@@std@@U_Kfn@?$map@KUPLAYERINFO@CChannelMgr@@U?$less@K@std@@V?$allocator@UPLAYERINFO@CChannelMgr@@@4@@2@U?$less@K@2@V?$allocator@UPLAYERINFO@CChannelMgr@@@2@@1@0AAIUbidirectional_iterator_tag@1@@Z 0040c4b0 f i ChannelMgr.obj
 0001:0000b510       ?id@?$ctype@G@std@@$E      0040c510 f i ChannelMgr.obj
 0001:0000b520       ??0CChatConnect@@QAE@PAVCChatServer@@K@Z 0040c520 f   ChatConnect.obj
 0001:0000b550       ?BeginRoute@CNetConnect@@MAEXXZ 0040c550 f i ChatConnect.obj
 0001:0000b560       ?EndRoute@CNetConnect@@MAEXXZ 0040c560 f i ChatConnect.obj
 0001:0000b570       ??_ECChatConnect@@UAEPAXI@Z 0040c570 f i ChatConnect.obj
 0001:0000b570       ??_GCChatConnect@@UAEPAXI@Z 0040c570 f i ChatConnect.obj
 0001:0000b590       ??1CChatConnect@@UAE@XZ    0040c590 f   ChatConnect.obj
 0001:0000b5b0       ?OnClientConnectCreate@CChatConnect@@MAEXXZ 0040c5b0 f   ChatConnect.obj
 0001:0000b5d0       ?OnClientConnectClose@CChatConnect@@MAEXXZ 0040c5d0 f   ChatConnect.obj
 0001:0000b5f0       ?RecvPackage@CChatConnect@@MAEXPBXI@Z 0040c5f0 f   ChatConnect.obj
 0001:0000b630       ?Proc0_SomeoneChat@CChatConnect@@AAEXPBXI@Z 0040c630 f   ChatConnect.obj
 0001:0000b650       ?Proc0_ChannelChat@CChatConnect@@AAEXPBXI@Z 0040c650 f   ChatConnect.obj
 0001:0000b670       ?Proc0_GroupMan@CChatConnect@@AAEXPBXI@Z 0040c670 f   ChatConnect.obj
 0001:0000b7b0       ??0CChatServer@@QAE@XZ     0040c7b0 f   ChatServer.obj
 0001:0000b890       ??_GCChatServer@@UAEPAXI@Z 0040c890 f i ChatServer.obj
 0001:0000b890       ??_ECChatServer@@UAEPAXI@Z 0040c890 f i ChatServer.obj
 0001:0000b8b0       ??1?$map@KPAVCChatConnect@@U?$less@K@std@@V?$allocator@PAVCChatConnect@@@3@@std@@QAE@XZ 0040c8b0 f i ChatServer.obj
 0001:0000b920       ??1CChatServer@@UAE@XZ     0040c920 f   ChatServer.obj
 0001:0000b9e0       ?CreateConnect@CChatServer@@MAEPAVCNetConnect@@PAVCNetServer@@K@Z 0040c9e0 f   ChatServer.obj
 0001:0000ba50       ?DestroyConnect@CChatServer@@MAEXPAVCNetConnect@@@Z 0040ca50 f   ChatServer.obj
 0001:0000ba70       ?OnBuildup@CChatServer@@MAEXXZ 0040ca70 f   ChatServer.obj
 0001:0000bad0       ?OnClearup@CChatServer@@MAEXXZ 0040cad0 f   ChatServer.obj
 0001:0000bb50       ?OnClientConnectCreate@CChatServer@@MAEXPAVCNetConnect@@@Z 0040cb50 f   ChatServer.obj
 0001:0000bbe0       ??1KAutoLockWrite@@QAE@XZ  0040cbe0 f i ChatServer.obj
 0001:0000bbf0       ?OnClientConnectClose@CChatServer@@MAEXPAVCNetConnect@@@Z 0040cbf0 f   ChatServer.obj
 0001:0000bca0       ?FindChatConnectByIP@CChatServer@@QAE?AVCNetConnectDup@@K@Z 0040cca0 f   ChatServer.obj
 0001:0000bd80       ??1KAutoLockRead@@QAE@XZ   0040cd80 f i ChatServer.obj
 0001:0000bd90       ?TraceInfo@CChatServer@@QAEHXZ 0040cd90 f   ChatServer.obj
 0001:0000bfe0       ?erase@?$_Tree@KU?$pair@$$CBKPAVCChatConnect@@@std@@U_Kfn@?$map@KPAVCChatConnect@@U?$less@K@std@@V?$allocator@PAVCChatConnect@@@3@@2@U?$less@K@2@V?$allocator@PAVCChatConnect@@@2@@std@@QAE?AViterator@12@V312@0@Z 0040cfe0 f i ChatServer.obj
 0001:0000c110       ?find@?$_Tree@KU?$pair@$$CBKPAVCChatConnect@@@std@@U_Kfn@?$map@KPAVCChatConnect@@U?$less@K@std@@V?$allocator@PAVCChatConnect@@@3@@2@U?$less@K@2@V?$allocator@PAVCChatConnect@@@2@@std@@QAE?AViterator@12@ABK@Z 0040d110 f i ChatServer.obj
 0001:0000c160       ?insert@?$_Tree@KU?$pair@$$CBKPAVCChatConnect@@@std@@U_Kfn@?$map@KPAVCChatConnect@@U?$less@K@std@@V?$allocator@PAVCChatConnect@@@3@@2@U?$less@K@2@V?$allocator@PAVCChatConnect@@@2@@std@@QAE?AU?$pair@Viterator@?$_Tree@KU?$pair@$$CBKPAVCChatConnect@@@std@@U_Kfn@?$map@KPAVCChatConnect@@U?$less@K@std@@V?$allocator@PAVCChatConnect@@@3@@2@U?$less@K@2@V?$allocator@PAVCChatConnect@@@2@@std@@_N@2@ABU?$pair@$$CBKPAVCChatConnect@@@2@@Z 0040d160 f i ChatServer.obj
 0001:0000c290       ?erase@?$_Tree@KU?$pair@$$CBKPAVCChatConnect@@@std@@U_Kfn@?$map@KPAVCChatConnect@@U?$less@K@std@@V?$allocator@PAVCChatConnect@@@3@@2@U?$less@K@2@V?$allocator@PAVCChatConnect@@@2@@std@@QAE?AViterator@12@V312@@Z 0040d290 f i ChatServer.obj
 0001:0000c7b0       ?_Erase@?$_Tree@KU?$pair@$$CBKPAVCChatConnect@@@std@@U_Kfn@?$map@KPAVCChatConnect@@U?$less@K@std@@V?$allocator@PAVCChatConnect@@@3@@2@U?$less@K@2@V?$allocator@PAVCChatConnect@@@2@@std@@IAEXPAU_Node@12@@Z 0040d7b0 f i ChatServer.obj
 0001:0000c840       ?_Inc@const_iterator@?$_Tree@KU?$pair@$$CBKPAVCChatConnect@@@std@@U_Kfn@?$map@KPAVCChatConnect@@U?$less@K@std@@V?$allocator@PAVCChatConnect@@@3@@2@U?$less@K@2@V?$allocator@PAVCChatConnect@@@2@@std@@QAEXXZ 0040d840 f i ChatServer.obj
 0001:0000c8f0       ?_Insert@?$_Tree@KU?$pair@$$CBKPAVCChatConnect@@@std@@U_Kfn@?$map@KPAVCChatConnect@@U?$less@K@std@@V?$allocator@PAVCChatConnect@@@3@@2@U?$less@K@2@V?$allocator@PAVCChatConnect@@@2@@std@@IAE?AViterator@12@PAU_Node@12@0ABU?$pair@$$CBKPAVCChatConnect@@@2@@Z 0040d8f0 f i ChatServer.obj
 0001:0000cbf0       ?_Lbound@?$_Tree@KU?$pair@$$CBKPAVCChatConnect@@@std@@U_Kfn@?$map@KPAVCChatConnect@@U?$less@K@std@@V?$allocator@PAVCChatConnect@@@3@@2@U?$less@K@2@V?$allocator@PAVCChatConnect@@@2@@std@@IBEPAU_Node@12@ABK@Z 0040dbf0 f i ChatServer.obj
 0001:0000cc40       ?_Ubound@?$_Tree@KU?$pair@$$CBKPAVCChatConnect@@@std@@U_Kfn@?$map@KPAVCChatConnect@@U?$less@K@std@@V?$allocator@PAVCChatConnect@@@3@@2@U?$less@K@2@V?$allocator@PAVCChatConnect@@@2@@std@@IBEPAU_Node@12@ABK@Z 0040dc40 f i ChatServer.obj
 0001:0000cc90       ?_Dec@const_iterator@?$_Tree@KU?$pair@$$CBKPAVCChatConnect@@@std@@U_Kfn@?$map@KPAVCChatConnect@@U?$less@K@std@@V?$allocator@PAVCChatConnect@@@3@@2@U?$less@K@2@V?$allocator@PAVCChatConnect@@@2@@std@@QAEXXZ 0040dc90 f i ChatServer.obj
 0001:0000cd50       ?_Construct@std@@YAXPAU?$pair@$$CBKPAVCChatConnect@@@1@ABU21@@Z 0040dd50 f i ChatServer.obj
 0001:0000cda0       ??0CDBCenter@@QAE@XZ       0040dda0 f   DBConnect.obj
 0001:0000cdc0       ?OnBuildup@CNetCenter@@MAEXXZ 0040ddc0 f i DBConnect.obj
 0001:0000cdd0       ?OnClearup@CNetCenter@@MAEXXZ 0040ddd0 f i DBConnect.obj
 0001:0000cde0       ?OnServerEventCreate@CNetCenter@@MAEXPAVCNetClient@@@Z 0040dde0 f i DBConnect.obj
 0001:0000cdf0       ?OnServerEventClose@CNetCenter@@MAEXPAVCNetClient@@@Z 0040ddf0 f i DBConnect.obj
 0001:0000ce00       ??_ECDBCenter@@UAEPAXI@Z   0040de00 f i DBConnect.obj
 0001:0000ce00       ??_GCDBCenter@@UAEPAXI@Z   0040de00 f i DBConnect.obj
 0001:0000ce20       ??1CDBCenter@@UAE@XZ       0040de20 f   DBConnect.obj
 0001:0000ce30       ?TraceInfo@CDBCenter@@QAEHXZ 0040de30 f   DBConnect.obj
 0001:0000d030       ??0CDBClient@@QAE@PAVCDBCenter@@H@Z 0040e030 f   DBConnect.obj
 0001:0000d050       ?OnStartupFail@CNetClient@@MAEXXZ 0040e050 f i DBConnect.obj
 0001:0000d060       ?OnShutdownFail@CNetClient@@MAEXXZ 0040e060 f i DBConnect.obj
 0001:0000d070       ?BeginRoute@CNetClient@@MAEXXZ 0040e070 f i DBConnect.obj
 0001:0000d080       ?EndRoute@CNetClient@@MAEXXZ 0040e080 f i DBConnect.obj
 0001:0000d090       ?DeleteThis@CNetClient@@MAEXXZ 0040e090 f i DBConnect.obj
 0001:0000d0a0       ??_GCDBClient@@UAEPAXI@Z   0040e0a0 f i DBConnect.obj
 0001:0000d0a0       ??_ECDBClient@@UAEPAXI@Z   0040e0a0 f i DBConnect.obj
 0001:0000d0c0       ??1CDBClient@@UAE@XZ       0040e0c0 f   DBConnect.obj
 0001:0000d0d0       ?OnServerEventCreate@CDBClient@@MAEXXZ 0040e0d0 f   DBConnect.obj
 0001:0000d100       ?OnServerEventClose@CDBClient@@MAEXXZ 0040e100 f   DBConnect.obj
 0001:0000d120       ?RecvPackage@CDBClient@@MAEXPBXI@Z 0040e120 f   DBConnect.obj
 0001:0000d240       ??0CDBDump@@QAE@XZ         0040e240 f   DBDumpLoad.obj
 0001:0000d270       ??_GCDBDump@@UAEPAXI@Z     0040e270 f i DBDumpLoad.obj
 0001:0000d270       ??_ECDBDump@@UAEPAXI@Z     0040e270 f i DBDumpLoad.obj
 0001:0000d290       ?Open@CDBDump@@QAE_NPAD@Z  0040e290 f   DBDumpLoad.obj
 0001:0000d340       ?Close@CDBDump@@QAE_NXZ    0040e340 f   DBDumpLoad.obj
 0001:0000d390       ?AddData@CDBDump@@QAE_NPADI0I@Z 0040e390 f   DBDumpLoad.obj
 0001:0000d4a0       ??0CDBLoad@@QAE@XZ         0040e4a0 f   DBDumpLoad.obj
 0001:0000d4d0       ??_ECDBLoad@@UAEPAXI@Z     0040e4d0 f i DBDumpLoad.obj
 0001:0000d4d0       ??_GCDBLoad@@UAEPAXI@Z     0040e4d0 f i DBDumpLoad.obj
 0001:0000d4f0       ?Open@CDBLoad@@QAE_NPAD@Z  0040e4f0 f   DBDumpLoad.obj
 0001:0000d5a0       ?Close@CDBLoad@@QAE_NXZ    0040e5a0 f   DBDumpLoad.obj
 0001:0000d5f0       ?ReadData@CDBLoad@@QAE_NPADAAI01@Z 0040e5f0 f   DBDumpLoad.obj
 0001:0000d6a0       ?GotoHead@CDBLoad@@QAEXXZ  0040e6a0 f   DBDumpLoad.obj
 0001:0000d6d0       ?SearchData@CDBLoad@@QAE_NPAD0AAI@Z 0040e6d0 f   DBDumpLoad.obj
 0001:0000d800       ??0ZDBTable@@QAE@PBD0@Z    0040e800 f   DBTable.obj
 0001:0000d910       ??_EZDBTable@@UAEPAXI@Z    0040e910 f i DBTable.obj
 0001:0000d910       ??_GZDBTable@@UAEPAXI@Z    0040e910 f i DBTable.obj
 0001:0000d930       ??1ZDBTable@@UAE@XZ        0040e930 f   DBTable.obj
 0001:0000d950       ?addIndex@ZDBTable@@QAEHP6AHPAU__db@@PBU__db_dbt@@1PAU3@@Z_N@Z 0040e950 f   DBTable.obj
 0001:0000d9a0       ?open@ZDBTable@@QAE_NXZ    0040e9a0 f   DBTable.obj
 0001:0000db20       ?close@ZDBTable@@QAEXXZ    0040eb20 f   DBTable.obj
 0001:0000db70       ?commit@ZDBTable@@QAE_NXZ  0040eb70 f   DBTable.obj
 0001:0000db80       ?add@ZDBTable@@QAE_NPBDH0H@Z 0040eb80 f   DBTable.obj
 0001:0000dbf0       ?remove@ZDBTable@@QAE_NPBDHH@Z 0040ebf0 f   DBTable.obj
 0001:0000dc40       ?_search@ZDBTable@@IAEPAD_NPBDHAAHH@Z 0040ec40 f   DBTable.obj
 0001:0000de10       ?_next@ZDBTable@@IAEPAD_NAAH@Z 0040ee10 f   DBTable.obj
 0001:0000df20       ?GetRecord@ZDBTable@@QAEPADAAHW4CursorPointer@1@H@Z 0040ef20 f   DBTable.obj
 0001:0000dff0       ?GetRecord_key@ZDBTable@@QAEPADAAHW4CursorPointer@1@H@Z 0040eff0 f   DBTable.obj
 0001:0000e0c0       ?GetRecordEx@ZDBTable@@QAE_NPADAAH01W4CursorPointer@1@H@Z 0040f0c0 f   DBTable.obj
 0001:0000e1a0       ??0CDBTableReadOnly@@QAE@PBD0@Z 0040f1a0 f   DBTable.obj
 0001:0000e2a0       ??_ECDBTableReadOnly@@UAEPAXI@Z 0040f2a0 f i DBTable.obj
 0001:0000e2a0       ??_GCDBTableReadOnly@@UAEPAXI@Z 0040f2a0 f i DBTable.obj
 0001:0000e2c0       ??1CDBTableReadOnly@@UAE@XZ 0040f2c0 f   DBTable.obj
 0001:0000e2e0       ?open@CDBTableReadOnly@@QAE_NXZ 0040f2e0 f   DBTable.obj
 0001:0000e330       ?close@CDBTableReadOnly@@QAEXXZ 0040f330 f   DBTable.obj
 0001:0000e350       ?_search@CDBTableReadOnly@@IAEPAD_NPBDHAAH@Z 0040f350 f   DBTable.obj
 0001:0000e420       ?_next@CDBTableReadOnly@@IAEPAD_NAAH@Z 0040f420 f   DBTable.obj
 0001:0000e540       ?GetRecord@CDBTableReadOnly@@QAEPADAAHW4CursorPointer@1@@Z 0040f540 f   DBTable.obj
 0001:0000e600       ?GetRecord_key@CDBTableReadOnly@@QAEPADAAHW4CursorPointer@1@@Z 0040f600 f   DBTable.obj
 0001:0000e6c0       ?GetRecordEx@CDBTableReadOnly@@QAE_NPADAAH01W4CursorPointer@1@@Z 0040f6c0 f   DBTable.obj
 0001:0000e7c0       ?_Proc2_Relay_AskWay_AccountRoleID@dealrelay@@YAXABVCNetSockDupEx@@PBXI@Z 0040f7c0 f   DealRelay.obj
 0001:0000e980       ?_Proc1_Relay_Data@dealrelay@@YAXABVCNetSockDupEx@@PBXI@Z 0040f980 f   DealRelay.obj
 0001:0000ea80       ?_Proc1_Relay_AskWay@dealrelay@@YAXABVCNetSockDupEx@@PBXI@Z 0040fa80 f   DealRelay.obj
 0001:0000eaa0       ?_Proc1_Relay_LoseWay@dealrelay@@YAXABVCNetSockDupEx@@PBXI@Z 0040faa0 f   DealRelay.obj
 0001:0000eb80       ?_Proc0_Relay@dealrelay@@YAXABVCNetSockDupEx@@PBXI@Z 0040fb80 f   DealRelay.obj
 0001:0000ebd0       ?_RecvPackage@dealrelay@@YAXABVCNetSockDupEx@@PBXI@Z 0040fbd0 f   DealRelay.obj
 0001:0000ebf0       ?DoRecvPackage@dealrelay@@YAXPAVCRelayConnect@@PBXI@Z 0040fbf0 f   DealRelay.obj
 0001:0000ec80       ?DoRecvPackage@dealrelay@@YAXPAVCRelayClient@@PBXI@Z 0040fc80 f   DealRelay.obj
 0001:0000ed10       ??1CNetClientDup@@UAE@XZ   0040fd10 f i DealRelay.obj
 0001:0000ed30       ??_ECNetClientDup@@UAEPAXI@Z 0040fd30 f i DealRelay.obj
 0001:0000ed30       ??_GCNetClientDup@@UAEPAXI@Z 0040fd30 f i DealRelay.obj
 0001:0000ed70       ?FindRelaySockByIP@dealrelay@@YA?AVCNetSockDupEx@@K@Z 0040fd70 f   DealRelay.obj
 0001:0000eed0       ?BroadPackage@dealrelay@@YAHPBXI@Z 0040fed0 f   DealRelay.obj
 0001:0000ef30       ?BroadGlobal@@YAXPBXIKK@Z  0040ff30 f   DoScript.obj
 0001:0000efc0       ?BroadGame@@YAXKPBXIKK@Z   0040ffc0 f   DoScript.obj
 0001:0000f0b0       ?RootSend@@YAXKKPBXI@Z     004100b0 f   DoScript.obj
 0001:0000f180       ?LuaGlobalExecute@@YAHPAUlua_State@@@Z 00410180 f   DoScript.obj
 0001:0000f260       ?LuaGameExecute@@YAHPAUlua_State@@@Z 00410260 f   DoScript.obj
 0001:0000f350       ?LuaMsg2IP@@YAHPAUlua_State@@@Z 00410350 f   DoScript.obj
 0001:0000f4b0       ?LuaGetIP@@YAHPAUlua_State@@@Z 004104b0 f   DoScript.obj
 0001:0000f560       ?g_GetGameScriptFunNum@@YAHXZ 00410560 f   DoScript.obj
 0001:0000f570       ?InitScript@@YAHXZ         00410570 f   DoScript.obj
 0001:0000f5b0       ?ExcuteScript@@YAHKKPBD@Z  004105b0 f   DoScript.obj
 0001:0000f600       ?UninitScript@@YAHXZ       00410600 f   DoScript.obj
 0001:0000f780       ??0CFriendMgr@@QAE@XZ      00410780 f   FriendMgr.obj
 0001:0000f890       ??_GCFriendMgr@@UAEPAXI@Z  00410890 f i FriendMgr.obj
 0001:0000f890       ??_ECFriendMgr@@UAEPAXI@Z  00410890 f i FriendMgr.obj
 0001:0000f8b0       ??1?$map@V?$basic_string@DU?$char_traits@D@std@@V?$allocator@D@2@@std@@UPLAYERINFO@CFriendMgr@@U_tstring_less@@V?$allocator@UPLAYERINFO@CFriendMgr@@@2@@std@@QAE@XZ 004108b0 f i FriendMgr.obj
 0001:0000f920       ??1?$map@UADDFRIENDKEY@CFriendMgr@@UADDFRIENDVALUE@2@U?$less@UADDFRIENDKEY@CFriendMgr@@@std@@V?$allocator@UADDFRIENDVALUE@CFriendMgr@@@5@@std@@QAE@XZ 00410920 f i FriendMgr.obj
 0001:0000f990       ??1CFriendMgr@@UAE@XZ      00410990 f   FriendMgr.obj
 0001:0000fae0       ?Initialize@CFriendMgr@@QAEHXZ 00410ae0 f   FriendMgr.obj
 0001:0000fc30       ?Uninitialize@CFriendMgr@@QAEHXZ 00410c30 f   FriendMgr.obj
 0001:0000fda0       ?SomeoneLogin@CFriendMgr@@QAEHABV?$basic_string@DU?$char_traits@D@std@@V?$allocator@D@2@@std@@@Z 00410da0 f   FriendMgr.obj
 0001:00010290       ??1?$map@KV?$list@UtagPlusSrcInfo@@V?$allocator@UtagPlusSrcInfo@@@std@@@std@@U?$less@K@2@V?$allocator@V?$list@UtagPlusSrcInfo@@V?$allocator@UtagPlusSrcInfo@@@std@@@std@@@2@@std@@QAE@XZ 00411290 f i FriendMgr.obj
 0001:00010300       ?SomeoneLogout@CFriendMgr@@QAEHABV?$basic_string@DU?$char_traits@D@std@@V?$allocator@D@2@@std@@@Z 00411300 f   FriendMgr.obj
 0001:00010560       ?SomeoneSyncFriends@CFriendMgr@@QAEHABV?$basic_string@DU?$char_traits@D@std@@V?$allocator@D@2@@std@@KKABVCNetConnectDup@@HE@Z 00411560 f   FriendMgr.obj
 0001:00010b20       ??1?$map@V?$basic_string@DU?$char_traits@D@std@@V?$allocator@D@2@@std@@V?$list@U?$pair@EV?$basic_string@DU?$char_traits@D@std@@V?$allocator@D@2@@std@@@std@@V?$allocator@U?$pair@EV?$basic_string@DU?$char_traits@D@std@@V?$allocator@D@2@@std@@@std@@@2@@2@U_tstring_less@@V?$allocator@V?$list@U?$pair@EV?$basic_string@DU?$char_traits@D@std@@V?$allocator@D@2@@std@@@std@@V?$allocator@U?$pair@EV?$basic_string@DU?$char_traits@D@std@@V?$allocator@D@2@@std@@@std@@@2@@std@@@2@@std@@QAE@XZ 00411b20 f i FriendMgr.obj
 0001:00010b90       ??1?$pair@EV?$basic_string@DU?$char_traits@D@std@@V?$allocator@D@2@@std@@@std@@QAE@XZ 00411b90 f i FriendMgr.obj
 0001:00010bd0       ?PlayerAddFriend@CFriendMgr@@QAEHABV?$basic_string@DU?$char_traits@D@std@@V?$allocator@D@2@@std@@0@Z 00411bd0 f   FriendMgr.obj
 0001:00010ed0       ??0FRIENDINFO@CFriendMgr@@QAE@XZ 00411ed0 f i FriendMgr.obj
 0001:00010f00       ?PlayerDelFriend@CFriendMgr@@QAEHABV?$basic_string@DU?$char_traits@D@std@@V?$allocator@D@2@@std@@0@Z 00411f00 f   FriendMgr.obj
 0001:000110c0       ?PlayerIsFriend@CFriendMgr@@QAEHABV?$basic_string@DU?$char_traits@D@std@@V?$allocator@D@2@@std@@0H@Z 004120c0 f   FriendMgr.obj
 0001:000111f0       ?SetFriendGroup@CFriendMgr@@QAEHABV?$basic_string@DU?$char_traits@D@std@@V?$allocator@D@2@@std@@00@Z 004121f0 f   FriendMgr.obj
 0001:00011330       ?GetFriendGroup@CFriendMgr@@QAE?AV?$basic_string@DU?$char_traits@D@std@@V?$allocator@D@2@@std@@ABV23@0@Z 00412330 f   FriendMgr.obj
 0001:000115b0       ?TrackAddFriend@CFriendMgr@@QAEHABV?$basic_string@DU?$char_traits@D@std@@V?$allocator@D@2@@std@@0E@Z 004125b0 f   FriendMgr.obj
 0001:00011720       ??1ADDFRIENDKEY@CFriendMgr@@QAE@XZ 00412720 f i FriendMgr.obj
 0001:00011760       ?ExtractAddFriend@CFriendMgr@@QAEHABV?$basic_string@DU?$char_traits@D@std@@V?$allocator@D@2@@std@@0E@Z 00412760 f   FriendMgr.obj
 0001:00011890       ?TidyAddFriend@CFriendMgr@@QAEHXZ 00412890 f   FriendMgr.obj
 0001:000118a0       ?_LoadSomeone@CFriendMgr@@AAE?AViterator@?$_Tree@V?$basic_string@DU?$char_traits@D@std@@V?$allocator@D@2@@std@@U?$pair@$$CBV?$basic_string@DU?$char_traits@D@std@@V?$allocator@D@2@@std@@UPLAYERINFO@CFriendMgr@@@2@U_Kfn@?$map@V?$basic_string@DU?$char_traits@D@std@@V?$allocator@D@2@@std@@UPLAYERINFO@CFriendMgr@@U_tstring_less@@V?$allocator@UPLAYERINFO@CFriendMgr@@@2@@2@U_tstring_less@@V?$allocator@UPLAYERINFO@CFriendMgr@@@2@@std@@ABV?$basic_string@DU?$char_traits@D@std@@V?$allocator@D@2@@4@@Z 004128a0 f   FriendMgr.obj
 0001:00011da0       ??0PLAYERINFO@CFriendMgr@@QAE@XZ 00412da0 f i FriendMgr.obj
 0001:00011e70       ??1PLAYERINFO@CFriendMgr@@QAE@XZ 00412e70 f i FriendMgr.obj
 0001:00011ee0       ??1?$pair@$$CBV?$basic_string@DU?$char_traits@D@std@@V?$allocator@D@2@@std@@UPLAYERINFO@CFriendMgr@@@std@@QAE@XZ 00412ee0 f i FriendMgr.obj
 0001:00011fb0       ??1FRIENDINFO@CFriendMgr@@QAE@XZ 00412fb0 f i FriendMgr.obj
 0001:00011ff0       ??1?$pair@$$CBV?$basic_string@DU?$char_traits@D@std@@V?$allocator@D@2@@std@@UFRIENDINFO@CFriendMgr@@@std@@QAE@XZ 00412ff0 f i FriendMgr.obj
 0001:00012060       ?_StoreSomeone@CFriendMgr@@AAEHViterator@?$_Tree@V?$basic_string@DU?$char_traits@D@std@@V?$allocator@D@2@@std@@U?$pair@$$CBV?$basic_string@DU?$char_traits@D@std@@V?$allocator@D@2@@std@@UPLAYERINFO@CFriendMgr@@@2@U_Kfn@?$map@V?$basic_string@DU?$char_traits@D@std@@V?$allocator@D@2@@std@@UPLAYERINFO@CFriendMgr@@U_tstring_less@@V?$allocator@UPLAYERINFO@CFriendMgr@@@2@@2@U_tstring_less@@V?$allocator@UPLAYERINFO@CFriendMgr@@@2@@std@@@Z 00413060 f   FriendMgr.obj
 0001:000123d0       ??1MEM_FRIENDRECORD@CFriendMgr@@QAE@XZ 004133d0 f i FriendMgr.obj
 0001:00012440       ?NameToDBKey@CFriendMgr@@AAE?AV?$basic_string@DU?$char_traits@D@std@@V?$allocator@D@2@@std@@ABV23@@Z 00413440 f   FriendMgr.obj
 0001:00012570       ?DB_AddSomeone@CFriendMgr@@AAEHABV?$basic_string@DU?$char_traits@D@std@@V?$allocator@D@2@@std@@ABV?$list@UMEM_FRIENDRECORD@CFriendMgr@@V?$allocator@UMEM_FRIENDRECORD@CFriendMgr@@@std@@@3@@Z 00413570 f   FriendMgr.obj
 0001:00012590       ?DB_DeleteSomeone@CFriendMgr@@AAEHABV?$basic_string@DU?$char_traits@D@std@@V?$allocator@D@2@@std@@@Z 00413590 f   FriendMgr.obj
 0001:00012650       ?DB_LoadSomeone@CFriendMgr@@AAEHABV?$basic_string@DU?$char_traits@D@std@@V?$allocator@D@2@@std@@PAV?$list@UMEM_FRIENDRECORD@CFriendMgr@@V?$allocator@UMEM_FRIENDRECORD@CFriendMgr@@@std@@@3@@Z 00413650 f   FriendMgr.obj
 0001:00012890       ?DB_StoreSomeone@CFriendMgr@@AAEHABV?$basic_string@DU?$char_traits@D@std@@V?$allocator@D@2@@std@@ABV?$list@UMEM_FRIENDRECORD@CFriendMgr@@V?$allocator@UMEM_FRIENDRECORD@CFriendMgr@@@std@@@3@@Z 00413890 f   FriendMgr.obj
 0001:00012a10       ?BkgrndUpdateDB@CFriendMgr@@QAEHXZ 00413a10 f   FriendMgr.obj
 0001:00013380       ??1ONEPLAYER@CFriendMgr@@QAE@XZ 00414380 f i FriendMgr.obj
 0001:00013420       ?GetPlayerCount@CFriendMgr@@QAEIXZ 00414420 f   FriendMgr.obj
 0001:00013440       ?GetAFQSize@CFriendMgr@@QAEIXZ 00414440 f   FriendMgr.obj
 0001:00013460       ?PlayerAssociate@CFriendMgr@@QAEHABV?$basic_string@DU?$char_traits@D@std@@V?$allocator@D@2@@std@@00E@Z 00414460 f   FriendMgr.obj
 0001:00013770       ?PlayerAssociateBevy@CFriendMgr@@QAEHABV?$vector@V?$basic_string@DU?$char_traits@D@std@@V?$allocator@D@2@@std@@V?$allocator@V?$basic_string@DU?$char_traits@D@std@@V?$allocator@D@2@@std@@@2@@std@@ABV?$basic_string@DU?$char_traits@D@std@@V?$allocator@D@2@@3@@Z 00414770 f   FriendMgr.obj
 0001:00013c70       ??0?$map@V?$basic_string@DU?$char_traits@D@std@@V?$allocator@D@2@@std@@UFRIENDINFO@CFriendMgr@@U_tstring_less@@V?$allocator@UFRIENDINFO@CFriendMgr@@@2@@std@@QAE@ABU_tstring_less@@ABV?$allocator@UFRIENDINFO@CFriendMgr@@@1@@Z 00414c70 f i FriendMgr.obj
 0001:00013d40       ?insert@?$map@V?$basic_string@DU?$char_traits@D@std@@V?$allocator@D@2@@std@@UFRIENDINFO@CFriendMgr@@U_tstring_less@@V?$allocator@UFRIENDINFO@CFriendMgr@@@2@@std@@QAE?AU?$pair@Viterator@?$_Tree@V?$basic_string@DU?$char_traits@D@std@@V?$allocator@D@2@@std@@U?$pair@$$CBV?$basic_string@DU?$char_traits@D@std@@V?$allocator@D@2@@std@@UFRIENDINFO@CFriendMgr@@@2@U_Kfn@?$map@V?$basic_string@DU?$char_traits@D@std@@V?$allocator@D@2@@std@@UFRIENDINFO@CFriendMgr@@U_tstring_less@@V?$allocator@UFRIENDINFO@CFriendMgr@@@2@@2@U_tstring_less@@V?$allocator@UFRIENDINFO@CFriendMgr@@@2@@std@@_N@2@ABU?$pair@$$CBV?$basic_string@DU?$char_traits@D@std@@V?$allocator@D@2@@std@@UFRIENDINFO@CFriendMgr@@@2@@Z 00414d40 f i FriendMgr.obj
 0001:00013d70       ??1?$_Tree@V?$basic_string@DU?$char_traits@D@std@@V?$allocator@D@2@@std@@U?$pair@$$CBV?$basic_string@DU?$char_traits@D@std@@V?$allocator@D@2@@std@@UFRIENDINFO@CFriendMgr@@@2@U_Kfn@?$map@V?$basic_string@DU?$char_traits@D@std@@V?$allocator@D@2@@std@@UFRIENDINFO@CFriendMgr@@U_tstring_less@@V?$allocator@UFRIENDINFO@CFriendMgr@@@2@@2@U_tstring_less@@V?$allocator@UFRIENDINFO@CFriendMgr@@@2@@std@@QAE@XZ 00414d70 f i FriendMgr.obj
 0001:00013de0       ??0?$pair@$$CBV?$basic_string@DU?$char_traits@D@std@@V?$allocator@D@2@@std@@UFRIENDINFO@CFriendMgr@@@std@@QAE@ABV?$basic_string@DU?$char_traits@D@std@@V?$allocator@D@2@@1@ABUFRIENDINFO@CFriendMgr@@@Z 00414de0 f i FriendMgr.obj
 0001:00013f20       ?insert@?$map@V?$basic_string@DU?$char_traits@D@std@@V?$allocator@D@2@@std@@UPLAYERINFO@CFriendMgr@@U_tstring_less@@V?$allocator@UPLAYERINFO@CFriendMgr@@@2@@std@@QAE?AU?$pair@Viterator@?$_Tree@V?$basic_string@DU?$char_traits@D@std@@V?$allocator@D@2@@std@@U?$pair@$$CBV?$basic_string@DU?$char_traits@D@std@@V?$allocator@D@2@@std@@UPLAYERINFO@CFriendMgr@@@2@U_Kfn@?$map@V?$basic_string@DU?$char_traits@D@std@@V?$allocator@D@2@@std@@UPLAYERINFO@CFriendMgr@@U_tstring_less@@V?$allocator@UPLAYERINFO@CFriendMgr@@@2@@2@U_tstring_less@@V?$allocator@UPLAYERINFO@CFriendMgr@@@2@@std@@_N@2@ABU?$pair@$$CBV?$basic_string@DU?$char_traits@D@std@@V?$allocator@D@2@@std@@UPLAYERINFO@CFriendMgr@@@2@@Z 00414f20 f i FriendMgr.obj
 0001:00013f50       ??0?$pair@$$CBV?$basic_string@DU?$char_traits@D@std@@V?$allocator@D@2@@std@@UPLAYERINFO@CFriendMgr@@@std@@QAE@ABV?$basic_string@DU?$char_traits@D@std@@V?$allocator@D@2@@1@ABUPLAYERINFO@CFriendMgr@@@Z 00414f50 f i FriendMgr.obj
 0001:000140f0       ??0?$list@UMEM_FRIENDRECORD@CFriendMgr@@V?$allocator@UMEM_FRIENDRECORD@CFriendMgr@@@std@@@std@@QAE@ABV?$allocator@UMEM_FRIENDRECORD@CFriendMgr@@@1@@Z 004150f0 f i FriendMgr.obj
 0001:00014120       ??1?$list@UMEM_FRIENDRECORD@CFriendMgr@@V?$allocator@UMEM_FRIENDRECORD@CFriendMgr@@@std@@@std@@QAE@XZ 00415120 f i FriendMgr.obj
 0001:00014180       ?begin@?$list@UMEM_FRIENDRECORD@CFriendMgr@@V?$allocator@UMEM_FRIENDRECORD@CFriendMgr@@@std@@@std@@QAE?AViterator@12@XZ 00415180 f i FriendMgr.obj
 0001:00014190       ??Eiterator@?$list@UMEM_FRIENDRECORD@CFriendMgr@@V?$allocator@UMEM_FRIENDRECORD@CFriendMgr@@@std@@@std@@QAE?AV012@H@Z 00415190 f i FriendMgr.obj
 0001:000141a0       ??1?$_Tree@KU?$pair@$$CBKV?$list@UtagPlusSrcInfo@@V?$allocator@UtagPlusSrcInfo@@@std@@@std@@@std@@U_Kfn@?$map@KV?$list@UtagPlusSrcInfo@@V?$allocator@UtagPlusSrcInfo@@@std@@@std@@U?$less@K@2@V?$allocator@V?$list@UtagPlusSrcInfo@@V?$allocator@UtagPlusSrcInfo@@@std@@@std@@@2@@2@U?$less@K@2@V?$allocator@V?$list@UtagPlusSrcInfo@@V?$allocator@UtagPlusSrcInfo@@@std@@@std@@@2@@std@@QAE@XZ 004151a0 f i FriendMgr.obj
 0001:00014210       ??1?$_Tree@V?$basic_string@DU?$char_traits@D@std@@V?$allocator@D@2@@std@@U?$pair@$$CBV?$basic_string@DU?$char_traits@D@std@@V?$allocator@D@2@@std@@V?$list@U?$pair@EV?$basic_string@DU?$char_traits@D@std@@V?$allocator@D@2@@std@@@std@@V?$allocator@U?$pair@EV?$basic_string@DU?$char_traits@D@std@@V?$allocator@D@2@@std@@@std@@@2@@2@@2@U_Kfn@?$map@V?$basic_string@DU?$char_traits@D@std@@V?$allocator@D@2@@std@@V?$list@U?$pair@EV?$basic_string@DU?$char_traits@D@std@@V?$allocator@D@2@@std@@@std@@V?$allocator@U?$pair@EV?$basic_string@DU?$char_traits@D@std@@V?$allocator@D@2@@std@@@std@@@2@@2@U_tstring_less@@V?$allocator@V?$list@U?$pair@EV?$basic_string@DU?$char_traits@D@std@@V?$allocator@D@2@@std@@@std@@V?$allocator@U?$pair@EV?$basic_string@DU?$char_traits@D@std@@V?$allocator@D@2@@std@@@std@@@2@@std@@@2@@2@U_tstring_less@@V?$allocator@V?$list@U?$pair@EV?$basic_string@DU?$char_traits@D@std@@V?$allocator@D@2@@std@@@std@@V?$allocator@U?$pair@EV?$basic_string@DU?$char_traits@D@std@@V?$allocator@D@2@@std@@@std@@@2@@std@@@2@@std@@QAE@XZ 00415210 f i FriendMgr.obj
 0001:00014280       ??1?$list@UONEPLAYER@CFriendMgr@@V?$allocator@UONEPLAYER@CFriendMgr@@@std@@@std@@QAE@XZ 00415280 f i FriendMgr.obj
 0001:000142e0       ?begin@?$list@UONEPLAYER@CFriendMgr@@V?$allocator@UONEPLAYER@CFriendMgr@@@std@@@std@@QAE?AViterator@12@XZ 004152e0 f i FriendMgr.obj
 0001:000142f0       ??1?$list@V?$basic_string@DU?$char_traits@D@std@@V?$allocator@D@2@@std@@V?$allocator@V?$basic_string@DU?$char_traits@D@std@@V?$allocator@D@2@@std@@@2@@std@@QAE@XZ 004152f0 f i FriendMgr.obj
 0001:00014350       ?begin@?$list@V?$basic_string@DU?$char_traits@D@std@@V?$allocator@D@2@@std@@V?$allocator@V?$basic_string@DU?$char_traits@D@std@@V?$allocator@D@2@@std@@@2@@std@@QAE?AViterator@12@XZ 00415350 f i FriendMgr.obj
 0001:00014360       ??Eiterator@?$list@V?$basic_string@DU?$char_traits@D@std@@V?$allocator@D@2@@std@@V?$allocator@V?$basic_string@DU?$char_traits@D@std@@V?$allocator@D@2@@std@@@2@@std@@QAE?AV012@H@Z 00415360 f i FriendMgr.obj
 0001:00014370       ??1?$vector@Viterator@?$_Tree@V?$basic_string@DU?$char_traits@D@std@@V?$allocator@D@2@@std@@U?$pair@$$CBV?$basic_string@DU?$char_traits@D@std@@V?$allocator@D@2@@std@@UPLAYERINFO@CFriendMgr@@@2@U_Kfn@?$map@V?$basic_string@DU?$char_traits@D@std@@V?$allocator@D@2@@std@@UPLAYERINFO@CFriendMgr@@U_tstring_less@@V?$allocator@UPLAYERINFO@CFriendMgr@@@2@@2@U_tstring_less@@V?$allocator@UPLAYERINFO@CFriendMgr@@@2@@std@@V?$allocator@Viterator@?$_Tree@V?$basic_string@DU?$char_traits@D@std@@V?$allocator@D@2@@std@@U?$pair@$$CBV?$basic_string@DU?$char_traits@D@std@@V?$allocator@D@2@@std@@UPLAYERINFO@CFriendMgr@@@2@U_Kfn@?$map@V?$basic_string@DU?$char_traits@D@std@@V?$allocator@D@2@@std@@UPLAYERINFO@CFriendMgr@@U_tstring_less@@V?$allocator@UPLAYERINFO@CFriendMgr@@@2@@2@U_tstring_less@@V?$allocator@UPLAYERINFO@CFriendMgr@@@2@@std@@@3@@std@@QAE@XZ 00415370 f i FriendMgr.obj
 0001:000143a0       ??0FRIENDINFO@CFriendMgr@@QAE@ABU01@@Z 004153a0 f i FriendMgr.obj
 0001:000144d0       ??0PLAYERINFO@CFriendMgr@@QAE@ABU01@@Z 004154d0 f i FriendMgr.obj
 0001:000146e0       ??1ADDFRIENDVALUE@CFriendMgr@@QAE@XZ 004156e0 f i FriendMgr.obj
 0001:00014720       ??1?$pair@$$CBUADDFRIENDKEY@CFriendMgr@@UADDFRIENDVALUE@2@@std@@QAE@XZ 00415720 f i FriendMgr.obj
 0001:00014790       ??1?$pair@$$CBKV?$list@UtagPlusSrcInfo@@V?$allocator@UtagPlusSrcInfo@@@std@@@std@@@std@@QAE@XZ 00415790 f i FriendMgr.obj
 0001:000147e0       ??1?$pair@$$CBV?$basic_string@DU?$char_traits@D@std@@V?$allocator@D@2@@std@@V?$list@U?$pair@EV?$basic_string@DU?$char_traits@D@std@@V?$allocator@D@2@@std@@@std@@V?$allocator@U?$pair@EV?$basic_string@DU?$char_traits@D@std@@V?$allocator@D@2@@std@@@std@@@2@@2@@std@@QAE@XZ 004157e0 f i FriendMgr.obj
 0001:00014880       ?begin@?$_Tree@V?$basic_string@DU?$char_traits@D@std@@V?$allocator@D@2@@std@@U?$pair@$$CBV?$basic_string@DU?$char_traits@D@std@@V?$allocator@D@2@@std@@UFRIENDINFO@CFriendMgr@@@2@U_Kfn@?$map@V?$basic_string@DU?$char_traits@D@std@@V?$allocator@D@2@@std@@UFRIENDINFO@CFriendMgr@@U_tstring_less@@V?$allocator@UFRIENDINFO@CFriendMgr@@@2@@2@U_tstring_less@@V?$allocator@UFRIENDINFO@CFriendMgr@@@2@@std@@QAE?AViterator@12@XZ 00415880 f i FriendMgr.obj
 0001:00014890       ?insert@?$_Tree@V?$basic_string@DU?$char_traits@D@std@@V?$allocator@D@2@@std@@U?$pair@$$CBV?$basic_string@DU?$char_traits@D@std@@V?$allocator@D@2@@std@@UFRIENDINFO@CFriendMgr@@@2@U_Kfn@?$map@V?$basic_string@DU?$char_traits@D@std@@V?$allocator@D@2@@std@@UFRIENDINFO@CFriendMgr@@U_tstring_less@@V?$allocator@UFRIENDINFO@CFriendMgr@@@2@@2@U_tstring_less@@V?$allocator@UFRIENDINFO@CFriendMgr@@@2@@std@@QAE?AU?$pair@Viterator@?$_Tree@V?$basic_string@DU?$char_traits@D@std@@V?$allocator@D@2@@std@@U?$pair@$$CBV?$basic_string@DU?$char_traits@D@std@@V?$allocator@D@2@@std@@UFRIENDINFO@CFriendMgr@@@2@U_Kfn@?$map@V?$basic_string@DU?$char_traits@D@std@@V?$allocator@D@2@@std@@UFRIENDINFO@CFriendMgr@@U_tstring_less@@V?$allocator@UFRIENDINFO@CFriendMgr@@@2@@2@U_tstring_less@@V?$allocator@UFRIENDINFO@CFriendMgr@@@2@@std@@_N@2@ABU?$pair@$$CBV?$basic_string@DU?$char_traits@D@std@@V?$allocator@D@2@@std@@UFRIENDINFO@CFriendMgr@@@2@@Z 00415890 f i FriendMgr.obj
 0001:00014a10       ?erase@?$_Tree@V?$basic_string@DU?$char_traits@D@std@@V?$allocator@D@2@@std@@U?$pair@$$CBV?$basic_string@DU?$char_traits@D@std@@V?$allocator@D@2@@std@@UFRIENDINFO@CFriendMgr@@@2@U_Kfn@?$map@V?$basic_string@DU?$char_traits@D@std@@V?$allocator@D@2@@std@@UFRIENDINFO@CFriendMgr@@U_tstring_less@@V?$allocator@UFRIENDINFO@CFriendMgr@@@2@@2@U_tstring_less@@V?$allocator@UFRIENDINFO@CFriendMgr@@@2@@std@@QAE?AViterator@12@V312@@Z 00415a10 f i FriendMgr.obj
 0001:00014f80       ?erase@?$_Tree@V?$basic_string@DU?$char_traits@D@std@@V?$allocator@D@2@@std@@U?$pair@$$CBV?$basic_string@DU?$char_traits@D@std@@V?$allocator@D@2@@std@@UFRIENDINFO@CFriendMgr@@@2@U_Kfn@?$map@V?$basic_string@DU?$char_traits@D@std@@V?$allocator@D@2@@std@@UFRIENDINFO@CFriendMgr@@U_tstring_less@@V?$allocator@UFRIENDINFO@CFriendMgr@@@2@@2@U_tstring_less@@V?$allocator@UFRIENDINFO@CFriendMgr@@@2@@std@@QAE?AViterator@12@V312@0@Z 00415f80 f i FriendMgr.obj
 0001:000150c0       ?find@?$_Tree@V?$basic_string@DU?$char_traits@D@std@@V?$allocator@D@2@@std@@U?$pair@$$CBV?$basic_string@DU?$char_traits@D@std@@V?$allocator@D@2@@std@@UFRIENDINFO@CFriendMgr@@@2@U_Kfn@?$map@V?$basic_string@DU?$char_traits@D@std@@V?$allocator@D@2@@std@@UFRIENDINFO@CFriendMgr@@U_tstring_less@@V?$allocator@UFRIENDINFO@CFriendMgr@@@2@@2@U_tstring_less@@V?$allocator@UFRIENDINFO@CFriendMgr@@@2@@std@@QAE?AViterator@12@ABV?$basic_string@DU?$char_traits@D@std@@V?$allocator@D@2@@2@@Z 004160c0 f i FriendMgr.obj
 0001:00015140       ?begin@?$_Tree@V?$basic_string@DU?$char_traits@D@std@@V?$allocator@D@2@@std@@U?$pair@$$CBV?$basic_string@DU?$char_traits@D@std@@V?$allocator@D@2@@std@@UPLAYERINFO@CFriendMgr@@@2@U_Kfn@?$map@V?$basic_string@DU?$char_traits@D@std@@V?$allocator@D@2@@std@@UPLAYERINFO@CFriendMgr@@U_tstring_less@@V?$allocator@UPLAYERINFO@CFriendMgr@@@2@@2@U_tstring_less@@V?$allocator@UPLAYERINFO@CFriendMgr@@@2@@std@@QAE?AViterator@12@XZ 00416140 f i FriendMgr.obj
 0001:00015150       ?insert@?$_Tree@V?$basic_string@DU?$char_traits@D@std@@V?$allocator@D@2@@std@@U?$pair@$$CBV?$basic_string@DU?$char_traits@D@std@@V?$allocator@D@2@@std@@UPLAYERINFO@CFriendMgr@@@2@U_Kfn@?$map@V?$basic_string@DU?$char_traits@D@std@@V?$allocator@D@2@@std@@UPLAYERINFO@CFriendMgr@@U_tstring_less@@V?$allocator@UPLAYERINFO@CFriendMgr@@@2@@2@U_tstring_less@@V?$allocator@UPLAYERINFO@CFriendMgr@@@2@@std@@QAE?AU?$pair@Viterator@?$_Tree@V?$basic_string@DU?$char_traits@D@std@@V?$allocator@D@2@@std@@U?$pair@$$CBV?$basic_string@DU?$char_traits@D@std@@V?$allocator@D@2@@std@@UPLAYERINFO@CFriendMgr@@@2@U_Kfn@?$map@V?$basic_string@DU?$char_traits@D@std@@V?$allocator@D@2@@std@@UPLAYERINFO@CFriendMgr@@U_tstring_less@@V?$allocator@UPLAYERINFO@CFriendMgr@@@2@@2@U_tstring_less@@V?$allocator@UPLAYERINFO@CFriendMgr@@@2@@std@@_N@2@ABU?$pair@$$CBV?$basic_string@DU?$char_traits@D@std@@V?$allocator@D@2@@std@@UPLAYERINFO@CFriendMgr@@@2@@Z 00416150 f i FriendMgr.obj
 0001:000152d0       ?erase@?$_Tree@V?$basic_string@DU?$char_traits@D@std@@V?$allocator@D@2@@std@@U?$pair@$$CBV?$basic_string@DU?$char_traits@D@std@@V?$allocator@D@2@@std@@UPLAYERINFO@CFriendMgr@@@2@U_Kfn@?$map@V?$basic_string@DU?$char_traits@D@std@@V?$allocator@D@2@@std@@UPLAYERINFO@CFriendMgr@@U_tstring_less@@V?$allocator@UPLAYERINFO@CFriendMgr@@@2@@2@U_tstring_less@@V?$allocator@UPLAYERINFO@CFriendMgr@@@2@@std@@QAE?AViterator@12@V312@0@Z 004162d0 f i FriendMgr.obj
 0001:00015410       ?find@?$_Tree@V?$basic_string@DU?$char_traits@D@std@@V?$allocator@D@2@@std@@U?$pair@$$CBV?$basic_string@DU?$char_traits@D@std@@V?$allocator@D@2@@std@@UPLAYERINFO@CFriendMgr@@@2@U_Kfn@?$map@V?$basic_string@DU?$char_traits@D@std@@V?$allocator@D@2@@std@@UPLAYERINFO@CFriendMgr@@U_tstring_less@@V?$allocator@UPLAYERINFO@CFriendMgr@@@2@@2@U_tstring_less@@V?$allocator@UPLAYERINFO@CFriendMgr@@@2@@std@@QAE?AViterator@12@ABV?$basic_string@DU?$char_traits@D@std@@V?$allocator@D@2@@2@@Z 00416410 f i FriendMgr.obj
 0001:00015490       ?_Dec@const_iterator@?$_Tree@V?$basic_string@DU?$char_traits@D@std@@V?$allocator@D@2@@std@@U?$pair@$$CBV?$basic_string@DU?$char_traits@D@std@@V?$allocator@D@2@@std@@UPLAYERINFO@CFriendMgr@@@2@U_Kfn@?$map@V?$basic_string@DU?$char_traits@D@std@@V?$allocator@D@2@@std@@UPLAYERINFO@CFriendMgr@@U_tstring_less@@V?$allocator@UPLAYERINFO@CFriendMgr@@@2@@2@U_tstring_less@@V?$allocator@UPLAYERINFO@CFriendMgr@@@2@@std@@QAEXXZ 00416490 f i FriendMgr.obj
 0001:00015550       ?_Inc@const_iterator@?$_Tree@V?$basic_string@DU?$char_traits@D@std@@V?$allocator@D@2@@std@@U?$pair@$$CBV?$basic_string@DU?$char_traits@D@std@@V?$allocator@D@2@@std@@UPLAYERINFO@CFriendMgr@@@2@U_Kfn@?$map@V?$basic_string@DU?$char_traits@D@std@@V?$allocator@D@2@@std@@UPLAYERINFO@CFriendMgr@@U_tstring_less@@V?$allocator@UPLAYERINFO@CFriendMgr@@@2@@2@U_tstring_less@@V?$allocator@UPLAYERINFO@CFriendMgr@@@2@@std@@QAEXXZ 00416550 f i FriendMgr.obj
 0001:00015600       ?insert@?$map@UADDFRIENDKEY@CFriendMgr@@UADDFRIENDVALUE@2@U?$less@UADDFRIENDKEY@CFriendMgr@@@std@@V?$allocator@UADDFRIENDVALUE@CFriendMgr@@@5@@std@@QAE?AU?$pair@Viterator@?$_Tree@UADDFRIENDKEY@CFriendMgr@@U?$pair@$$CBUADDFRIENDKEY@CFriendMgr@@UADDFRIENDVALUE@2@@std@@U_Kfn@?$map@UADDFRIENDKEY@CFriendMgr@@UADDFRIENDVALUE@2@U?$less@UADDFRIENDKEY@CFriendMgr@@@std@@V?$allocator@UADDFRIENDVALUE@CFriendMgr@@@5@@4@U?$less@UADDFRIENDKEY@CFriendMgr@@@4@V?$allocator@UADDFRIENDVALUE@CFriendMgr@@@4@@std@@_N@2@ABU?$pair@$$CBUADDFRIENDKEY@CFriendMgr@@UADDFRIENDVALUE@2@@2@@Z 00416600 f i FriendMgr.obj
 0001:00015630       ?erase@?$_Tree@UADDFRIENDKEY@CFriendMgr@@U?$pair@$$CBUADDFRIENDKEY@CFriendMgr@@UADDFRIENDVALUE@2@@std@@U_Kfn@?$map@UADDFRIENDKEY@CFriendMgr@@UADDFRIENDVALUE@2@U?$less@UADDFRIENDKEY@CFriendMgr@@@std@@V?$allocator@UADDFRIENDVALUE@CFriendMgr@@@5@@4@U?$less@UADDFRIENDKEY@CFriendMgr@@@4@V?$allocator@UADDFRIENDVALUE@CFriendMgr@@@4@@std@@QAE?AViterator@12@V312@@Z 00416630 f i FriendMgr.obj
 0001:00015ba0       ?erase@?$_Tree@UADDFRIENDKEY@CFriendMgr@@U?$pair@$$CBUADDFRIENDKEY@CFriendMgr@@UADDFRIENDVALUE@2@@std@@U_Kfn@?$map@UADDFRIENDKEY@CFriendMgr@@UADDFRIENDVALUE@2@U?$less@UADDFRIENDKEY@CFriendMgr@@@std@@V?$allocator@UADDFRIENDVALUE@CFriendMgr@@@5@@4@U?$less@UADDFRIENDKEY@CFriendMgr@@@4@V?$allocator@UADDFRIENDVALUE@CFriendMgr@@@4@@std@@QAE?AViterator@12@V312@0@Z 00416ba0 f i FriendMgr.obj
 0001:00015ce0       ?find@?$_Tree@UADDFRIENDKEY@CFriendMgr@@U?$pair@$$CBUADDFRIENDKEY@CFriendMgr@@UADDFRIENDVALUE@2@@std@@U_Kfn@?$map@UADDFRIENDKEY@CFriendMgr@@UADDFRIENDVALUE@2@U?$less@UADDFRIENDKEY@CFriendMgr@@@std@@V?$allocator@UADDFRIENDVALUE@CFriendMgr@@@5@@4@U?$less@UADDFRIENDKEY@CFriendMgr@@@4@V?$allocator@UADDFRIENDVALUE@CFriendMgr@@@4@@std@@QAE?AViterator@12@ABUADDFRIENDKEY@CFriendMgr@@@Z 00416ce0 f i FriendMgr.obj
 0001:00015d70       ?insert@?$list@UMEM_FRIENDRECORD@CFriendMgr@@V?$allocator@UMEM_FRIENDRECORD@CFriendMgr@@@std@@@std@@QAE?AViterator@12@V312@ABUMEM_FRIENDRECORD@CFriendMgr@@@Z 00416d70 f i FriendMgr.obj
 0001:00015dd0       ?erase@?$list@UMEM_FRIENDRECORD@CFriendMgr@@V?$allocator@UMEM_FRIENDRECORD@CFriendMgr@@@std@@@std@@QAE?AViterator@12@V312@0@Z 00416dd0 f i FriendMgr.obj
 0001:00015e30       ?_Buynode@?$list@UMEM_FRIENDRECORD@CFriendMgr@@V?$allocator@UMEM_FRIENDRECORD@CFriendMgr@@@std@@@std@@IAEPAU_Node@12@PAU312@0@Z 00416e30 f i FriendMgr.obj
 0001:00015e60       ?insert@?$map@KV?$list@UtagPlusSrcInfo@@V?$allocator@UtagPlusSrcInfo@@@std@@@std@@U?$less@K@2@V?$allocator@V?$list@UtagPlusSrcInfo@@V?$allocator@UtagPlusSrcInfo@@@std@@@std@@@2@@std@@QAE?AU?$pair@Viterator@?$_Tree@KU?$pair@$$CBKV?$list@UtagPlusSrcInfo@@V?$allocator@UtagPlusSrcInfo@@@std@@@std@@@std@@U_Kfn@?$map@KV?$list@UtagPlusSrcInfo@@V?$allocator@UtagPlusSrcInfo@@@std@@@std@@U?$less@K@2@V?$allocator@V?$list@UtagPlusSrcInfo@@V?$allocator@UtagPlusSrcInfo@@@std@@@std@@@2@@2@U?$less@K@2@V?$allocator@V?$list@UtagPlusSrcInfo@@V?$allocator@UtagPlusSrcInfo@@@std@@@std@@@2@@std@@_N@2@ABU?$pair@$$CBKV?$list@UtagPlusSrcInfo@@V?$allocator@UtagPlusSrcInfo@@@std@@@std@@@2@@Z 00416e60 f i FriendMgr.obj
 0001:00015e90       ??0?$_Tree@KU?$pair@$$CBKV?$list@UtagPlusSrcInfo@@V?$allocator@UtagPlusSrcInfo@@@std@@@std@@@std@@U_Kfn@?$map@KV?$list@UtagPlusSrcInfo@@V?$allocator@UtagPlusSrcInfo@@@std@@@std@@U?$less@K@2@V?$allocator@V?$list@UtagPlusSrcInfo@@V?$allocator@UtagPlusSrcInfo@@@std@@@std@@@2@@2@U?$less@K@2@V?$allocator@V?$list@UtagPlusSrcInfo@@V?$allocator@UtagPlusSrcInfo@@@std@@@std@@@2@@std@@QAE@ABU?$less@K@1@_NABV?$allocator@V?$list@UtagPlusSrcInfo@@V?$allocator@UtagPlusSrcInfo@@@std@@@std@@@1@@Z 00416e90 f i FriendMgr.obj
 0001:00015ec0       ?erase@?$_Tree@KU?$pair@$$CBKV?$list@UtagPlusSrcInfo@@V?$allocator@UtagPlusSrcInfo@@@std@@@std@@@std@@U_Kfn@?$map@KV?$list@UtagPlusSrcInfo@@V?$allocator@UtagPlusSrcInfo@@@std@@@std@@U?$less@K@2@V?$allocator@V?$list@UtagPlusSrcInfo@@V?$allocator@UtagPlusSrcInfo@@@std@@@std@@@2@@2@U?$less@K@2@V?$allocator@V?$list@UtagPlusSrcInfo@@V?$allocator@UtagPlusSrcInfo@@@std@@@std@@@2@@std@@QAE?AViterator@12@V312@0@Z 00416ec0 f i FriendMgr.obj
 0001:00016000       ??0?$pair@$$CBKV?$list@UtagPlusSrcInfo@@V?$allocator@UtagPlusSrcInfo@@@std@@@std@@@std@@QAE@ABKABV?$list@UtagPlusSrcInfo@@V?$allocator@UtagPlusSrcInfo@@@std@@@1@@Z 00417000 f i FriendMgr.obj
 0001:000160a0       ??0?$list@UtagPlusSrcInfo@@V?$allocator@UtagPlusSrcInfo@@@std@@@std@@QAE@ABV?$allocator@UtagPlusSrcInfo@@@1@@Z 004170a0 f i FriendMgr.obj
 0001:000160d0       ?insert@?$list@UtagPlusSrcInfo@@V?$allocator@UtagPlusSrcInfo@@@std@@@std@@QAE?AViterator@12@V312@ABUtagPlusSrcInfo@@@Z 004170d0 f i FriendMgr.obj
 0001:00016130       ?insert@?$map@V?$basic_string@DU?$char_traits@D@std@@V?$allocator@D@2@@std@@V?$list@U?$pair@EV?$basic_string@DU?$char_traits@D@std@@V?$allocator@D@2@@std@@@std@@V?$allocator@U?$pair@EV?$basic_string@DU?$char_traits@D@std@@V?$allocator@D@2@@std@@@std@@@2@@2@U_tstring_less@@V?$allocator@V?$list@U?$pair@EV?$basic_string@DU?$char_traits@D@std@@V?$allocator@D@2@@std@@@std@@V?$allocator@U?$pair@EV?$basic_string@DU?$char_traits@D@std@@V?$allocator@D@2@@std@@@std@@@2@@std@@@2@@std@@QAE?AU?$pair@Viterator@?$_Tree@V?$basic_string@DU?$char_traits@D@std@@V?$allocator@D@2@@std@@U?$pair@$$CBV?$basic_string@DU?$char_traits@D@std@@V?$allocator@D@2@@std@@V?$list@U?$pair@EV?$basic_string@DU?$char_traits@D@std@@V?$allocator@D@2@@std@@@std@@V?$allocator@U?$pair@EV?$basic_string@DU?$char_traits@D@std@@V?$allocator@D@2@@std@@@std@@@2@@2@@2@U_Kfn@?$map@V?$basic_string@DU?$char_traits@D@std@@V?$allocator@D@2@@std@@V?$list@U?$pair@EV?$basic_string@DU?$char_traits@D@std@@V?$allocator@D@2@@std@@@std@@V?$allocator@U?$pair@EV?$basic_string@DU?$char_traits@D@std@@V?$allocator@D@2@@std@@@std@@@2@@2@U_tstring_less@@V?$allocator@V?$list@U?$pair@EV?$basic_string@DU?$char_traits@D@std@@V?$allocator@D@2@@std@@@std@@V?$allocator@U?$pair@EV?$basic_string@DU?$char_traits@D@std@@V?$allocator@D@2@@std@@@std@@@2@@std@@@2@@2@U_tstring_less@@V?$allocator@V?$list@U?$pair@EV?$basic_string@DU?$char_traits@D@std@@V?$allocator@D@2@@std@@@std@@V?$allocator@U?$pair@EV?$basic_string@DU?$char_traits@D@std@@V?$allocator@D@2@@std@@@std@@@2@@std@@@2@@std@@_N@2@ABU?$pair@$$CBV?$basic_string@DU?$char_traits@D@std@@V?$allocator@D@2@@std@@V?$list@U?$pair@EV?$basic_string@DU?$char_traits@D@std@@V?$allocator@D@2@@std@@@std@@V?$allocator@U?$pair@EV?$basic_string@DU?$char_traits@D@std@@V?$allocator@D@2@@std@@@std@@@2@@2@@2@@Z 00417130 f i FriendMgr.obj
 0001:00016160       ??0?$_Tree@V?$basic_string@DU?$char_traits@D@std@@V?$allocator@D@2@@std@@U?$pair@$$CBV?$basic_string@DU?$char_traits@D@std@@V?$allocator@D@2@@std@@V?$list@U?$pair@EV?$basic_string@DU?$char_traits@D@std@@V?$allocator@D@2@@std@@@std@@V?$allocator@U?$pair@EV?$basic_string@DU?$char_traits@D@std@@V?$allocator@D@2@@std@@@std@@@2@@2@@2@U_Kfn@?$map@V?$basic_string@DU?$char_traits@D@std@@V?$allocator@D@2@@std@@V?$list@U?$pair@EV?$basic_string@DU?$char_traits@D@std@@V?$allocator@D@2@@std@@@std@@V?$allocator@U?$pair@EV?$basic_string@DU?$char_traits@D@std@@V?$allocator@D@2@@std@@@std@@@2@@2@U_tstring_less@@V?$allocator@V?$list@U?$pair@EV?$basic_string@DU?$char_traits@D@std@@V?$allocator@D@2@@std@@@std@@V?$allocator@U?$pair@EV?$basic_string@DU?$char_traits@D@std@@V?$allocator@D@2@@std@@@std@@@2@@std@@@2@@2@U_tstring_less@@V?$allocator@V?$list@U?$pair@EV?$basic_string@DU?$char_traits@D@std@@V?$allocator@D@2@@std@@@std@@V?$allocator@U?$pair@EV?$basic_string@DU?$char_traits@D@std@@V?$allocator@D@2@@std@@@std@@@2@@std@@@2@@std@@QAE@ABU_tstring_less@@_NABV?$allocator@V?$list@U?$pair@EV?$basic_string@DU?$char_traits@D@std@@V?$allocator@D@2@@std@@@std@@V?$allocator@U?$pair@EV?$basic_string@DU?$char_traits@D@std@@V?$allocator@D@2@@std@@@std@@@2@@std@@@1@@Z 00417160 f i FriendMgr.obj
 0001:00016190       ?erase@?$_Tree@V?$basic_string@DU?$char_traits@D@std@@V?$allocator@D@2@@std@@U?$pair@$$CBV?$basic_string@DU?$char_traits@D@std@@V?$allocator@D@2@@std@@V?$list@U?$pair@EV?$basic_string@DU?$char_traits@D@std@@V?$allocator@D@2@@std@@@std@@V?$allocator@U?$pair@EV?$basic_string@DU?$char_traits@D@std@@V?$allocator@D@2@@std@@@std@@@2@@2@@2@U_Kfn@?$map@V?$basic_string@DU?$char_traits@D@std@@V?$allocator@D@2@@std@@V?$list@U?$pair@EV?$basic_string@DU?$char_traits@D@std@@V?$allocator@D@2@@std@@@std@@V?$allocator@U?$pair@EV?$basic_string@DU?$char_traits@D@std@@V?$allocator@D@2@@std@@@std@@@2@@2@U_tstring_less@@V?$allocator@V?$list@U?$pair@EV?$basic_string@DU?$char_traits@D@std@@V?$allocator@D@2@@std@@@std@@V?$allocator@U?$pair@EV?$basic_string@DU?$char_traits@D@std@@V?$allocator@D@2@@std@@@std@@@2@@std@@@2@@2@U_tstring_less@@V?$allocator@V?$list@U?$pair@EV?$basic_string@DU?$char_traits@D@std@@V?$allocator@D@2@@std@@@std@@V?$allocator@U?$pair@EV?$basic_string@DU?$char_traits@D@std@@V?$allocator@D@2@@std@@@std@@@2@@std@@@2@@std@@QAE?AViterator@12@V312@0@Z 00417190 f i FriendMgr.obj
 0001:000162d0       ??0?$pair@$$CBV?$basic_string@DU?$char_traits@D@std@@V?$allocator@D@2@@std@@V?$list@U?$pair@EV?$basic_string@DU?$char_traits@D@std@@V?$allocator@D@2@@std@@@std@@V?$allocator@U?$pair@EV?$basic_string@DU?$char_traits@D@std@@V?$allocator@D@2@@std@@@std@@@2@@2@@std@@QAE@ABV?$basic_string@DU?$char_traits@D@std@@V?$allocator@D@2@@1@ABV?$list@U?$pair@EV?$basic_string@DU?$char_traits@D@std@@V?$allocator@D@2@@std@@@std@@V?$allocator@U?$pair@EV?$basic_string@DU?$char_traits@D@std@@V?$allocator@D@2@@std@@@std@@@2@@1@@Z 004172d0 f i FriendMgr.obj
 0001:00016420       ??0?$list@U?$pair@EV?$basic_string@DU?$char_traits@D@std@@V?$allocator@D@2@@std@@@std@@V?$allocator@U?$pair@EV?$basic_string@DU?$char_traits@D@std@@V?$allocator@D@2@@std@@@std@@@2@@std@@QAE@ABV?$allocator@U?$pair@EV?$basic_string@DU?$char_traits@D@std@@V?$allocator@D@2@@std@@@std@@@1@@Z 00417420 f i FriendMgr.obj
 0001:00016450       ??1?$list@U?$pair@EV?$basic_string@DU?$char_traits@D@std@@V?$allocator@D@2@@std@@@std@@V?$allocator@U?$pair@EV?$basic_string@DU?$char_traits@D@std@@V?$allocator@D@2@@std@@@std@@@2@@std@@QAE@XZ 00417450 f i FriendMgr.obj
 0001:000164b0       ?insert@?$list@U?$pair@EV?$basic_string@DU?$char_traits@D@std@@V?$allocator@D@2@@std@@@std@@V?$allocator@U?$pair@EV?$basic_string@DU?$char_traits@D@std@@V?$allocator@D@2@@std@@@std@@@2@@std@@QAE?AViterator@12@V312@ABU?$pair@EV?$basic_string@DU?$char_traits@D@std@@V?$allocator@D@2@@std@@@2@@Z 004174b0 f i FriendMgr.obj
 0001:00016510       ??0?$pair@Viterator@?$_Tree@V?$basic_string@DU?$char_traits@D@std@@V?$allocator@D@2@@std@@U?$pair@$$CBV?$basic_string@DU?$char_traits@D@std@@V?$allocator@D@2@@std@@UPLAYERINFO@CFriendMgr@@@2@U_Kfn@?$map@V?$basic_string@DU?$char_traits@D@std@@V?$allocator@D@2@@std@@UPLAYERINFO@CFriendMgr@@U_tstring_less@@V?$allocator@UPLAYERINFO@CFriendMgr@@@2@@2@U_tstring_less@@V?$allocator@UPLAYERINFO@CFriendMgr@@@2@@std@@_N@std@@QAE@ABViterator@?$_Tree@V?$basic_string@DU?$char_traits@D@std@@V?$allocator@D@2@@std@@U?$pair@$$CBV?$basic_string@DU?$char_traits@D@std@@V?$allocator@D@2@@std@@UPLAYERINFO@CFriendMgr@@@2@U_Kfn@?$map@V?$basic_string@DU?$char_traits@D@std@@V?$allocator@D@2@@std@@UPLAYERINFO@CFriendMgr@@U_tstring_less@@V?$allocator@UPLAYERINFO@CFriendMgr@@@2@@2@U_tstring_less@@V?$allocator@UPLAYERINFO@CFriendMgr@@@2@@1@AB_N@Z 00417510 f i FriendMgr.obj
 0001:00016530       ??0?$pair@Viterator@?$_Tree@V?$basic_string@DU?$char_traits@D@std@@V?$allocator@D@2@@std@@U?$pair@$$CBV?$basic_string@DU?$char_traits@D@std@@V?$allocator@D@2@@std@@UFRIENDINFO@CFriendMgr@@@2@U_Kfn@?$map@V?$basic_string@DU?$char_traits@D@std@@V?$allocator@D@2@@std@@UFRIENDINFO@CFriendMgr@@U_tstring_less@@V?$allocator@UFRIENDINFO@CFriendMgr@@@2@@2@U_tstring_less@@V?$allocator@UFRIENDINFO@CFriendMgr@@@2@@std@@_N@std@@QAE@ABViterator@?$_Tree@V?$basic_string@DU?$char_traits@D@std@@V?$allocator@D@2@@std@@U?$pair@$$CBV?$basic_string@DU?$char_traits@D@std@@V?$allocator@D@2@@std@@UFRIENDINFO@CFriendMgr@@@2@U_Kfn@?$map@V?$basic_string@DU?$char_traits@D@std@@V?$allocator@D@2@@std@@UFRIENDINFO@CFriendMgr@@U_tstring_less@@V?$allocator@UFRIENDINFO@CFriendMgr@@@2@@2@U_tstring_less@@V?$allocator@UFRIENDINFO@CFriendMgr@@@2@@1@AB_N@Z 00417530 f i FriendMgr.obj
 0001:00016550       ?insert@?$list@UONEPLAYER@CFriendMgr@@V?$allocator@UONEPLAYER@CFriendMgr@@@std@@@std@@QAE?AViterator@12@V312@ABUONEPLAYER@CFriendMgr@@@Z 00417550 f i FriendMgr.obj
 0001:000165b0       ?erase@?$list@UONEPLAYER@CFriendMgr@@V?$allocator@UONEPLAYER@CFriendMgr@@@std@@@std@@QAE?AViterator@12@V312@@Z 004175b0 f i FriendMgr.obj
 0001:000165f0       ?erase@?$list@UONEPLAYER@CFriendMgr@@V?$allocator@UONEPLAYER@CFriendMgr@@@std@@@std@@QAE?AViterator@12@V312@0@Z 004175f0 f i FriendMgr.obj
 0001:00016650       ?_Buynode@?$list@UONEPLAYER@CFriendMgr@@V?$allocator@UONEPLAYER@CFriendMgr@@@std@@@std@@IAEPAU_Node@12@PAU312@0@Z 00417650 f i FriendMgr.obj
 0001:00016680       ?insert@?$list@V?$basic_string@DU?$char_traits@D@std@@V?$allocator@D@2@@std@@V?$allocator@V?$basic_string@DU?$char_traits@D@std@@V?$allocator@D@2@@std@@@2@@std@@QAE?AViterator@12@V312@ABV?$basic_string@DU?$char_traits@D@std@@V?$allocator@D@2@@2@@Z 00417680 f i FriendMgr.obj
 0001:000166e0       ?erase@?$list@V?$basic_string@DU?$char_traits@D@std@@V?$allocator@D@2@@std@@V?$allocator@V?$basic_string@DU?$char_traits@D@std@@V?$allocator@D@2@@std@@@2@@std@@QAE?AViterator@12@V312@0@Z 004176e0 f i FriendMgr.obj
 0001:00016770       ?_Buynode@?$list@V?$basic_string@DU?$char_traits@D@std@@V?$allocator@D@2@@std@@V?$allocator@V?$basic_string@DU?$char_traits@D@std@@V?$allocator@D@2@@std@@@2@@std@@IAEPAU_Node@12@PAU312@0@Z 00417770 f i FriendMgr.obj
 0001:000167a0       ?insert@?$vector@Viterator@?$_Tree@V?$basic_string@DU?$char_traits@D@std@@V?$allocator@D@2@@std@@U?$pair@$$CBV?$basic_string@DU?$char_traits@D@std@@V?$allocator@D@2@@std@@UPLAYERINFO@CFriendMgr@@@2@U_Kfn@?$map@V?$basic_string@DU?$char_traits@D@std@@V?$allocator@D@2@@std@@UPLAYERINFO@CFriendMgr@@U_tstring_less@@V?$allocator@UPLAYERINFO@CFriendMgr@@@2@@2@U_tstring_less@@V?$allocator@UPLAYERINFO@CFriendMgr@@@2@@std@@V?$allocator@Viterator@?$_Tree@V?$basic_string@DU?$char_traits@D@std@@V?$allocator@D@2@@std@@U?$pair@$$CBV?$basic_string@DU?$char_traits@D@std@@V?$allocator@D@2@@std@@UPLAYERINFO@CFriendMgr@@@2@U_Kfn@?$map@V?$basic_string@DU?$char_traits@D@std@@V?$allocator@D@2@@std@@UPLAYERINFO@CFriendMgr@@U_tstring_less@@V?$allocator@UPLAYERINFO@CFriendMgr@@@2@@2@U_tstring_less@@V?$allocator@UPLAYERINFO@CFriendMgr@@@2@@std@@@3@@std@@QAEPAViterator@?$_Tree@V?$basic_string@DU?$char_traits@D@std@@V?$allocator@D@2@@std@@U?$pair@$$CBV?$basic_string@DU?$char_traits@D@std@@V?$allocator@D@2@@std@@UPLAYERINFO@CFriendMgr@@@2@U_Kfn@?$map@V?$basic_string@DU?$char_traits@D@std@@V?$allocator@D@2@@std@@UPLAYERINFO@CFriendMgr@@U_tstring_less@@V?$allocator@UPLAYERINFO@CFriendMgr@@@2@@2@U_tstring_less@@V?$allocator@UPLAYERINFO@CFriendMgr@@@2@@2@PAV342@ABV342@@Z 004177a0 f i FriendMgr.obj
 0001:00016940       ?size@?$vector@Viterator@?$_Tree@V?$basic_string@DU?$char_traits@D@std@@V?$allocator@D@2@@std@@U?$pair@$$CBV?$basic_string@DU?$char_traits@D@std@@V?$allocator@D@2@@std@@UPLAYERINFO@CFriendMgr@@@2@U_Kfn@?$map@V?$basic_string@DU?$char_traits@D@std@@V?$allocator@D@2@@std@@UPLAYERINFO@CFriendMgr@@U_tstring_less@@V?$allocator@UPLAYERINFO@CFriendMgr@@@2@@2@U_tstring_less@@V?$allocator@UPLAYERINFO@CFriendMgr@@@2@@std@@V?$allocator@Viterator@?$_Tree@V?$basic_string@DU?$char_traits@D@std@@V?$allocator@D@2@@std@@U?$pair@$$CBV?$basic_string@DU?$char_traits@D@std@@V?$allocator@D@2@@std@@UPLAYERINFO@CFriendMgr@@@2@U_Kfn@?$map@V?$basic_string@DU?$char_traits@D@std@@V?$allocator@D@2@@std@@UPLAYERINFO@CFriendMgr@@U_tstring_less@@V?$allocator@UPLAYERINFO@CFriendMgr@@@2@@2@U_tstring_less@@V?$allocator@UPLAYERINFO@CFriendMgr@@@2@@std@@@3@@std@@QBEIXZ 00417940 f i FriendMgr.obj
 0001:00016960       ?_Destroy@?$vector@Viterator@?$_Tree@V?$basic_string@DU?$char_traits@D@std@@V?$allocator@D@2@@std@@U?$pair@$$CBV?$basic_string@DU?$char_traits@D@std@@V?$allocator@D@2@@std@@UPLAYERINFO@CFriendMgr@@@2@U_Kfn@?$map@V?$basic_string@DU?$char_traits@D@std@@V?$allocator@D@2@@std@@UPLAYERINFO@CFriendMgr@@U_tstring_less@@V?$allocator@UPLAYERINFO@CFriendMgr@@@2@@2@U_tstring_less@@V?$allocator@UPLAYERINFO@CFriendMgr@@@2@@std@@V?$allocator@Viterator@?$_Tree@V?$basic_string@DU?$char_traits@D@std@@V?$allocator@D@2@@std@@U?$pair@$$CBV?$basic_string@DU?$char_traits@D@std@@V?$allocator@D@2@@std@@UPLAYERINFO@CFriendMgr@@@2@U_Kfn@?$map@V?$basic_string@DU?$char_traits@D@std@@V?$allocator@D@2@@std@@UPLAYERINFO@CFriendMgr@@U_tstring_less@@V?$allocator@UPLAYERINFO@CFriendMgr@@@2@@2@U_tstring_less@@V?$allocator@UPLAYERINFO@CFriendMgr@@@2@@std@@@3@@std@@IAEXPAViterator@?$_Tree@V?$basic_string@DU?$char_traits@D@std@@V?$allocator@D@2@@std@@U?$pair@$$CBV?$basic_string@DU?$char_traits@D@std@@V?$allocator@D@2@@std@@UPLAYERINFO@CFriendMgr@@@2@U_Kfn@?$map@V?$basic_string@DU?$char_traits@D@std@@V?$allocator@D@2@@std@@UPLAYERINFO@CFriendMgr@@U_tstring_less@@V?$allocator@UPLAYERINFO@CFriendMgr@@@2@@2@U_tstring_less@@V?$allocator@UPLAYERINFO@CFriendMgr@@@2@@2@0@Z 00417960 f i FriendMgr.obj
 0001:00016970       ??0ADDFRIENDKEY@CFriendMgr@@QAE@ABU01@@Z 00417970 f i FriendMgr.obj
 0001:00016ab0       ??0ADDFRIENDVALUE@CFriendMgr@@QAE@ABU01@@Z 00417ab0 f i FriendMgr.obj
 0001:00016bf0       ?lower_bound@?$_Tree@V?$basic_string@DU?$char_traits@D@std@@V?$allocator@D@2@@std@@U?$pair@$$CBV?$basic_string@DU?$char_traits@D@std@@V?$allocator@D@2@@std@@UFRIENDINFO@CFriendMgr@@@2@U_Kfn@?$map@V?$basic_string@DU?$char_traits@D@std@@V?$allocator@D@2@@std@@UFRIENDINFO@CFriendMgr@@U_tstring_less@@V?$allocator@UFRIENDINFO@CFriendMgr@@@2@@2@U_tstring_less@@V?$allocator@UFRIENDINFO@CFriendMgr@@@2@@std@@QAE?AViterator@12@ABV?$basic_string@DU?$char_traits@D@std@@V?$allocator@D@2@@2@@Z 00417bf0 f i FriendMgr.obj
 0001:00016c10       ?equal_range@?$_Tree@V?$basic_string@DU?$char_traits@D@std@@V?$allocator@D@2@@std@@U?$pair@$$CBV?$basic_string@DU?$char_traits@D@std@@V?$allocator@D@2@@std@@UFRIENDINFO@CFriendMgr@@@2@U_Kfn@?$map@V?$basic_string@DU?$char_traits@D@std@@V?$allocator@D@2@@std@@UFRIENDINFO@CFriendMgr@@U_tstring_less@@V?$allocator@UFRIENDINFO@CFriendMgr@@@2@@2@U_tstring_less@@V?$allocator@UFRIENDINFO@CFriendMgr@@@2@@std@@QAE?AU?$pair@Viterator@?$_Tree@V?$basic_string@DU?$char_traits@D@std@@V?$allocator@D@2@@std@@U?$pair@$$CBV?$basic_string@DU?$char_traits@D@std@@V?$allocator@D@2@@std@@UFRIENDINFO@CFriendMgr@@@2@U_Kfn@?$map@V?$basic_string@DU?$char_traits@D@std@@V?$allocator@D@2@@std@@UFRIENDINFO@CFriendMgr@@U_tstring_less@@V?$allocator@UFRIENDINFO@CFriendMgr@@@2@@2@U_tstring_less@@V?$allocator@UFRIENDINFO@CFriendMgr@@@2@@std@@V123@@2@ABV?$basic_string@DU?$char_traits@D@std@@V?$allocator@D@2@@2@@Z 00417c10 f i FriendMgr.obj
 0001:00016c40       ?_Copy@?$_Tree@V?$basic_string@DU?$char_traits@D@std@@V?$allocator@D@2@@std@@U?$pair@$$CBV?$basic_string@DU?$char_traits@D@std@@V?$allocator@D@2@@std@@UFRIENDINFO@CFriendMgr@@@2@U_Kfn@?$map@V?$basic_string@DU?$char_traits@D@std@@V?$allocator@D@2@@std@@UFRIENDINFO@CFriendMgr@@U_tstring_less@@V?$allocator@UFRIENDINFO@CFriendMgr@@@2@@2@U_tstring_less@@V?$allocator@UFRIENDINFO@CFriendMgr@@@2@@std@@IAEXABV12@@Z 00417c40 f i FriendMgr.obj
 0001:00016dc0       ?_Erase@?$_Tree@V?$basic_string@DU?$char_traits@D@std@@V?$allocator@D@2@@std@@U?$pair@$$CBV?$basic_string@DU?$char_traits@D@std@@V?$allocator@D@2@@std@@UFRIENDINFO@CFriendMgr@@@2@U_Kfn@?$map@V?$basic_string@DU?$char_traits@D@std@@V?$allocator@D@2@@std@@UFRIENDINFO@CFriendMgr@@U_tstring_less@@V?$allocator@UFRIENDINFO@CFriendMgr@@@2@@2@U_tstring_less@@V?$allocator@UFRIENDINFO@CFriendMgr@@@2@@std@@IAEXPAU_Node@12@@Z 00417dc0 f i FriendMgr.obj
 0001:00016ea0       ?_Insert@?$_Tree@V?$basic_string@DU?$char_traits@D@std@@V?$allocator@D@2@@std@@U?$pair@$$CBV?$basic_string@DU?$char_traits@D@std@@V?$allocator@D@2@@std@@UFRIENDINFO@CFriendMgr@@@2@U_Kfn@?$map@V?$basic_string@DU?$char_traits@D@std@@V?$allocator@D@2@@std@@UFRIENDINFO@CFriendMgr@@U_tstring_less@@V?$allocator@UFRIENDINFO@CFriendMgr@@@2@@2@U_tstring_less@@V?$allocator@UFRIENDINFO@CFriendMgr@@@2@@std@@IAE?AViterator@12@PAU_Node@12@0ABU?$pair@$$CBV?$basic_string@DU?$char_traits@D@std@@V?$allocator@D@2@@std@@UFRIENDINFO@CFriendMgr@@@2@@Z 00417ea0 f i FriendMgr.obj
 0001:000171d0       ?_Inc@const_iterator@?$_Tree@V?$basic_string@DU?$char_traits@D@std@@V?$allocator@D@2@@std@@U?$pair@$$CBV?$basic_string@DU?$char_traits@D@std@@V?$allocator@D@2@@std@@UFRIENDINFO@CFriendMgr@@@2@U_Kfn@?$map@V?$basic_string@DU?$char_traits@D@std@@V?$allocator@D@2@@std@@UFRIENDINFO@CFriendMgr@@U_tstring_less@@V?$allocator@UFRIENDINFO@CFriendMgr@@@2@@2@U_tstring_less@@V?$allocator@UFRIENDINFO@CFriendMgr@@@2@@std@@QAEXXZ 004181d0 f i FriendMgr.obj
 0001:00017280       ?erase@?$_Tree@V?$basic_string@DU?$char_traits@D@std@@V?$allocator@D@2@@std@@U?$pair@$$CBV?$basic_string@DU?$char_traits@D@std@@V?$allocator@D@2@@std@@UPLAYERINFO@CFriendMgr@@@2@U_Kfn@?$map@V?$basic_string@DU?$char_traits@D@std@@V?$allocator@D@2@@std@@UPLAYERINFO@CFriendMgr@@U_tstring_less@@V?$allocator@UPLAYERINFO@CFriendMgr@@@2@@2@U_tstring_less@@V?$allocator@UPLAYERINFO@CFriendMgr@@@2@@std@@QAE?AViterator@12@V312@@Z 00418280 f i FriendMgr.obj
 0001:00017870       ?deallocate@?$allocator@UFRIENDINFO@CFriendMgr@@@std@@QAEXPAXI@Z 00418870 f i FriendMgr.obj
 0001:00017880       ?_Lmost@?$_Tree@V?$basic_string@DU?$char_traits@D@std@@V?$allocator@D@2@@std@@U?$pair@$$CBV?$basic_string@DU?$char_traits@D@std@@V?$allocator@D@2@@std@@UFRIENDINFO@CFriendMgr@@@2@U_Kfn@?$map@V?$basic_string@DU?$char_traits@D@std@@V?$allocator@D@2@@std@@UFRIENDINFO@CFriendMgr@@U_tstring_less@@V?$allocator@UFRIENDINFO@CFriendMgr@@@2@@2@U_tstring_less@@V?$allocator@UFRIENDINFO@CFriendMgr@@@2@@std@@IAEAAPAU_Node@12@XZ 00418880 f i FriendMgr.obj
 0001:00017890       ??0iterator@?$_Tree@V?$basic_string@DU?$char_traits@D@std@@V?$allocator@D@2@@std@@U?$pair@$$CBV?$basic_string@DU?$char_traits@D@std@@V?$allocator@D@2@@std@@UFRIENDINFO@CFriendMgr@@@2@U_Kfn@?$map@V?$basic_string@DU?$char_traits@D@std@@V?$allocator@D@2@@std@@UFRIENDINFO@CFriendMgr@@U_tstring_less@@V?$allocator@UFRIENDINFO@CFriendMgr@@@2@@2@U_tstring_less@@V?$allocator@UFRIENDINFO@CFriendMgr@@@2@@std@@QAE@PAU_Node@12@@Z 00418890 f i FriendMgr.obj
 0001:000178a0       ?_Erase@?$_Tree@V?$basic_string@DU?$char_traits@D@std@@V?$allocator@D@2@@std@@U?$pair@$$CBV?$basic_string@DU?$char_traits@D@std@@V?$allocator@D@2@@std@@UPLAYERINFO@CFriendMgr@@@2@U_Kfn@?$map@V?$basic_string@DU?$char_traits@D@std@@V?$allocator@D@2@@std@@UPLAYERINFO@CFriendMgr@@U_tstring_less@@V?$allocator@UPLAYERINFO@CFriendMgr@@@2@@2@U_tstring_less@@V?$allocator@UPLAYERINFO@CFriendMgr@@@2@@std@@IAEXPAU_Node@12@@Z 004188a0 f i FriendMgr.obj
 0001:00017a00       ?_Init@?$_Tree@V?$basic_string@DU?$char_traits@D@std@@V?$allocator@D@2@@std@@U?$pair@$$CBV?$basic_string@DU?$char_traits@D@std@@V?$allocator@D@2@@std@@UPLAYERINFO@CFriendMgr@@@2@U_Kfn@?$map@V?$basic_string@DU?$char_traits@D@std@@V?$allocator@D@2@@std@@UPLAYERINFO@CFriendMgr@@U_tstring_less@@V?$allocator@UPLAYERINFO@CFriendMgr@@@2@@2@U_tstring_less@@V?$allocator@UPLAYERINFO@CFriendMgr@@@2@@std@@IAEXXZ 00418a00 f i FriendMgr.obj
 0001:00017ab0       ?_Insert@?$_Tree@V?$basic_string@DU?$char_traits@D@std@@V?$allocator@D@2@@std@@U?$pair@$$CBV?$basic_string@DU?$char_traits@D@std@@V?$allocator@D@2@@std@@UPLAYERINFO@CFriendMgr@@@2@U_Kfn@?$map@V?$basic_string@DU?$char_traits@D@std@@V?$allocator@D@2@@std@@UPLAYERINFO@CFriendMgr@@U_tstring_less@@V?$allocator@UPLAYERINFO@CFriendMgr@@@2@@2@U_tstring_less@@V?$allocator@UPLAYERINFO@CFriendMgr@@@2@@std@@IAE?AViterator@12@PAU_Node@12@0ABU?$pair@$$CBV?$basic_string@DU?$char_traits@D@std@@V?$allocator@D@2@@std@@UPLAYERINFO@CFriendMgr@@@2@@Z 00418ab0 f i FriendMgr.obj
 0001:00017de0       ?insert@?$_Tree@UADDFRIENDKEY@CFriendMgr@@U?$pair@$$CBUADDFRIENDKEY@CFriendMgr@@UADDFRIENDVALUE@2@@std@@U_Kfn@?$map@UADDFRIENDKEY@CFriendMgr@@UADDFRIENDVALUE@2@U?$less@UADDFRIENDKEY@CFriendMgr@@@std@@V?$allocator@UADDFRIENDVALUE@CFriendMgr@@@5@@4@U?$less@UADDFRIENDKEY@CFriendMgr@@@4@V?$allocator@UADDFRIENDVALUE@CFriendMgr@@@4@@std@@QAE?AU?$pair@Viterator@?$_Tree@UADDFRIENDKEY@CFriendMgr@@U?$pair@$$CBUADDFRIENDKEY@CFriendMgr@@UADDFRIENDVALUE@2@@std@@U_Kfn@?$map@UADDFRIENDKEY@CFriendMgr@@UADDFRIENDVALUE@2@U?$less@UADDFRIENDKEY@CFriendMgr@@@std@@V?$allocator@UADDFRIENDVALUE@CFriendMgr@@@5@@4@U?$less@UADDFRIENDKEY@CFriendMgr@@@4@V?$allocator@UADDFRIENDVALUE@CFriendMgr@@@4@@std@@_N@2@ABU?$pair@$$CBUADDFRIENDKEY@CFriendMgr@@UADDFRIENDVALUE@2@@2@@Z 00418de0 f i FriendMgr.obj
 0001:00017f30       ??MADDFRIENDKEY@CFriendMgr@@QBE_NABU01@@Z 00418f30 f i FriendMgr.obj
 0001:00017f90       ?_Erase@?$_Tree@UADDFRIENDKEY@CFriendMgr@@U?$pair@$$CBUADDFRIENDKEY@CFriendMgr@@UADDFRIENDVALUE@2@@std@@U_Kfn@?$map@UADDFRIENDKEY@CFriendMgr@@UADDFRIENDVALUE@2@U?$less@UADDFRIENDKEY@CFriendMgr@@@std@@V?$allocator@UADDFRIENDVALUE@CFriendMgr@@@5@@4@U?$less@UADDFRIENDKEY@CFriendMgr@@@4@V?$allocator@UADDFRIENDVALUE@CFriendMgr@@@4@@std@@IAEXPAU_Node@12@@Z 00418f90 f i FriendMgr.obj
 0001:00018070       ?_Init@?$_Tree@UADDFRIENDKEY@CFriendMgr@@U?$pair@$$CBUADDFRIENDKEY@CFriendMgr@@UADDFRIENDVALUE@2@@std@@U_Kfn@?$map@UADDFRIENDKEY@CFriendMgr@@UADDFRIENDVALUE@2@U?$less@UADDFRIENDKEY@CFriendMgr@@@std@@V?$allocator@UADDFRIENDVALUE@CFriendMgr@@@5@@4@U?$less@UADDFRIENDKEY@CFriendMgr@@@4@V?$allocator@UADDFRIENDVALUE@CFriendMgr@@@4@@std@@IAEXXZ 00419070 f i FriendMgr.obj
 0001:00018120       ?erase@?$list@UMEM_FRIENDRECORD@CFriendMgr@@V?$allocator@UMEM_FRIENDRECORD@CFriendMgr@@@std@@@std@@QAE?AViterator@12@V312@@Z 00419120 f i FriendMgr.obj
 0001:00018160       ?insert@?$_Tree@KU?$pair@$$CBKV?$list@UtagPlusSrcInfo@@V?$allocator@UtagPlusSrcInfo@@@std@@@std@@@std@@U_Kfn@?$map@KV?$list@UtagPlusSrcInfo@@V?$allocator@UtagPlusSrcInfo@@@std@@@std@@U?$less@K@2@V?$allocator@V?$list@UtagPlusSrcInfo@@V?$allocator@UtagPlusSrcInfo@@@std@@@std@@@2@@2@U?$less@K@2@V?$allocator@V?$list@UtagPlusSrcInfo@@V?$allocator@UtagPlusSrcInfo@@@std@@@std@@@2@@std@@QAE?AU?$pair@Viterator@?$_Tree@KU?$pair@$$CBKV?$list@UtagPlusSrcInfo@@V?$allocator@UtagPlusSrcInfo@@@std@@@std@@@std@@U_Kfn@?$map@KV?$list@UtagPlusSrcInfo@@V?$allocator@UtagPlusSrcInfo@@@std@@@std@@U?$less@K@2@V?$allocator@V?$list@UtagPlusSrcInfo@@V?$allocator@UtagPlusSrcInfo@@@std@@@std@@@2@@2@U?$less@K@2@V?$allocator@V?$list@UtagPlusSrcInfo@@V?$allocator@UtagPlusSrcInfo@@@std@@@std@@@2@@std@@_N@2@ABU?$pair@$$CBKV?$list@UtagPlusSrcInfo@@V?$allocator@UtagPlusSrcInfo@@@std@@@std@@@2@@Z 00419160 f i FriendMgr.obj
 0001:00018290       ?erase@?$_Tree@KU?$pair@$$CBKV?$list@UtagPlusSrcInfo@@V?$allocator@UtagPlusSrcInfo@@@std@@@std@@@std@@U_Kfn@?$map@KV?$list@UtagPlusSrcInfo@@V?$allocator@UtagPlusSrcInfo@@@std@@@std@@U?$less@K@2@V?$allocator@V?$list@UtagPlusSrcInfo@@V?$allocator@UtagPlusSrcInfo@@@std@@@std@@@2@@2@U?$less@K@2@V?$allocator@V?$list@UtagPlusSrcInfo@@V?$allocator@UtagPlusSrcInfo@@@std@@@std@@@2@@std@@QAE?AViterator@12@V312@@Z 00419290 f i FriendMgr.obj
 0001:000187d0       ?_Next@_Acc@?$list@UtagPlusSrcInfo@@V?$allocator@UtagPlusSrcInfo@@@std@@@std@@SAAAPAU_Node@23@PAU423@@Z 004197d0 f i FriendMgr.obj
 0001:000187e0       ?_Erase@?$_Tree@KU?$pair@$$CBKV?$list@UtagPlusSrcInfo@@V?$allocator@UtagPlusSrcInfo@@@std@@@std@@@std@@U_Kfn@?$map@KV?$list@UtagPlusSrcInfo@@V?$allocator@UtagPlusSrcInfo@@@std@@@std@@U?$less@K@2@V?$allocator@V?$list@UtagPlusSrcInfo@@V?$allocator@UtagPlusSrcInfo@@@std@@@std@@@2@@2@U?$less@K@2@V?$allocator@V?$list@UtagPlusSrcInfo@@V?$allocator@UtagPlusSrcInfo@@@std@@@std@@@2@@std@@IAEXPAU_Node@12@@Z 004197e0 f i FriendMgr.obj
 0001:000188c0       ?_Init@?$_Tree@KU?$pair@$$CBKV?$list@UtagPlusSrcInfo@@V?$allocator@UtagPlusSrcInfo@@@std@@@std@@@std@@U_Kfn@?$map@KV?$list@UtagPlusSrcInfo@@V?$allocator@UtagPlusSrcInfo@@@std@@@std@@U?$less@K@2@V?$allocator@V?$list@UtagPlusSrcInfo@@V?$allocator@UtagPlusSrcInfo@@@std@@@std@@@2@@2@U?$less@K@2@V?$allocator@V?$list@UtagPlusSrcInfo@@V?$allocator@UtagPlusSrcInfo@@@std@@@std@@@2@@std@@IAEXXZ 004198c0 f i FriendMgr.obj
 0001:00018970       ?_Inc@const_iterator@?$_Tree@KU?$pair@$$CBKV?$list@UtagPlusSrcInfo@@V?$allocator@UtagPlusSrcInfo@@@std@@@std@@@std@@U_Kfn@?$map@KV?$list@UtagPlusSrcInfo@@V?$allocator@UtagPlusSrcInfo@@@std@@@std@@U?$less@K@2@V?$allocator@V?$list@UtagPlusSrcInfo@@V?$allocator@UtagPlusSrcInfo@@@std@@@std@@@2@@2@U?$less@K@2@V?$allocator@V?$list@UtagPlusSrcInfo@@V?$allocator@UtagPlusSrcInfo@@@std@@@std@@@2@@std@@QAEXXZ 00419970 f i FriendMgr.obj
 0001:00018a20       ?insert@?$_Tree@V?$basic_string@DU?$char_traits@D@std@@V?$allocator@D@2@@std@@U?$pair@$$CBV?$basic_string@DU?$char_traits@D@std@@V?$allocator@D@2@@std@@V?$list@U?$pair@EV?$basic_string@DU?$char_traits@D@std@@V?$allocator@D@2@@std@@@std@@V?$allocat936a1ecb 00419a20 f i FriendMgr.obj
 0001:00018ba0       ?erase@?$_Tree@V?$basic_string@DU?$char_traits@D@std@@V?$allocator@D@2@@std@@U?$pair@$$CBV?$basic_string@DU?$char_traits@D@std@@V?$allocator@D@2@@std@@V?$list@U?$pair@EV?$basic_string@DU?$char_traits@D@std@@V?$allocator@D@2@@std@@@std@@V?$allocator@U?$pair@EV?$basic_string@DU?$char_traits@D@std@@V?$allocator@D@2@@std@@@std@@@2@@2@@2@U_Kfn@?$map@V?$basic_string@DU?$char_traits@D@std@@V?$allocator@D@2@@std@@V?$list@U?$pair@EV?$basic_string@DU?$char_traits@D@std@@V?$allocator@D@2@@std@@@std@@V?$allocator@U?$pair@EV?$basic_string@DU?$char_traits@D@std@@V?$allocator@D@2@@std@@@std@@@2@@2@U_tstring_less@@V?$allocator@V?$list@U?$pair@EV?$basic_string@DU?$char_traits@D@std@@V?$allocator@D@2@@std@@@std@@V?$allocator@U?$pair@EV?$basic_string@DU?$char_traits@D@std@@V?$allocator@D@2@@std@@@std@@@2@@std@@@2@@2@U_tstring_less@@V?$allocator@V?$list@U?$pair@EV?$basic_string@DU?$char_traits@D@std@@V?$allocator@D@2@@std@@@std@@V?$allocator@U?$pair@EV?$basic_string@DU?$char_traits@D@std@@V?$allocator@D@2@@std@@@std@@@2@@std@@@2@@std@@QAE?AViterator@12@V312@@Z 00419ba0 f i FriendMgr.obj
 0001:00019150       ??Eiterator@?$list@U?$pair@EV?$basic_string@DU?$char_traits@D@std@@V?$allocator@D@2@@std@@@std@@V?$allocator@U?$pair@EV?$basic_string@DU?$char_traits@D@std@@V?$allocator@D@2@@std@@@std@@@2@@std@@QAE?AV012@H@Z 0041a150 f i FriendMgr.obj
 0001:00019160       ?_Erase@?$_Tree@V?$basic_string@DU?$char_traits@D@std@@V?$allocator@D@2@@std@@U?$pair@$$CBV?$basic_string@DU?$char_traits@D@std@@V?$allocator@D@2@@std@@V?$list@U?$pair@EV?$basic_string@DU?$char_traits@D@std@@V?$allocator@D@2@@std@@@std@@V?$allocator@U?$pair@EV?$basic_string@DU?$char_traits@D@std@@V?$allocator@D@2@@std@@@std@@@2@@2@@2@U_Kfn@?$map@V?$basic_string@DU?$char_traits@D@std@@V?$allocator@D@2@@std@@V?$list@U?$pair@EV?$basic_string@DU?$char_traits@D@std@@V?$allocator@D@2@@std@@@std@@V?$allocator@U?$pair@EV?$basic_string@DU?$char_traits@D@std@@V?$allocator@D@2@@std@@@std@@@2@@2@U_tstring_less@@V?$allocator@V?$list@U?$pair@EV?$basic_string@DU?$char_traits@D@std@@V?$allocator@D@2@@std@@@std@@V?$allocator@U?$pair@EV?$basic_string@DU?$char_traits@D@std@@V?$allocator@D@2@@std@@@std@@@2@@std@@@2@@2@U_tstring_less@@V?$allocator@V?$list@U?$pair@EV?$basic_string@DU?$char_traits@D@std@@V?$allocator@D@2@@std@@@std@@V?$allocator@U?$pair@EV?$basic_string@DU?$char_traits@D@std@@V?$allocator@D@2@@std@@@std@@@2@@std@@@2@@std@@IAEXPAU_Node@12@@Z 0041a160 f i FriendMgr.obj
 0001:00019290       ?_Init@?$_Tree@V?$basic_string@DU?$char_traits@D@std@@V?$allocator@D@2@@std@@U?$pair@$$CBV?$basic_string@DU?$char_traits@D@std@@V?$allocator@D@2@@std@@V?$list@U?$pair@EV?$basic_string@DU?$char_traits@D@std@@V?$allocator@D@2@@std@@@std@@V?$allocator@U?$pair@EV?$basic_string@DU?$char_traits@D@std@@V?$allocator@D@2@@std@@@std@@@2@@2@@2@U_Kfn@?$map@V?$basic_string@DU?$char_traits@D@std@@V?$allocator@D@2@@std@@V?$list@U?$pair@EV?$basic_string@DU?$char_traits@D@std@@V?$allocator@D@2@@std@@@std@@V?$allocator@U?$pair@EV?$basic_string@DU?$char_traits@D@std@@V?$allocator@D@2@@std@@@std@@@2@@2@U_tstring_less@@V?$allocator@V?$list@U?$pair@EV?$basic_string@DU?$char_traits@D@std@@V?$allocator@D@2@@std@@@std@@V?$allocator@U?$pair@EV?$basic_string@DU?$char_traits@D@std@@V?$allocator@D@2@@std@@@std@@@2@@std@@@2@@2@U_tstring_less@@V?$allocator@V?$list@U?$pair@EV?$basic_string@DU?$char_traits@D@std@@V?$allocator@D@2@@std@@@std@@V?$allocator@U?$pair@EV?$basic_string@DU?$char_traits@D@std@@V?$allocator@D@2@@std@@@std@@@2@@std@@@2@@std@@IAEXXZ 0041a290 f i FriendMgr.obj
 0001:00019340       ?_Inc@const_iterator@?$_Tree@V?$basic_string@DU?$char_traits@D@std@@V?$allocator@D@2@@std@@U?$pair@$$CBV?$basic_string@DU?$char_traits@D@std@@V?$allocator@D@2@@std@@V?$list@U?$pair@EV?$basic_string@DU?$char_traits@D@std@@V?$allocator@D@2@@std@@@std@@V?$allocator@U?$pair@EV?$basic_string@DU?$char_traits@D@std@@V?$allocator@D@2@@std@@@std@@@2@@2@@2@U_Kfn@?$map@V?$basic_string@DU?$char_traits@D@std@@V?$allocator@D@2@@std@@V?$list@U?$pair@EV?$basic_string@DU?$char_traits@D@std@@V?$allocator@D@2@@std@@@std@@V?$allocator@U?$pair@EV?$basic_string@DU?$char_traits@D@std@@V?$allocator@D@2@@std@@@std@@@2@@2@U_tstring_less@@V?$allocator@V?$list@U?$pair@EV?$basic_string@DU?$char_traits@D@std@@V?$allocator@D@2@@std@@@std@@V?$allocator@U?$pair@EV?$basic_string@DU?$char_traits@D@std@@V?$allocator@D@2@@std@@@std@@@2@@std@@@2@@2@U_tstring_less@@V?$allocator@V?$list@U?$pair@EV?$basic_string@DU?$char_traits@D@std@@V?$allocator@D@2@@std@@@std@@V?$allocator@U?$pair@EV?$basic_string@DU?$char_traits@D@std@@V?$allocator@D@2@@std@@@std@@@2@@std@@@2@@std@@QAEXXZ 0041a340 f i FriendMgr.obj
 0001:000193f0       ?erase@?$list@V?$basic_string@DU?$char_traits@D@std@@V?$allocator@D@2@@std@@V?$allocator@V?$basic_string@DU?$char_traits@D@std@@V?$allocator@D@2@@std@@@2@@std@@QAE?AViterator@12@V312@@Z 0041a3f0 f i FriendMgr.obj
 0001:00019460       ??0?$pair@Viterator@?$_Tree@V?$basic_string@DU?$char_traits@D@std@@V?$allocator@D@2@@std@@U?$pair@$$CBV?$basic_string@DU?$char_traits@D@std@@V?$allocator@D@2@@std@@V?$list@U?$pair@EV?$basic_string@DU?$char_traits@D@std@@V?$allocator@D@2@@std@@@std51d2c0fe 0041a460 f i FriendMgr.obj
 0001:00019480       ?_Copy@?$_Tree@V?$basic_string@DU?$char_traits@D@std@@V?$allocator@D@2@@std@@U?$pair@$$CBV?$basic_string@DU?$char_traits@D@std@@V?$allocator@D@2@@std@@UFRIENDINFO@CFriendMgr@@@2@U_Kfn@?$map@V?$basic_string@DU?$char_traits@D@std@@V?$allocator@D@2@@std@@UFRIENDINFO@CFriendMgr@@U_tstring_less@@V?$allocator@UFRIENDINFO@CFriendMgr@@@2@@2@U_tstring_less@@V?$allocator@UFRIENDINFO@CFriendMgr@@@2@@std@@IAEPAU_Node@12@PAU312@0@Z 0041a480 f i FriendMgr.obj
 0001:00019590       ?_Lbound@?$_Tree@V?$basic_string@DU?$char_traits@D@std@@V?$allocator@D@2@@std@@U?$pair@$$CBV?$basic_string@DU?$char_traits@D@std@@V?$allocator@D@2@@std@@UFRIENDINFO@CFriendMgr@@@2@U_Kfn@?$map@V?$basic_string@DU?$char_traits@D@std@@V?$allocator@D@2@@std@@UFRIENDINFO@CFriendMgr@@U_tstring_less@@V?$allocator@UFRIENDINFO@CFriendMgr@@@2@@2@U_tstring_less@@V?$allocator@UFRIENDINFO@CFriendMgr@@@2@@std@@IBEPAU_Node@12@ABV?$basic_string@DU?$char_traits@D@std@@V?$allocator@D@2@@2@@Z 0041a590 f i FriendMgr.obj
 0001:00019610       ?_Buynode@?$_Tree@V?$basic_string@DU?$char_traits@D@std@@V?$allocator@D@2@@std@@U?$pair@$$CBV?$basic_string@DU?$char_traits@D@std@@V?$allocator@D@2@@std@@UFRIENDINFO@CFriendMgr@@@2@U_Kfn@?$map@V?$basic_string@DU?$char_traits@D@std@@V?$allocator@D@2@@std@@UFRIENDINFO@CFriendMgr@@U_tstring_less@@V?$allocator@UFRIENDINFO@CFriendMgr@@@2@@2@U_tstring_less@@V?$allocator@UFRIENDINFO@CFriendMgr@@@2@@std@@IAEPAU_Node@12@PAU312@W4_Redbl@12@@Z 0041a610 f i FriendMgr.obj
 0001:00019630       ?_Dec@const_iterator@?$_Tree@V?$basic_string@DU?$char_traits@D@std@@V?$allocator@D@2@@std@@U?$pair@$$CBV?$basic_string@DU?$char_traits@D@std@@V?$allocator@D@2@@std@@UFRIENDINFO@CFriendMgr@@@2@U_Kfn@?$map@V?$basic_string@DU?$char_traits@D@std@@V?$allocator@D@2@@std@@UFRIENDINFO@CFriendMgr@@U_tstring_less@@V?$allocator@UFRIENDINFO@CFriendMgr@@@2@@2@U_tstring_less@@V?$allocator@UFRIENDINFO@CFriendMgr@@@2@@std@@QAEXXZ 0041a630 f i FriendMgr.obj
 0001:000196f0       ?_Lbound@?$_Tree@V?$basic_string@DU?$char_traits@D@std@@V?$allocator@D@2@@std@@U?$pair@$$CBV?$basic_string@DU?$char_traits@D@std@@V?$allocator@D@2@@std@@UPLAYERINFO@CFriendMgr@@@2@U_Kfn@?$map@V?$basic_string@DU?$char_traits@D@std@@V?$allocator@D@2@@std@@UPLAYERINFO@CFriendMgr@@U_tstring_less@@V?$allocator@UPLAYERINFO@CFriendMgr@@@2@@2@U_tstring_less@@V?$allocator@UPLAYERINFO@CFriendMgr@@@2@@std@@IBEPAU_Node@12@ABV?$basic_string@DU?$char_traits@D@std@@V?$allocator@D@2@@2@@Z 0041a6f0 f i FriendMgr.obj
 0001:00019770       ?_Insert@?$_Tree@UADDFRIENDKEY@CFriendMgr@@U?$pair@$$CBUADDFRIENDKEY@CFriendMgr@@UADDFRIENDVALUE@2@@std@@U_Kfn@?$map@UADDFRIENDKEY@CFriendMgr@@UADDFRIENDVALUE@2@U?$less@UADDFRIENDKEY@CFriendMgr@@@std@@V?$allocator@UADDFRIENDVALUE@CFriendMgr@@@5@@4@U?$less@UADDFRIENDKEY@CFriendMgr@@@4@V?$allocator@UADDFRIENDVALUE@CFriendMgr@@@4@@std@@IAE?AViterator@12@PAU_Node@12@0ABU?$pair@$$CBUADDFRIENDKEY@CFriendMgr@@UADDFRIENDVALUE@2@@2@@Z 0041a770 f i FriendMgr.obj
 0001:00019a80       ?_Lbound@?$_Tree@UADDFRIENDKEY@CFriendMgr@@U?$pair@$$CBUADDFRIENDKEY@CFriendMgr@@UADDFRIENDVALUE@2@@std@@U_Kfn@?$map@UADDFRIENDKEY@CFriendMgr@@UADDFRIENDVALUE@2@U?$less@UADDFRIENDKEY@CFriendMgr@@@std@@V?$allocator@UADDFRIENDVALUE@CFriendMgr@@@5@@4@U?$less@UADDFRIENDKEY@CFriendMgr@@@4@V?$allocator@UADDFRIENDVALUE@CFriendMgr@@@4@@std@@IBEPAU_Node@12@ABUADDFRIENDKEY@CFriendMgr@@@Z 0041aa80 f i FriendMgr.obj
 0001:00019b10       ?_Insert@?$_Tree@KU?$pair@$$CBKV?$list@UtagPlusSrcInfo@@V?$allocator@UtagPlusSrcInfo@@@std@@@std@@@std@@U_Kfn@?$map@KV?$list@UtagPlusSrcInfo@@V?$allocator@UtagPlusSrcInfo@@@std@@@std@@U?$less@K@2@V?$allocator@V?$list@UtagPlusSrcInfo@@V?$allocator@UtagPlusSrcInfo@@@std@@@std@@@2@@2@U?$less@K@2@V?$allocator@V?$list@UtagPlusSrcInfo@@V?$allocator@UtagPlusSrcInfo@@@std@@@std@@@2@@std@@IAE?AViterator@12@PAU_Node@12@0ABU?$pair@$$CBKV?$list@UtagPlusSrcInfo@@V?$allocator@UtagPlusSrcInfo@@@std@@@std@@@2@@Z 0041ab10 f i FriendMgr.obj
 0001:00019e10       ?erase@?$list@UtagPlusSrcInfo@@V?$allocator@UtagPlusSrcInfo@@@std@@@std@@QAE?AViterator@12@V312@@Z 0041ae10 f i FriendMgr.obj
 0001:00019e50       ?_Insert@?$_Tree@V?$basic_string@DU?$char_traits@D@std@@V?$allocator@D@2@@std@@U?$pair@$$CBV?$basic_string@DU?$char_traits@D@std@@V?$allocator@D@2@@std@@V?$list@U?$pair@EV?$basic_string@DU?$char_traits@D@std@@V?$allocator@D@2@@std@@@std@@V?$allocator@U?$pair@EV?$basic_string@DU?$char_traits@D@std@@V?$allocator@D@2@@std@@@std@@@2@@2@@2@U_Kfn@?$map@V?$basic_string@DU?$char_traits@D@std@@V?$allocator@D@2@@std@@V?$list@U?$pair@EV?$basic_string@DU?$char_traits@D@std@@V?$allocator@D@2@@std@@@std@@V?$allocator@U?$pair@EV?$basic_string@DU?$char_traits@D@std@@V?$allocator@D@2@@std@@@std@@@2@@2@U_tstring_less@@V?$allocator@V?$list@U?$pair@EV?$basic_string@DU?$char_traits@D@std@@V?$allocator@D@2@@std@@@std@@V?$allocator@U?$pair@EV?$basic_string@DU?$char_traits@D@std@@V?$allocator@D@2@@std@@@std@@@2@@std@@@2@@2@U_tstring_less@@V?$allocator@V?$list@U?$pair@EV?$basic_string@DU?$char_traits@D@std@@V?$allocator@D@2@@std@@@std@@V?$allocator@U?$pair@EV?$basic_string@DU?$char_traits@D@std@@V?$allocator@D@2@@std@@@std@@@2@@std@@@2@@std@@IAE?AViterator@12@PAU_Node@12@0ABU?$pair@$$CBV?$basic_string@DU?$char_traits@D@std@@V?$allocator@D@2@@std@@V?$list@U?$pair@EV?$basic_string@DU?$char_traits@D@std@@V?$allocator@D@2@@std@@@std@@V?$allocator@U?$pair@EV?$basic_string@DU?$char_traits@D@std@@V?$allocator@D@2@@std@@@std@@@2@@2@@2@@Z 0041ae50 f i FriendMgr.obj
 0001:0001a180       ?erase@?$list@U?$pair@EV?$basic_string@DU?$char_traits@D@std@@V?$allocator@D@2@@std@@@std@@V?$allocator@U?$pair@EV?$basic_string@DU?$char_traits@D@std@@V?$allocator@D@2@@std@@@std@@@2@@std@@QAE?AViterator@12@V312@@Z 0041b180 f i FriendMgr.obj
 0001:0001a1c0       ?_Ucopy@?$vector@Viterator@?$_Tree@V?$basic_string@DU?$char_traits@D@std@@V?$allocator@D@2@@std@@U?$pair@$$CBV?$basic_string@DU?$char_traits@D@std@@V?$allocator@D@2@@std@@UPLAYERINFO@CFriendMgr@@@2@U_Kfn@?$map@V?$basic_string@DU?$char_traits@D@std@@V?$allocator@D@2@@std@@UPLAYERINFO@CFriendMgr@@U_tstring_less@@V?$allocator@UPLAYERINFO@CFriendMgr@@@2@@2@U_tstring_less@@V?$allocator@UPLAYERINFO@CFriendMgr@@@2@@std@@V?$allocator@Viterator@?$_Tree@V?$basic_string@DU?$char_traits@D@std@@V?$allocator@D@2@@std@@U?$pair@$$CBV?$basic_string@DU?$char_traits@D@std@@V?$allocator@D@2@@std@@UPLAYERINFO@CFriendMgr@@@2@U_Kfn@?$map@V?$basic_string@DU?$char_traits@D@std@@V?$allocator@D@2@@std@@UPLAYERINFO@CFriendMgr@@U_tstring_less@@V?$allocator@UPLAYERINFO@CFriendMgr@@@2@@2@U_tstring_less@@V?$allocator@UPLAYERINFO@CFriendMgr@@@2@@std@@@3@@std@@IAEPAViterator@?$_Tree@V?$basic_string@DU?$char_traits@D@std@@V?$allocator@D@2@@std@@U?$pair@$$CBV?$basic_string@DU?$char_traits@D@std@@V?$allocator@D@2@@std@@UPLAYERINFO@CFriendMgr@@@2@U_Kfn@?$map@V?$basic_string@DU?$char_traits@D@std@@V?$allocator@D@2@@std@@UPLAYERINFO@CFriendMgr@@U_tstring_less@@V?$allocator@UPLAYERINFO@CFriendMgr@@@2@@2@U_tstring_less@@V?$allocator@UPLAYERINFO@CFriendMgr@@@2@@2@PBV342@0PAV342@@Z 0041b1c0 f i FriendMgr.obj
 0001:0001a1f0       ?_Ufill@?$vector@Viterator@?$_Tree@V?$basic_string@DU?$char_traits@D@std@@V?$allocator@D@2@@std@@U?$pair@$$CBV?$basic_string@DU?$char_traits@D@std@@V?$allocator@D@2@@std@@UPLAYERINFO@CFriendMgr@@@2@U_Kfn@?$map@V?$basic_string@DU?$char_traits@D@std@@V?$allocator@D@2@@std@@UPLAYERINFO@CFriendMgr@@U_tstring_less@@V?$allocator@UPLAYERINFO@CFriendMgr@@@2@@2@U_tstring_less@@V?$allocator@UPLAYERINFO@CFriendMgr@@@2@@std@@V?$allocator@Viterator@?$_Tree@V?$basic_string@DU?$char_traits@D@std@@V?$allocator@D@2@@std@@U?$pair@$$CBV?$basic_string@DU?$char_traits@D@std@@V?$allocator@D@2@@std@@UPLAYERINFO@CFriendMgr@@@2@U_Kfn@?$map@V?$basic_string@DU?$char_traits@D@std@@V?$allocator@D@2@@std@@UPLAYERINFO@CFriendMgr@@U_tstring_less@@V?$allocator@UPLAYERINFO@CFriendMgr@@@2@@2@U_tstring_less@@V?$allocator@UPLAYERINFO@CFriendMgr@@@2@@std@@@3@@std@@IAEXPAViterator@?$_Tree@V?$basic_string@DU?$char_traits@D@std@@V?$allocator@D@2@@std@@U?$pair@$$CBV?$basic_string@DU?$char_traits@D@std@@V?$allocator@D@2@@std@@UPLAYERINFO@CFriendMgr@@@2@U_Kfn@?$map@V?$basic_string@DU?$char_traits@D@std@@V?$allocator@D@2@@std@@UPLAYERINFO@CFriendMgr@@U_tstring_less@@V?$allocator@UPLAYERINFO@CFriendMgr@@@2@@2@U_tstring_less@@V?$allocator@UPLAYERINFO@CFriendMgr@@@2@@2@IABV342@@Z 0041b1f0 f i FriendMgr.obj
 0001:0001a220       ?_Ubound@?$_Tree@V?$basic_string@DU?$char_traits@D@std@@V?$allocator@D@2@@std@@U?$pair@$$CBV?$basic_string@DU?$char_traits@D@std@@V?$allocator@D@2@@std@@UFRIENDINFO@CFriendMgr@@@2@U_Kfn@?$map@V?$basic_string@DU?$char_traits@D@std@@V?$allocator@D@2@@std@@UFRIENDINFO@CFriendMgr@@U_tstring_less@@V?$allocator@UFRIENDINFO@CFriendMgr@@@2@@2@U_tstring_less@@V?$allocator@UFRIENDINFO@CFriendMgr@@@2@@std@@IBEPAU_Node@12@ABV?$basic_string@DU?$char_traits@D@std@@V?$allocator@D@2@@2@@Z 0041b220 f i FriendMgr.obj
 0001:0001a2a0       ?_Dec@const_iterator@?$_Tree@UADDFRIENDKEY@CFriendMgr@@U?$pair@$$CBUADDFRIENDKEY@CFriendMgr@@UADDFRIENDVALUE@2@@std@@U_Kfn@?$map@UADDFRIENDKEY@CFriendMgr@@UADDFRIENDVALUE@2@U?$less@UADDFRIENDKEY@CFriendMgr@@@std@@V?$allocator@UADDFRIENDVALUE@CFriendMgr@@@5@@4@U?$less@UADDFRIENDKEY@CFriendMgr@@@4@V?$allocator@UADDFRIENDVALUE@CFriendMgr@@@4@@std@@QAEXXZ 0041b2a0 f i FriendMgr.obj
 0001:0001a360       ?_Inc@const_iterator@?$_Tree@UADDFRIENDKEY@CFriendMgr@@U?$pair@$$CBUADDFRIENDKEY@CFriendMgr@@UADDFRIENDVALUE@2@@std@@U_Kfn@?$map@UADDFRIENDKEY@CFriendMgr@@UADDFRIENDVALUE@2@U?$less@UADDFRIENDKEY@CFriendMgr@@@std@@V?$allocator@UADDFRIENDVALUE@CFriendMgr@@@5@@4@U?$less@UADDFRIENDKEY@CFriendMgr@@@4@V?$allocator@UADDFRIENDVALUE@CFriendMgr@@@4@@std@@QAEXXZ 0041b360 f i FriendMgr.obj
 0001:0001a410       ?_Dec@const_iterator@?$_Tree@KU?$pair@$$CBKV?$list@UtagPlusSrcInfo@@V?$allocator@UtagPlusSrcInfo@@@std@@@std@@@std@@U_Kfn@?$map@KV?$list@UtagPlusSrcInfo@@V?$allocator@UtagPlusSrcInfo@@@std@@@std@@U?$less@K@2@V?$allocator@V?$list@UtagPlusSrcInfo@@V?$allocator@UtagPlusSrcInfo@@@std@@@std@@@2@@2@U?$less@K@2@V?$allocator@V?$list@UtagPlusSrcInfo@@V?$allocator@UtagPlusSrcInfo@@@std@@@std@@@2@@std@@QAEXXZ 0041b410 f i FriendMgr.obj
 0001:0001a4d0       ?_Dec@const_iterator@?$_Tree@V?$basic_string@DU?$char_traits@D@std@@V?$allocator@D@2@@std@@U?$pair@$$CBV?$basic_string@DU?$char_traits@D@std@@V?$allocator@D@2@@std@@V?$list@U?$pair@EV?$basic_string@DU?$char_traits@D@std@@V?$allocator@D@2@@std@@@std@@V?$allocator@U?$pair@EV?$basic_string@DU?$char_traits@D@std@@V?$allocator@D@2@@std@@@std@@@2@@2@@2@U_Kfn@?$map@V?$basic_string@DU?$char_traits@D@std@@V?$allocator@D@2@@std@@V?$list@U?$pair@EV?$basic_string@DU?$char_traits@D@std@@V?$allocator@D@2@@std@@@std@@V?$allocator@U?$pair@EV?$basic_string@DU?$char_traits@D@std@@V?$allocator@D@2@@std@@@std@@@2@@2@U_tstring_less@@V?$allocator@V?$list@U?$pair@EV?$basic_string@DU?$char_traits@D@std@@V?$allocator@D@2@@std@@@std@@V?$allocator@U?$pair@EV?$basic_string@DU?$char_traits@D@std@@V?$allocator@D@2@@std@@@std@@@2@@std@@@2@@2@U_tstring_less@@V?$allocator@V?$list@U?$pair@EV?$basic_string@DU?$char_traits@D@std@@V?$allocator@D@2@@std@@@std@@V?$allocator@U?$pair@EV?$basic_string@DU?$char_traits@D@std@@V?$allocator@D@2@@std@@@std@@@2@@std@@@2@@std@@QAEXXZ 0041b4d0 f i FriendMgr.obj
 0001:0001a590       ?_Distance@std@@YAXViterator@?$_Tree@V?$basic_string@DU?$char_traits@D@std@@V?$allocator@D@2@@std@@U?$pair@$$CBV?$basic_string@DU?$char_traits@D@std@@V?$allocator@D@2@@std@@UFRIENDINFO@CFriendMgr@@@2@U_Kfn@?$map@V?$basic_string@DU?$char_traits@D@std@@V?$allocator@D@2@@std@@UFRIENDINFO@CFriendMgr@@U_tstring_less@@V?$allocator@UFRIENDINFO@CFriendMgr@@@2@@2@U_tstring_less@@V?$allocator@UFRIENDINFO@CFriendMgr@@@2@@1@0AAI@Z 0041b590 f i FriendMgr.obj
 0001:0001a5c0       ?_Construct@std@@YAXPAUMEM_FRIENDRECORD@CFriendMgr@@ABU23@@Z 0041b5c0 f i FriendMgr.obj
 0001:0001a710       ?_Construct@std@@YAXPAU?$pair@EV?$basic_string@DU?$char_traits@D@std@@V?$allocator@D@2@@std@@@1@ABU21@@Z 0041b710 f i FriendMgr.obj
 0001:0001a880       ?_Construct@std@@YAXPAUONEPLAYER@CFriendMgr@@ABU23@@Z 0041b880 f i FriendMgr.obj
 0001:0001a960       ?_Construct@std@@YAXPAV?$basic_string@DU?$char_traits@D@std@@V?$allocator@D@2@@1@ABV21@@Z 0041b960 f i FriendMgr.obj
 0001:0001aad0       ?_Construct@std@@YAXPAU?$pair@$$CBV?$basic_string@DU?$char_traits@D@std@@V?$allocator@D@2@@std@@UFRIENDINFO@CFriendMgr@@@1@ABU21@@Z 0041bad0 f i FriendMgr.obj
 0001:0001ac20       ?_Construct@std@@YAXPAU?$pair@$$CBV?$basic_string@DU?$char_traits@D@std@@V?$allocator@D@2@@std@@UPLAYERINFO@CFriendMgr@@@1@ABU21@@Z 0041bc20 f i FriendMgr.obj
 0001:0001ad90       ?_Max@?$_Tree@V?$basic_string@DU?$char_traits@D@std@@V?$allocator@D@2@@std@@U?$pair@$$CBV?$basic_string@DU?$char_traits@D@std@@V?$allocator@D@2@@std@@UFRIENDINFO@CFriendMgr@@@2@U_Kfn@?$map@V?$basic_string@DU?$char_traits@D@std@@V?$allocator@D@2@@std@@UFRIENDINFO@CFriendMgr@@U_tstring_less@@V?$allocator@UFRIENDINFO@CFriendMgr@@@2@@2@U_tstring_less@@V?$allocator@UFRIENDINFO@CFriendMgr@@@2@@std@@KAPAU_Node@12@PAU312@@Z 0041bd90 f i FriendMgr.obj
 0001:0001add0       ?_Min@?$_Tree@V?$basic_string@DU?$char_traits@D@std@@V?$allocator@D@2@@std@@U?$pair@$$CBV?$basic_string@DU?$char_traits@D@std@@V?$allocator@D@2@@std@@UFRIENDINFO@CFriendMgr@@@2@U_Kfn@?$map@V?$basic_string@DU?$char_traits@D@std@@V?$allocator@D@2@@std@@UFRIENDINFO@CFriendMgr@@U_tstring_less@@V?$allocator@UFRIENDINFO@CFriendMgr@@@2@@2@U_tstring_less@@V?$allocator@UFRIENDINFO@CFriendMgr@@@2@@std@@KAPAU_Node@12@PAU312@@Z 0041bdd0 f i FriendMgr.obj
 0001:0001ae10       ?_Construct@std@@YAXPAU?$pair@$$CBUADDFRIENDKEY@CFriendMgr@@UADDFRIENDVALUE@2@@1@ABU21@@Z 0041be10 f i FriendMgr.obj
 0001:0001af60       ?_Construct@std@@YAXPAU?$pair@$$CBKV?$list@UtagPlusSrcInfo@@V?$allocator@UtagPlusSrcInfo@@@std@@@std@@@1@ABU21@@Z 0041bf60 f i FriendMgr.obj
 0001:0001b030       ?_Construct@std@@YAXPAU?$pair@$$CBV?$basic_string@DU?$char_traits@D@std@@V?$allocator@D@2@@std@@V?$list@U?$pair@EV?$basic_string@DU?$char_traits@D@std@@V?$allocator@D@2@@std@@@std@@V?$allocator@U?$pair@EV?$basic_string@DU?$char_traits@D@std@@V?$allocator@D@2@@std@@@std@@@2@@2@@1@ABU21@@Z 0041c030 f i FriendMgr.obj
 0001:0001b110       ?_Construct@std@@YAXPAViterator@?$_Tree@V?$basic_string@DU?$char_traits@D@std@@V?$allocator@D@2@@std@@U?$pair@$$CBV?$basic_string@DU?$char_traits@D@std@@V?$allocator@D@2@@std@@UPLAYERINFO@CFriendMgr@@@2@U_Kfn@?$map@V?$basic_string@DU?$char_traits@D@std@@V?$allocator@D@2@@std@@UPLAYERINFO@CFriendMgr@@U_tstring_less@@V?$allocator@UPLAYERINFO@CFriendMgr@@@2@@2@U_tstring_less@@V?$allocator@UPLAYERINFO@CFriendMgr@@@2@@1@ABV231@@Z 0041c110 f i FriendMgr.obj
 0001:0001b130       ??_GONEPLAYER@CFriendMgr@@QAEPAXI@Z 0041c130 f i FriendMgr.obj
 0001:0001b180       ??0CGatewayCenter@@QAE@XZ  0041c180 f   GatewayCenter.obj
 0001:0001b1a0       ??_ECGatewayCenter@@UAEPAXI@Z 0041c1a0 f i GatewayCenter.obj
 0001:0001b1a0       ??_GCGatewayCenter@@UAEPAXI@Z 0041c1a0 f i GatewayCenter.obj
 0001:0001b1c0       ??1CGatewayCenter@@UAE@XZ  0041c1c0 f   GatewayCenter.obj
 0001:0001b1d0       ?TraceInfo@CGatewayCenter@@QAEHXZ 0041c1d0 f   GatewayCenter.obj
 0001:0001b400       ??0CGatewayClient@@QAE@PAVCGatewayCenter@@H@Z 0041c400 f   GatewayClient.obj
 0001:0001b4f0       ??_ECGatewayClient@@UAEPAXI@Z 0041c4f0 f i GatewayClient.obj
 0001:0001b4f0       ??_GCGatewayClient@@UAEPAXI@Z 0041c4f0 f i GatewayClient.obj
 0001:0001b510       ??1?$map@GUASKWAYMAP@CGatewayClient@@U?$less@G@std@@V?$allocator@UASKWAYMAP@CGatewayClient@@@4@@std@@QAE@XZ 0041c510 f i GatewayClient.obj
 0001:0001b580       ??1CGatewayClient@@UAE@XZ  0041c580 f   GatewayClient.obj
 0001:0001b640       ?RecvPackage@CGatewayClient@@MAEXPBXI@Z 0041c640 f   GatewayClient.obj
 0001:0001b660       ?OnServerEventCreate@CGatewayClient@@MAEXXZ 0041c660 f   GatewayClient.obj
 0001:0001b690       ?OnServerEventClose@CGatewayClient@@MAEXXZ 0041c690 f   GatewayClient.obj
 0001:0001b860       ?Proc0_NotifySvrIP@CGatewayClient@@AAEXPBXI@Z 0041c860 f   GatewayClient.obj
 0001:0001ba00       ?PassAskWayMap@CGatewayClient@@QAEHKPBURELAY_ASKWAY_DATA@@@Z 0041ca00 f   GatewayClient.obj
 0001:0001bc00       ?insert@?$_Tree@GU?$pair@$$CBGUASKWAYMAP@CGatewayClient@@@std@@U_Kfn@?$map@GUASKWAYMAP@CGatewayClient@@U?$less@G@std@@V?$allocator@UASKWAYMAP@CGatewayClient@@@4@@2@U?$less@G@2@V?$allocator@UASKWAYMAP@CGatewayClient@@@2@@std@@QAE?AU?$pair@Viterator@?$_Tree@GU?$pair@$$CBGUASKWAYMAP@CGatewayClient@@@std@@U_Kfn@?$map@GUASKWAYMAP@CGatewayClient@@U?$less@G@std@@V?$allocator@UASKWAYMAP@CGatewayClient@@@4@@2@U?$less@G@2@V?$allocator@UASKWAYMAP@CGatewayClient@@@2@@std@@_N@2@ABU?$pair@$$CBGUASKWAYMAP@CGatewayClient@@@2@@Z 0041cc00 f i GatewayClient.obj
 0001:0001bd30       ?erase@?$_Tree@GU?$pair@$$CBGUASKWAYMAP@CGatewayClient@@@std@@U_Kfn@?$map@GUASKWAYMAP@CGatewayClient@@U?$less@G@std@@V?$allocator@UASKWAYMAP@CGatewayClient@@@4@@2@U?$less@G@2@V?$allocator@UASKWAYMAP@CGatewayClient@@@2@@std@@QAE?AViterator@12@V312@@Z 0041cd30 f i GatewayClient.obj
 0001:0001c250       ?erase@?$_Tree@GU?$pair@$$CBGUASKWAYMAP@CGatewayClient@@@std@@U_Kfn@?$map@GUASKWAYMAP@CGatewayClient@@U?$less@G@std@@V?$allocator@UASKWAYMAP@CGatewayClient@@@4@@2@U?$less@G@2@V?$allocator@UASKWAYMAP@CGatewayClient@@@2@@std@@QAE?AViterator@12@V312@0@Z 0041d250 f i GatewayClient.obj
 0001:0001c380       ?find@?$_Tree@GU?$pair@$$CBGUASKWAYMAP@CGatewayClient@@@std@@U_Kfn@?$map@GUASKWAYMAP@CGatewayClient@@U?$less@G@std@@V?$allocator@UASKWAYMAP@CGatewayClient@@@4@@2@U?$less@G@2@V?$allocator@UASKWAYMAP@CGatewayClient@@@2@@std@@QAE?AViterator@12@ABG@Z 0041d380 f i GatewayClient.obj
 0001:0001c3d0       ?_Erase@?$_Tree@GU?$pair@$$CBGUASKWAYMAP@CGatewayClient@@@std@@U_Kfn@?$map@GUASKWAYMAP@CGatewayClient@@U?$less@G@std@@V?$allocator@UASKWAYMAP@CGatewayClient@@@4@@2@U?$less@G@2@V?$allocator@UASKWAYMAP@CGatewayClient@@@2@@std@@IAEXPAU_Node@12@@Z 0041d3d0 f i GatewayClient.obj
 0001:0001c460       ?_Insert@?$_Tree@GU?$pair@$$CBGUASKWAYMAP@CGatewayClient@@@std@@U_Kfn@?$map@GUASKWAYMAP@CGatewayClient@@U?$less@G@std@@V?$allocator@UASKWAYMAP@CGatewayClient@@@4@@2@U?$less@G@2@V?$allocator@UASKWAYMAP@CGatewayClient@@@2@@std@@IAE?AViterator@12@PAU_Node@12@0ABU?$pair@$$CBGUASKWAYMAP@CGatewayClient@@@2@@Z 0041d460 f i GatewayClient.obj
 0001:0001c760       ?_Inc@const_iterator@?$_Tree@GU?$pair@$$CBGUASKWAYMAP@CGatewayClient@@@std@@U_Kfn@?$map@GUASKWAYMAP@CGatewayClient@@U?$less@G@std@@V?$allocator@UASKWAYMAP@CGatewayClient@@@4@@2@U?$less@G@2@V?$allocator@UASKWAYMAP@CGatewayClient@@@2@@std@@QAEXXZ 0041d760 f i GatewayClient.obj
 0001:0001c810       ?_Lbound@?$_Tree@GU?$pair@$$CBGUASKWAYMAP@CGatewayClient@@@std@@U_Kfn@?$map@GUASKWAYMAP@CGatewayClient@@U?$less@G@std@@V?$allocator@UASKWAYMAP@CGatewayClient@@@4@@2@U?$less@G@2@V?$allocator@UASKWAYMAP@CGatewayClient@@@2@@std@@IBEPAU_Node@12@ABG@Z 0041d810 f i GatewayClient.obj
 0001:0001c860       ?_Dec@const_iterator@?$_Tree@GU?$pair@$$CBGUASKWAYMAP@CGatewayClient@@@std@@U_Kfn@?$map@GUASKWAYMAP@CGatewayClient@@U?$less@G@std@@V?$allocator@UASKWAYMAP@CGatewayClient@@@4@@2@U?$less@G@2@V?$allocator@UASKWAYMAP@CGatewayClient@@@2@@std@@QAEXXZ 0041d860 f i GatewayClient.obj
 0001:0001c920       ?_Construct@std@@YAXPAU?$pair@$$CBGUASKWAYMAP@CGatewayClient@@@1@ABU21@@Z 0041d920 f i GatewayClient.obj
 0001:0001ce30       ?gGetLocateDirectory@@YA?AV?$basic_string@DU?$char_traits@D@std@@V?$allocator@D@2@@std@@XZ 0041de30 f   Global.obj
 0001:0001cf90       ??0_LOCALDIR@?1??gGetLocateDirectory@@YA?AV?$basic_string@DU?$char_traits@D@std@@V?$allocator@D@2@@std@@XZ@QAE@XZ 0041df90 f   Global.obj
 0001:0001d0c0       ??1_LOCALDIR@?1??gGetLocateDirectory@@YA?AV?$basic_string@DU?$char_traits@D@std@@V?$allocator@D@2@@std@@XZ@QAE@XZ 0041e0c0 f i Global.obj
 0001:0001d100       ?gGetPrivateProfileStringEx@@YA?AV?$basic_string@DU?$char_traits@D@std@@V?$allocator@D@2@@std@@PBD000@Z 0041e100 f   Global.obj
 0001:0001d270       ?gGetPrivateProfileIntEx@@YAHPBD00H@Z 0041e270 f   Global.obj
 0001:0001d340       ?gGetPrivateProfileCharEx@@YADPBD00D@Z 0041e340 f   Global.obj
 0001:0001d470       ?gGetPrivateProfileSectionEx@@YAABV?$vector@V?$basic_string@DU?$char_traits@D@std@@V?$allocator@D@2@@std@@V?$allocator@V?$basic_string@DU?$char_traits@D@std@@V?$allocator@D@2@@std@@@2@@std@@PBD0@Z 0041e470 f   Global.obj
 0001:0001d6c0       ?gGetPrivateProfileSectionNamesEx@@YAABV?$vector@V?$basic_string@DU?$char_traits@D@std@@V?$allocator@D@2@@std@@V?$allocator@V?$basic_string@DU?$char_traits@D@std@@V?$allocator@D@2@@std@@@2@@std@@PBD@Z 0041e6c0 f   Global.obj
 0001:0001d910       ?gInitialize@@YAHXZ        0041e910 f   Global.obj
 0001:0001e130       ?gUninitialize@@YAHXZ      0041f130 f   Global.obj
 0001:0001e270       ?gIsLocalIP@@YAHK@Z        0041f270 f   Global.obj
 0001:0001e290       ?gGetHostMac@@YAPBEHPAI@Z  0041f290 f   Global.obj
 0001:0001e2f0       ??0_MACSTORE@?1??gGetHostMac@@YAPBEHPAI@Z@QAE@XZ 0041f2f0 f   Global.obj
 0001:0001e500       ?gGetHostIP@@YAKH@Z        0041f500 f   Global.obj
 0001:0001e550       ??0_IPSTORE@?1??gGetHostIP@@YAKH@Z@QAE@XZ 0041f550 f   Global.obj
 0001:0001e720       ?gConnectToSibling@@YAHPBD@Z 0041f720 f   Global.obj
 0001:0001e7d0       ?gFillClntwayPckg@@YAIKKPBURELAY_ASKWAY_DATA@@IPAU1@I@Z 0041f7d0 f   Global.obj
 0001:0001e870       ?gFillLosewayPckg@@YAIKKPBXIPAXI@Z 0041f870 f   Global.obj
 0001:0001e8d0       ?gIsLegalString@@YAHPBDII@Z 0041f8d0 f   Global.obj
 0001:0001e910       ?g_String2Id@@YAKPBD@Z     0041f910 f   Global.obj
 0001:0001e960       ?gOnOneClientCreate@@YAHW4ONECLIENT@@@Z 0041f960 f   Global.obj
 0001:0001ea30       ?gOnOneClientClose@@YAHW4ONECLIENT@@@Z 0041fa30 f   Global.obj
 0001:0001eba0       ?gReOneClient@@YAHW4ONECLIENT@@@Z 0041fba0 f   Global.obj
 0001:0001eef0       ?gConsignClientSD@@YAHPAUIClient@@@Z 0041fef0 f   Global.obj
 0001:0001ef30       ?gStartFriendTimingUpdateDB@@YAHI@Z 0041ff30 f   Global.obj
 0001:0001ef80       ?gStopFriendTimingUpdateDB@@YAHXZ 0041ff80 f   Global.obj
 0001:0001efc0       ?gFriendTimingUpdateDB@@YAHXZ 0041ffc0 f   Global.obj
 0001:0001f000       ?_Destroy@?$vector@V?$basic_string@DU?$char_traits@D@std@@V?$allocator@D@2@@std@@V?$allocator@V?$basic_string@DU?$char_traits@D@std@@V?$allocator@D@2@@std@@@2@@std@@IAEXPAV?$basic_string@DU?$char_traits@D@std@@V?$allocator@D@2@@2@0@Z 00420000 f i Global.obj
 0001:0001f050       ?insert@?$vector@V?$basic_string@DU?$char_traits@D@std@@V?$allocator@D@2@@std@@V?$allocator@V?$basic_string@DU?$char_traits@D@std@@V?$allocator@D@2@@std@@@2@@std@@QAEXPAV?$basic_string@DU?$char_traits@D@std@@V?$allocator@D@2@@2@IABV32@@Z 00420050 f i Global.obj
 0001:0001f310       ??Hstd@@YA?AV?$basic_string@DU?$char_traits@D@std@@V?$allocator@D@2@@0@ABV10@PBD@Z 00420310 f i Global.obj
 0001:0001f440       ?copy@std@@YAPAV?$basic_string@DU?$char_traits@D@std@@V?$allocator@D@2@@1@PAV21@00@Z 00420440 f i Global.obj
 0001:0001f5d0       ??0CHeavenLib@@QAE@XZ      004205d0 f   HeavenLib.obj
 0001:0001f5f0       ??_ECHeavenLib@@UAEPAXI@Z  004205f0 f i HeavenLib.obj
 0001:0001f5f0       ??_GCHeavenLib@@UAEPAXI@Z  004205f0 f i HeavenLib.obj
 0001:0001f610       ??1CHeavenLib@@UAE@XZ      00420610 f   HeavenLib.obj
 0001:0001f620       ?Initialize@CHeavenLib@@QAEHXZ 00420620 f   HeavenLib.obj
 0001:0001f660       ?Uninitialize@CHeavenLib@@QAEHXZ 00420660 f   HeavenLib.obj
 0001:0001f690       ?CreateInterface@CHeavenLib@@QAEJABU_GUID@@PAPAX@Z 00420690 f   HeavenLib.obj
 0001:0001f6e0       ??0CHostConnect@@QAE@PAVCHostServer@@K@Z 004206e0 f   HostConnect.obj
 0001:0001f8e0       ??_ECHostConnect@@UAEPAXI@Z 004208e0 f i HostConnect.obj
 0001:0001f8e0       ??_GCHostConnect@@UAEPAXI@Z 004208e0 f i HostConnect.obj
 0001:0001f900       ??1?$map@V?$basic_string@DU?$char_traits@D@std@@V?$allocator@D@2@@std@@UACCINFO@CHostConnect@@U_tstring_iless@@V?$allocator@UACCINFO@CHostConnect@@@2@@std@@QAE@XZ 00420900 f i HostConnect.obj
 0001:0001f970       ??1?$map@V?$basic_string@DU?$char_traits@D@std@@V?$allocator@D@2@@std@@UROLEINFO@CHostConnect@@U_tstring_less@@V?$allocator@UROLEINFO@CHostConnect@@@2@@std@@QAE@XZ 00420970 f i HostConnect.obj
 0001:0001f9e0       ??1?$map@KUPARAMINFO@CHostConnect@@U?$less@K@std@@V?$allocator@UPARAMINFO@CHostConnect@@@4@@std@@QAE@XZ 004209e0 f i HostConnect.obj
 0001:0001fa50       ??1CHostConnect@@UAE@XZ    00420a50 f   HostConnect.obj
 0001:0001fbe0       ?RecvPackage@CHostConnect@@MAEXPBXI@Z 00420be0 f   HostConnect.obj
 0001:0001fc20       ?Proc0_Normal@CHostConnect@@AAEXPBXI@Z 00420c20 f   HostConnect.obj
 0001:0001fc50       ?Proc1_Normal_EnterGame@CHostConnect@@AAEXPBXI@Z 00420c50 f   HostConnect.obj
 0001:00020070       ??0ACCINFO@CHostConnect@@QAE@XZ 00421070 f i HostConnect.obj
 0001:00020090       ??1ACCINFO@CHostConnect@@QAE@XZ 00421090 f i HostConnect.obj
 0001:000200d0       ??0ROLEINFO@CHostConnect@@QAE@XZ 004210d0 f i HostConnect.obj
 0001:000200f0       ??1ROLEINFO@CHostConnect@@QAE@XZ 004210f0 f i HostConnect.obj
 0001:00020130       ??0PARAMINFO@CHostConnect@@QAE@XZ 00421130 f i HostConnect.obj
 0001:00020160       ??1PARAMINFO@CHostConnect@@QAE@XZ 00421160 f i HostConnect.obj
 0001:000201d0       ?Proc1_Normal_LeaveGame@CHostConnect@@AAEXPBXI@Z 004211d0 f   HostConnect.obj
 0001:000203b0       ?Proc0_Relay@CHostConnect@@AAEXPBXI@Z 004213b0 f   HostConnect.obj
 0001:000203f0       ?Proc1_Relay_Data@CHostConnect@@AAEXPBXI@Z 004213f0 f   HostConnect.obj
 0001:000205d0       ?Proc1_Relay_AskWay@CHostConnect@@AAEXPBXI@Z 004215d0 f   HostConnect.obj
 0001:00020630       ?Proc1_Relay_LoseWay@CHostConnect@@AAEXPBXI@Z 00421630 f   HostConnect.obj
 0001:000207a0       ?Proc2_Relay_AskWay_AccountRoleID@CHostConnect@@AAEXPBXIH@Z 004217a0 f   HostConnect.obj
 0001:00020a30       ?Proc2_Relay_AskWay_MapID@CHostConnect@@AAEXPBXI@Z 00421a30 f   HostConnect.obj
 0001:00020a70       ?Proc2_Relay_AskWay_GM@CHostConnect@@AAEXPBXI@Z 00421a70 f   HostConnect.obj
 0001:00020b10       ?Proc0_PlayerCommunity@CHostConnect@@AAEXPBXI@Z 00421b10 f   HostConnect.obj
 0001:00020b50       ?Proc1_PlayerCommunity_QueryChannelID@CHostConnect@@AAEXPBXI@Z 00421b50 f   HostConnect.obj
 0001:00020ce0       ?Proc1_PlayerCommunity_FreeChannelID@CHostConnect@@AAEXPBXI@Z 00421ce0 f   HostConnect.obj
 0001:00020d10       ?Proc1_PlayerCommunity_Subscribe@CHostConnect@@AAEXPBXI@Z 00421d10 f   HostConnect.obj
 0001:00020d60       ?OnClientConnectCreate@CHostConnect@@MAEXXZ 00421d60 f   HostConnect.obj
 0001:00020d80       ?OnClientConnectClose@CHostConnect@@MAEXXZ 00421d80 f   HostConnect.obj
 0001:00020e20       ?FindPlayerByAcc@CHostConnect@@QAEHABV?$basic_string@DU?$char_traits@D@std@@V?$allocator@D@2@@std@@PAV23@PAK21@Z 00421e20 f   HostConnect.obj
 0001:00021000       ??R_tstring_iless@@QBE_NABV?$basic_string@DU?$char_traits@D@std@@V?$allocator@D@2@@std@@0@Z 00422000 f i HostConnect.obj
 0001:00021050       ?FindPlayerByRole@CHostConnect@@QAEHABV?$basic_string@DU?$char_traits@D@std@@V?$allocator@D@2@@std@@PAV23@PAK21@Z 00422050 f   HostConnect.obj
 0001:00021230       ?FindPlayerByParam@CHostConnect@@QAEHKPAV?$basic_string@DU?$char_traits@D@std@@V?$allocator@D@2@@std@@0PAK@Z 00422230 f   HostConnect.obj
 0001:00021420       ?PrepareRecvs@CHostConnect@@MAEXXZ 00422420 f   HostConnect.obj
 0001:00021430       ?UnprepareRecvs@CHostConnect@@MAEXXZ 00422430 f   HostConnect.obj
 0001:00021440       ?GetPlayerCount@CHostConnect@@QAEIXZ 00422440 f   HostConnect.obj
 0001:00021450       ??1?$pair@$$CBV?$basic_string@DU?$char_traits@D@std@@V?$allocator@D@2@@std@@UACCINFO@CHostConnect@@@std@@QAE@XZ 00422450 f i HostConnect.obj
 0001:000214c0       ??1?$pair@$$CBV?$basic_string@DU?$char_traits@D@std@@V?$allocator@D@2@@std@@UROLEINFO@CHostConnect@@@std@@QAE@XZ 004224c0 f i HostConnect.obj
 0001:00021530       ??1?$pair@$$CBKUPARAMINFO@CHostConnect@@@std@@QAE@XZ 00422530 f i HostConnect.obj
 0001:000215a0       ?insert@?$map@V?$basic_string@DU?$char_traits@D@std@@V?$allocator@D@2@@std@@UACCINFO@CHostConnect@@U_tstring_iless@@V?$allocator@UACCINFO@CHostConnect@@@2@@std@@QAE?AU?$pair@Viterator@?$_Tree@V?$basic_string@DU?$char_traits@D@std@@V?$allocator@D@2@@std@@U?$pair@$$CBV?$basic_string@DU?$char_traits@D@std@@V?$allocator@D@2@@std@@UACCINFO@CHostConnect@@@2@U_Kfn@?$map@V?$basic_string@DU?$char_traits@D@std@@V?$allocator@D@2@@std@@UACCINFO@CHostConnect@@U_tstring_iless@@V?$allocator@UACCINFO@CHostConnect@@@2@@2@U_tstring_iless@@V?$allocator@UACCINFO@CHostConnect@@@2@@std@@_N@2@ABU?$pair@$$CBV?$basic_string@DU?$char_traits@D@std@@V?$allocator@D@2@@std@@UACCINFO@CHostConnect@@@2@@Z 004225a0 f i HostConnect.obj
 0001:000215d0       ?erase@?$_Tree@V?$basic_string@DU?$char_traits@D@std@@V?$allocator@D@2@@std@@U?$pair@$$CBV?$basic_string@DU?$char_traits@D@std@@V?$allocator@D@2@@std@@UACCINFO@CHostConnect@@@2@U_Kfn@?$map@V?$basic_string@DU?$char_traits@D@std@@V?$allocator@D@2@@std@@UACCINFO@CHostConnect@@U_tstring_iless@@V?$allocator@UACCINFO@CHostConnect@@@2@@2@U_tstring_iless@@V?$allocator@UACCINFO@CHostConnect@@@2@@std@@QAE?AViterator@12@V312@@Z 004225d0 f i HostConnect.obj
 0001:00021b40       ?erase@?$_Tree@V?$basic_string@DU?$char_traits@D@std@@V?$allocator@D@2@@std@@U?$pair@$$CBV?$basic_string@DU?$char_traits@D@std@@V?$allocator@D@2@@std@@UACCINFO@CHostConnect@@@2@U_Kfn@?$map@V?$basic_string@DU?$char_traits@D@std@@V?$allocator@D@2@@std@@UACCINFO@CHostConnect@@U_tstring_iless@@V?$allocator@UACCINFO@CHostConnect@@@2@@2@U_tstring_iless@@V?$allocator@UACCINFO@CHostConnect@@@2@@std@@QAE?AViterator@12@V312@0@Z 00422b40 f i HostConnect.obj
 0001:00021c80       ?find@?$_Tree@V?$basic_string@DU?$char_traits@D@std@@V?$allocator@D@2@@std@@U?$pair@$$CBV?$basic_string@DU?$char_traits@D@std@@V?$allocator@D@2@@std@@UACCINFO@CHostConnect@@@2@U_Kfn@?$map@V?$basic_string@DU?$char_traits@D@std@@V?$allocator@D@2@@std@@UACCINFO@CHostConnect@@U_tstring_iless@@V?$allocator@UACCINFO@CHostConnect@@@2@@2@U_tstring_iless@@V?$allocator@UACCINFO@CHostConnect@@@2@@std@@QAE?AViterator@12@ABV?$basic_string@DU?$char_traits@D@std@@V?$allocator@D@2@@2@@Z 00422c80 f i HostConnect.obj
 0001:00021d00       ??0?$pair@$$CBV?$basic_string@DU?$char_traits@D@std@@V?$allocator@D@2@@std@@UACCINFO@CHostConnect@@@std@@QAE@ABV?$basic_string@DU?$char_traits@D@std@@V?$allocator@D@2@@1@ABUACCINFO@CHostConnect@@@Z 00422d00 f i HostConnect.obj
 0001:00021e30       ?insert@?$map@V?$basic_string@DU?$char_traits@D@std@@V?$allocator@D@2@@std@@UROLEINFO@CHostConnect@@U_tstring_less@@V?$allocator@UROLEINFO@CHostConnect@@@2@@std@@QAE?AU?$pair@Viterator@?$_Tree@V?$basic_string@DU?$char_traits@D@std@@V?$allocator@D@2@@std@@U?$pair@$$CBV?$basic_string@DU?$char_traits@D@std@@V?$allocator@D@2@@std@@UROLEINFO@CHostConnect@@@2@U_Kfn@?$map@V?$basic_string@DU?$char_traits@D@std@@V?$allocator@D@2@@std@@UROLEINFO@CHostConnect@@U_tstring_less@@V?$allocator@UROLEINFO@CHostConnect@@@2@@2@U_tstring_less@@V?$allocator@UROLEINFO@CHostConnect@@@2@@std@@_N@2@ABU?$pair@$$CBV?$basic_string@DU?$char_traits@D@std@@V?$allocator@D@2@@std@@UROLEINFO@CHostConnect@@@2@@Z 00422e30 f i HostConnect.obj
 0001:00021e60       ?erase@?$_Tree@V?$basic_string@DU?$char_traits@D@std@@V?$allocator@D@2@@std@@U?$pair@$$CBV?$basic_string@DU?$char_traits@D@std@@V?$allocator@D@2@@std@@UROLEINFO@CHostConnect@@@2@U_Kfn@?$map@V?$basic_string@DU?$char_traits@D@std@@V?$allocator@D@2@@std@@UROLEINFO@CHostConnect@@U_tstring_less@@V?$allocator@UROLEINFO@CHostConnect@@@2@@2@U_tstring_less@@V?$allocator@UROLEINFO@CHostConnect@@@2@@std@@QAE?AViterator@12@V312@0@Z 00422e60 f i HostConnect.obj
 0001:00021fa0       ??0?$pair@$$CBV?$basic_string@DU?$char_traits@D@std@@V?$allocator@D@2@@std@@UROLEINFO@CHostConnect@@@std@@QAE@ABV?$basic_string@DU?$char_traits@D@std@@V?$allocator@D@2@@1@ABUROLEINFO@CHostConnect@@@Z 00422fa0 f i HostConnect.obj
 0001:000220d0       ?insert@?$map@KUPARAMINFO@CHostConnect@@U?$less@K@std@@V?$allocator@UPARAMINFO@CHostConnect@@@4@@std@@QAE?AU?$pair@Viterator@?$_Tree@KU?$pair@$$CBKUPARAMINFO@CHostConnect@@@std@@U_Kfn@?$map@KUPARAMINFO@CHostConnect@@U?$less@K@std@@V?$allocator@UPARAMINFO@CHostConnect@@@4@@2@U?$less@K@2@V?$allocator@UPARAMINFO@CHostConnect@@@2@@std@@_N@2@ABU?$pair@$$CBKUPARAMINFO@CHostConnect@@@2@@Z 004230d0 f i HostConnect.obj
 0001:00022100       ?erase@?$_Tree@KU?$pair@$$CBKUPARAMINFO@CHostConnect@@@std@@U_Kfn@?$map@KUPARAMINFO@CHostConnect@@U?$less@K@std@@V?$allocator@UPARAMINFO@CHostConnect@@@4@@2@U?$less@K@2@V?$allocator@UPARAMINFO@CHostConnect@@@2@@std@@QAE?AViterator@12@V312@0@Z 00423100 f i HostConnect.obj
 0001:00022240       ??0?$pair@$$CBKUPARAMINFO@CHostConnect@@@std@@QAE@ABKABUPARAMINFO@CHostConnect@@@Z 00423240 f i HostConnect.obj
 0001:00022390       ?insert@?$_Tree@V?$basic_string@DU?$char_traits@D@std@@V?$allocator@D@2@@std@@U?$pair@$$CBV?$basic_string@DU?$char_traits@D@std@@V?$allocator@D@2@@std@@UACCINFO@CHostConnect@@@2@U_Kfn@?$map@V?$basic_string@DU?$char_traits@D@std@@V?$allocator@D@2@@std@@UACCINFO@CHostConnect@@U_tstring_iless@@V?$allocator@UACCINFO@CHostConnect@@@2@@2@U_tstring_iless@@V?$allocator@UACCINFO@CHostConnect@@@2@@std@@QAE?AU?$pair@Viterator@?$_Tree@V?$basic_string@DU?$char_traits@D@std@@V?$allocator@D@2@@std@@U?$pair@$$CBV?$basic_string@DU?$char_traits@D@std@@V?$allocator@D@2@@std@@UACCINFO@CHostConnect@@@2@U_Kfn@?$map@V?$basic_string@DU?$char_traits@D@std@@V?$allocator@D@2@@std@@UACCINFO@CHostConnect@@U_tstring_iless@@V?$allocator@UACCINFO@CHostConnect@@@2@@2@U_tstring_iless@@V?$allocator@UACCINFO@CHostConnect@@@2@@std@@_N@2@ABU?$pair@$$CBV?$basic_string@DU?$char_traits@D@std@@V?$allocator@D@2@@std@@UACCINFO@CHostConnect@@@2@@Z 00423390 f i HostConnect.obj
 0001:00022510       ?lower_bound@?$_Tree@V?$basic_string@DU?$char_traits@D@std@@V?$allocator@D@2@@std@@U?$pair@$$CBV?$basic_string@DU?$char_traits@D@std@@V?$allocator@D@2@@std@@UACCINFO@CHostConnect@@@2@U_Kfn@?$map@V?$basic_string@DU?$char_traits@D@std@@V?$allocator@D@2@@std@@UACCINFO@CHostConnect@@U_tstring_iless@@V?$allocator@UACCINFO@CHostConnect@@@2@@2@U_tstring_iless@@V?$allocator@UACCINFO@CHostConnect@@@2@@std@@QAE?AViterator@12@ABV?$basic_string@DU?$char_traits@D@std@@V?$allocator@D@2@@2@@Z 00423510 f i HostConnect.obj
 0001:00022530       ?_Erase@?$_Tree@V?$basic_string@DU?$char_traits@D@std@@V?$allocator@D@2@@std@@U?$pair@$$CBV?$basic_string@DU?$char_traits@D@std@@V?$allocator@D@2@@std@@UACCINFO@CHostConnect@@@2@U_Kfn@?$map@V?$basic_string@DU?$char_traits@D@std@@V?$allocator@D@2@@std@@UACCINFO@CHostConnect@@U_tstring_iless@@V?$allocator@UACCINFO@CHostConnect@@@2@@2@U_tstring_iless@@V?$allocator@UACCINFO@CHostConnect@@@2@@std@@IAEXPAU_Node@12@@Z 00423530 f i HostConnect.obj
 0001:00022610       ?insert@?$_Tree@V?$basic_string@DU?$char_traits@D@std@@V?$allocator@D@2@@std@@U?$pair@$$CBV?$basic_string@DU?$char_traits@D@std@@V?$allocator@D@2@@std@@UROLEINFO@CHostConnect@@@2@U_Kfn@?$map@V?$basic_string@DU?$char_traits@D@std@@V?$allocator@D@2@@std@@UROLEINFO@CHostConnect@@U_tstring_less@@V?$allocator@UROLEINFO@CHostConnect@@@2@@2@U_tstring_less@@V?$allocator@UROLEINFO@CHostConnect@@@2@@std@@QAE?AU?$pair@Viterator@?$_Tree@V?$basic_string@DU?$char_traits@D@std@@V?$allocator@D@2@@std@@U?$pair@$$CBV?$basic_string@DU?$char_traits@D@std@@V?$allocator@D@2@@std@@UROLEINFO@CHostConnect@@@2@U_Kfn@?$map@V?$basic_string@DU?$char_traits@D@std@@V?$allocator@D@2@@std@@UROLEINFO@CHostConnect@@U_tstring_less@@V?$allocator@UROLEINFO@CHostConnect@@@2@@2@U_tstring_less@@V?$allocator@UROLEINFO@CHostConnect@@@2@@std@@_N@2@ABU?$pair@$$CBV?$basic_string@DU?$char_traits@D@std@@V?$allocator@D@2@@std@@UROLEINFO@CHostConnect@@@2@@Z 00423610 f i HostConnect.obj
 0001:00022790       ?erase@?$_Tree@V?$basic_string@DU?$char_traits@D@std@@V?$allocator@D@2@@std@@U?$pair@$$CBV?$basic_string@DU?$char_traits@D@std@@V?$allocator@D@2@@std@@UROLEINFO@CHostConnect@@@2@U_Kfn@?$map@V?$basic_string@DU?$char_traits@D@std@@V?$allocator@D@2@@std@@UROLEINFO@CHostConnect@@U_tstring_less@@V?$allocator@UROLEINFO@CHostConnect@@@2@@2@U_tstring_less@@V?$allocator@UROLEINFO@CHostConnect@@@2@@std@@QAE?AViterator@12@V312@@Z 00423790 f i HostConnect.obj
 0001:00022d00       ?lower_bound@?$_Tree@V?$basic_string@DU?$char_traits@D@std@@V?$allocator@D@2@@std@@U?$pair@$$CBV?$basic_string@DU?$char_traits@D@std@@V?$allocator@D@2@@std@@UROLEINFO@CHostConnect@@@2@U_Kfn@?$map@V?$basic_string@DU?$char_traits@D@std@@V?$allocator@D@2@@std@@UROLEINFO@CHostConnect@@U_tstring_less@@V?$allocator@UROLEINFO@CHostConnect@@@2@@2@U_tstring_less@@V?$allocator@UROLEINFO@CHostConnect@@@2@@std@@QAE?AViterator@12@ABV?$basic_string@DU?$char_traits@D@std@@V?$allocator@D@2@@2@@Z 00423d00 f i HostConnect.obj
 0001:00022d20       ?_Erase@?$_Tree@V?$basic_string@DU?$char_traits@D@std@@V?$allocator@D@2@@std@@U?$pair@$$CBV?$basic_string@DU?$char_traits@D@std@@V?$allocator@D@2@@std@@UROLEINFO@CHostConnect@@@2@U_Kfn@?$map@V?$basic_string@DU?$char_traits@D@std@@V?$allocator@D@2@@std@@UROLEINFO@CHostConnect@@U_tstring_less@@V?$allocator@UROLEINFO@CHostConnect@@@2@@2@U_tstring_less@@V?$allocator@UROLEINFO@CHostConnect@@@2@@std@@IAEXPAU_Node@12@@Z 00423d20 f i HostConnect.obj
 0001:00022e00       ?insert@?$_Tree@KU?$pair@$$CBKUPARAMINFO@CHostConnect@@@std@@U_Kfn@?$map@KUPARAMINFO@CHostConnect@@U?$less@K@std@@V?$allocator@UPARAMINFO@CHostConnect@@@4@@2@U?$less@K@2@V?$allocator@UPARAMINFO@CHostConnect@@@2@@std@@QAE?AU?$pair@Viterator@?$_Tree@KU?$pair@$$CBKUPARAMINFO@CHostConnect@@@std@@U_Kfn@?$map@KUPARAMINFO@CHostConnect@@U?$less@K@std@@V?$allocator@UPARAMINFO@CHostConnect@@@4@@2@U?$less@K@2@V?$allocator@UPARAMINFO@CHostConnect@@@2@@std@@_N@2@ABU?$pair@$$CBKUPARAMINFO@CHostConnect@@@2@@Z 00423e00 f i HostConnect.obj
 0001:00022f30       ?erase@?$_Tree@KU?$pair@$$CBKUPARAMINFO@CHostConnect@@@std@@U_Kfn@?$map@KUPARAMINFO@CHostConnect@@U?$less@K@std@@V?$allocator@UPARAMINFO@CHostConnect@@@4@@2@U?$less@K@2@V?$allocator@UPARAMINFO@CHostConnect@@@2@@std@@QAE?AViterator@12@V312@@Z 00423f30 f i HostConnect.obj
 0001:000234a0       ?lower_bound@?$_Tree@KU?$pair@$$CBKUPARAMINFO@CHostConnect@@@std@@U_Kfn@?$map@KUPARAMINFO@CHostConnect@@U?$less@K@std@@V?$allocator@UPARAMINFO@CHostConnect@@@4@@2@U?$less@K@2@V?$allocator@UPARAMINFO@CHostConnect@@@2@@std@@QAE?AViterator@12@ABK@Z 004244a0 f i HostConnect.obj
 0001:000234c0       ?_Erase@?$_Tree@KU?$pair@$$CBKUPARAMINFO@CHostConnect@@@std@@U_Kfn@?$map@KUPARAMINFO@CHostConnect@@U?$less@K@std@@V?$allocator@UPARAMINFO@CHostConnect@@@4@@2@U?$less@K@2@V?$allocator@UPARAMINFO@CHostConnect@@@2@@std@@IAEXPAU_Node@12@@Z 004244c0 f i HostConnect.obj
 0001:000235a0       ??0?$pair@Viterator@?$_Tree@V?$basic_string@DU?$char_traits@D@std@@V?$allocator@D@2@@std@@U?$pair@$$CBV?$basic_string@DU?$char_traits@D@std@@V?$allocator@D@2@@std@@UACCINFO@CHostConnect@@@2@U_Kfn@?$map@V?$basic_string@DU?$char_traits@D@std@@V?$allocator@D@2@@std@@UACCINFO@CHostConnect@@U_tstring_iless@@V?$allocator@UACCINFO@CHostConnect@@@2@@2@U_tstring_iless@@V?$allocator@UACCINFO@CHostConnect@@@2@@std@@_N@std@@QAE@ABViterator@?$_Tree@V?$basic_string@DU?$char_traits@D@std@@V?$allocator@D@2@@std@@U?$pair@$$CBV?$basic_string@DU?$char_traits@D@std@@V?$allocator@D@2@@std@@UACCINFO@CHostConnect@@@2@U_Kfn@?$map@V?$basic_string@DU?$char_traits@D@std@@V?$allocator@D@2@@std@@UACCINFO@CHostConnect@@U_tstring_iless@@V?$allocator@UACCINFO@CHostConnect@@@2@@2@U_tstring_iless@@V?$allocator@UACCINFO@CHostConnect@@@2@@1@AB_N@Z 004245a0 f i HostConnect.obj
 0001:000235c0       ??0?$pair@Viterator@?$_Tree@V?$basic_string@DU?$char_traits@D@std@@V?$allocator@D@2@@std@@U?$pair@$$CBV?$basic_string@DU?$char_traits@D@std@@V?$allocator@D@2@@std@@UROLEINFO@CHostConnect@@@2@U_Kfn@?$map@V?$basic_string@DU?$char_traits@D@std@@V?$allocator@D@2@@std@@UROLEINFO@CHostConnect@@U_tstring_less@@V?$allocator@UROLEINFO@CHostConnect@@@2@@2@U_tstring_less@@V?$allocator@UROLEINFO@CHostConnect@@@2@@std@@_N@std@@QAE@ABViterator@?$_Tree@V?$basic_string@DU?$char_traits@D@std@@V?$allocator@D@2@@std@@U?$pair@$$CBV?$basic_string@DU?$char_traits@D@std@@V?$allocator@D@2@@std@@UROLEINFO@CHostConnect@@@2@U_Kfn@?$map@V?$basic_string@DU?$char_traits@D@std@@V?$allocator@D@2@@std@@UROLEINFO@CHostConnect@@U_tstring_less@@V?$allocator@UROLEINFO@CHostConnect@@@2@@2@U_tstring_less@@V?$allocator@UROLEINFO@CHostConnect@@@2@@1@AB_N@Z 004245c0 f i HostConnect.obj
 0001:000235e0       ?_Insert@?$_Tree@V?$basic_string@DU?$char_traits@D@std@@V?$allocator@D@2@@std@@U?$pair@$$CBV?$basic_string@DU?$char_traits@D@std@@V?$allocator@D@2@@std@@UACCINFO@CHostConnect@@@2@U_Kfn@?$map@V?$basic_string@DU?$char_traits@D@std@@V?$allocator@D@2@@std@@UACCINFO@CHostConnect@@U_tstring_iless@@V?$allocator@UACCINFO@CHostConnect@@@2@@2@U_tstring_iless@@V?$allocator@UACCINFO@CHostConnect@@@2@@std@@IAE?AViterator@12@PAU_Node@12@0ABU?$pair@$$CBV?$basic_string@DU?$char_traits@D@std@@V?$allocator@D@2@@std@@UACCINFO@CHostConnect@@@2@@Z 004245e0 f i HostConnect.obj
 0001:00023910       ?_Lbound@?$_Tree@V?$basic_string@DU?$char_traits@D@std@@V?$allocator@D@2@@std@@U?$pair@$$CBV?$basic_string@DU?$char_traits@D@std@@V?$allocator@D@2@@std@@UACCINFO@CHostConnect@@@2@U_Kfn@?$map@V?$basic_string@DU?$char_traits@D@std@@V?$allocator@D@2@@std@@UACCINFO@CHostConnect@@U_tstring_iless@@V?$allocator@UACCINFO@CHostConnect@@@2@@2@U_tstring_iless@@V?$allocator@UACCINFO@CHostConnect@@@2@@std@@IBEPAU_Node@12@ABV?$basic_string@DU?$char_traits@D@std@@V?$allocator@D@2@@2@@Z 00424910 f i HostConnect.obj
 0001:00023990       ?_Buynode@?$_Tree@V?$basic_string@DU?$char_traits@D@std@@V?$allocator@D@2@@std@@U?$pair@$$CBV?$basic_string@DU?$char_traits@D@std@@V?$allocator@D@2@@std@@UACCINFO@CHostConnect@@@2@U_Kfn@?$map@V?$basic_string@DU?$char_traits@D@std@@V?$allocator@D@2@@std@@UACCINFO@CHostConnect@@U_tstring_iless@@V?$allocator@UACCINFO@CHostConnect@@@2@@2@U_tstring_iless@@V?$allocator@UACCINFO@CHostConnect@@@2@@std@@IAEPAU_Node@12@PAU312@W4_Redbl@12@@Z 00424990 f i HostConnect.obj
 0001:000239b0       ?upper_bound@?$_Tree@V?$basic_string@DU?$char_traits@D@std@@V?$allocator@D@2@@std@@U?$pair@$$CBV?$basic_string@DU?$char_traits@D@std@@V?$allocator@D@2@@std@@UROLEINFO@CHostConnect@@@2@U_Kfn@?$map@V?$basic_string@DU?$char_traits@D@std@@V?$allocator@D@2@@std@@UROLEINFO@CHostConnect@@U_tstring_less@@V?$allocator@UROLEINFO@CHostConnect@@@2@@2@U_tstring_less@@V?$allocator@UROLEINFO@CHostConnect@@@2@@std@@QAE?AViterator@12@ABV?$basic_string@DU?$char_traits@D@std@@V?$allocator@D@2@@2@@Z 004249b0 f i HostConnect.obj
 0001:000239d0       ?_Insert@?$_Tree@V?$basic_string@DU?$char_traits@D@std@@V?$allocator@D@2@@std@@U?$pair@$$CBV?$basic_string@DU?$char_traits@D@std@@V?$allocator@D@2@@std@@UROLEINFO@CHostConnect@@@2@U_Kfn@?$map@V?$basic_string@DU?$char_traits@D@std@@V?$allocator@D@2@@std@@UROLEINFO@CHostConnect@@U_tstring_less@@V?$allocator@UROLEINFO@CHostConnect@@@2@@2@U_tstring_less@@V?$allocator@UROLEINFO@CHostConnect@@@2@@std@@IAE?AViterator@12@PAU_Node@12@0ABU?$pair@$$CBV?$basic_string@DU?$char_traits@D@std@@V?$allocator@D@2@@std@@UROLEINFO@CHostConnect@@@2@@Z 004249d0 f i HostConnect.obj
 0001:00023d00       ?_Lbound@?$_Tree@V?$basic_string@DU?$char_traits@D@std@@V?$allocator@D@2@@std@@U?$pair@$$CBV?$basic_string@DU?$char_traits@D@std@@V?$allocator@D@2@@std@@UROLEINFO@CHostConnect@@@2@U_Kfn@?$map@V?$basic_string@DU?$char_traits@D@std@@V?$allocator@D@2@@std@@UROLEINFO@CHostConnect@@U_tstring_less@@V?$allocator@UROLEINFO@CHostConnect@@@2@@2@U_tstring_less@@V?$allocator@UROLEINFO@CHostConnect@@@2@@std@@IBEPAU_Node@12@ABV?$basic_string@DU?$char_traits@D@std@@V?$allocator@D@2@@2@@Z 00424d00 f i HostConnect.obj
 0001:00023d80       ?_Buynode@?$_Tree@V?$basic_string@DU?$char_traits@D@std@@V?$allocator@D@2@@std@@U?$pair@$$CBV?$basic_string@DU?$char_traits@D@std@@V?$allocator@D@2@@std@@UROLEINFO@CHostConnect@@@2@U_Kfn@?$map@V?$basic_string@DU?$char_traits@D@std@@V?$allocator@D@2@@std@@UROLEINFO@CHostConnect@@U_tstring_less@@V?$allocator@UROLEINFO@CHostConnect@@@2@@2@U_tstring_less@@V?$allocator@UROLEINFO@CHostConnect@@@2@@std@@IAEPAU_Node@12@PAU312@W4_Redbl@12@@Z 00424d80 f i HostConnect.obj
 0001:00023da0       ?upper_bound@?$_Tree@KU?$pair@$$CBKUPARAMINFO@CHostConnect@@@std@@U_Kfn@?$map@KUPARAMINFO@CHostConnect@@U?$less@K@std@@V?$allocator@UPARAMINFO@CHostConnect@@@4@@2@U?$less@K@2@V?$allocator@UPARAMINFO@CHostConnect@@@2@@std@@QAE?AViterator@12@ABK@Z 00424da0 f i HostConnect.obj
 0001:00023dc0       ?_Insert@?$_Tree@KU?$pair@$$CBKUPARAMINFO@CHostConnect@@@std@@U_Kfn@?$map@KUPARAMINFO@CHostConnect@@U?$less@K@std@@V?$allocator@UPARAMINFO@CHostConnect@@@4@@2@U?$less@K@2@V?$allocator@UPARAMINFO@CHostConnect@@@2@@std@@IAE?AViterator@12@PAU_Node@12@0ABU?$pair@$$CBKUPARAMINFO@CHostConnect@@@2@@Z 00424dc0 f i HostConnect.obj
 0001:000240c0       ?_Lbound@?$_Tree@KU?$pair@$$CBKUPARAMINFO@CHostConnect@@@std@@U_Kfn@?$map@KUPARAMINFO@CHostConnect@@U?$less@K@std@@V?$allocator@UPARAMINFO@CHostConnect@@@4@@2@U?$less@K@2@V?$allocator@UPARAMINFO@CHostConnect@@@2@@std@@IBEPAU_Node@12@ABK@Z 004250c0 f i HostConnect.obj
 0001:00024110       ?_Buynode@?$_Tree@KU?$pair@$$CBKUPARAMINFO@CHostConnect@@@std@@U_Kfn@?$map@KUPARAMINFO@CHostConnect@@U?$less@K@std@@V?$allocator@UPARAMINFO@CHostConnect@@@4@@2@U?$less@K@2@V?$allocator@UPARAMINFO@CHostConnect@@@2@@std@@IAEPAU_Node@12@PAU312@W4_Redbl@12@@Z 00425110 f i HostConnect.obj
 0001:00024130       ?_Dec@const_iterator@?$_Tree@V?$basic_string@DU?$char_traits@D@std@@V?$allocator@D@2@@std@@U?$pair@$$CBV?$basic_string@DU?$char_traits@D@std@@V?$allocator@D@2@@std@@UACCINFO@CHostConnect@@@2@U_Kfn@?$map@V?$basic_string@DU?$char_traits@D@std@@V?$allocator@D@2@@std@@UACCINFO@CHostConnect@@U_tstring_iless@@V?$allocator@UACCINFO@CHostConnect@@@2@@2@U_tstring_iless@@V?$allocator@UACCINFO@CHostConnect@@@2@@std@@QAEXXZ 00425130 f i HostConnect.obj
 0001:000241f0       ?_Inc@const_iterator@?$_Tree@V?$basic_string@DU?$char_traits@D@std@@V?$allocator@D@2@@std@@U?$pair@$$CBV?$basic_string@DU?$char_traits@D@std@@V?$allocator@D@2@@std@@UACCINFO@CHostConnect@@@2@U_Kfn@?$map@V?$basic_string@DU?$char_traits@D@std@@V?$allocator@D@2@@std@@UACCINFO@CHostConnect@@U_tstring_iless@@V?$allocator@UACCINFO@CHostConnect@@@2@@2@U_tstring_iless@@V?$allocator@UACCINFO@CHostConnect@@@2@@std@@QAEXXZ 004251f0 f i HostConnect.obj
 0001:000242a0       ?_Ubound@?$_Tree@V?$basic_string@DU?$char_traits@D@std@@V?$allocator@D@2@@std@@U?$pair@$$CBV?$basic_string@DU?$char_traits@D@std@@V?$allocator@D@2@@std@@UROLEINFO@CHostConnect@@@2@U_Kfn@?$map@V?$basic_string@DU?$char_traits@D@std@@V?$allocator@D@2@@std@@UROLEINFO@CHostConnect@@U_tstring_less@@V?$allocator@UROLEINFO@CHostConnect@@@2@@2@U_tstring_less@@V?$allocator@UROLEINFO@CHostConnect@@@2@@std@@IBEPAU_Node@12@ABV?$basic_string@DU?$char_traits@D@std@@V?$allocator@D@2@@2@@Z 004252a0 f i HostConnect.obj
 0001:00024320       ?_Dec@const_iterator@?$_Tree@V?$basic_string@DU?$char_traits@D@std@@V?$allocator@D@2@@std@@U?$pair@$$CBV?$basic_string@DU?$char_traits@D@std@@V?$allocator@D@2@@std@@UROLEINFO@CHostConnect@@@2@U_Kfn@?$map@V?$basic_string@DU?$char_traits@D@std@@V?$allocator@D@2@@std@@UROLEINFO@CHostConnect@@U_tstring_less@@V?$allocator@UROLEINFO@CHostConnect@@@2@@2@U_tstring_less@@V?$allocator@UROLEINFO@CHostConnect@@@2@@std@@QAEXXZ 00425320 f i HostConnect.obj
 0001:000243e0       ?_Inc@const_iterator@?$_Tree@V?$basic_string@DU?$char_traits@D@std@@V?$allocator@D@2@@std@@U?$pair@$$CBV?$basic_string@DU?$char_traits@D@std@@V?$allocator@D@2@@std@@UROLEINFO@CHostConnect@@@2@U_Kfn@?$map@V?$basic_string@DU?$char_traits@D@std@@V?$allocator@D@2@@std@@UROLEINFO@CHostConnect@@U_tstring_less@@V?$allocator@UROLEINFO@CHostConnect@@@2@@2@U_tstring_less@@V?$allocator@UROLEINFO@CHostConnect@@@2@@std@@QAEXXZ 004253e0 f i HostConnect.obj
 0001:00024490       ?_Ubound@?$_Tree@KU?$pair@$$CBKUPARAMINFO@CHostConnect@@@std@@U_Kfn@?$map@KUPARAMINFO@CHostConnect@@U?$less@K@std@@V?$allocator@UPARAMINFO@CHostConnect@@@4@@2@U?$less@K@2@V?$allocator@UPARAMINFO@CHostConnect@@@2@@std@@IBEPAU_Node@12@ABK@Z 00425490 f i HostConnect.obj
 0001:000244e0       ?_Dec@const_iterator@?$_Tree@KU?$pair@$$CBKUPARAMINFO@CHostConnect@@@std@@U_Kfn@?$map@KUPARAMINFO@CHostConnect@@U?$less@K@std@@V?$allocator@UPARAMINFO@CHostConnect@@@4@@2@U?$less@K@2@V?$allocator@UPARAMINFO@CHostConnect@@@2@@std@@QAEXXZ 004254e0 f i HostConnect.obj
 0001:000245a0       ?_Inc@const_iterator@?$_Tree@KU?$pair@$$CBKUPARAMINFO@CHostConnect@@@std@@U_Kfn@?$map@KUPARAMINFO@CHostConnect@@U?$less@K@std@@V?$allocator@UPARAMINFO@CHostConnect@@@4@@2@U?$less@K@2@V?$allocator@UPARAMINFO@CHostConnect@@@2@@std@@QAEXXZ 004255a0 f i HostConnect.obj
 0001:00024650       ?_Distance@std@@YAXViterator@?$_Tree@V?$basic_string@DU?$char_traits@D@std@@V?$allocator@D@2@@std@@U?$pair@$$CBV?$basic_string@DU?$char_traits@D@std@@V?$allocator@D@2@@std@@UROLEINFO@CHostConnect@@@2@U_Kfn@?$map@V?$basic_string@DU?$char_traits@D@std@@V?$allocator@D@2@@std@@UROLEINFO@CHostConnect@@U_tstring_less@@V?$allocator@UROLEINFO@CHostConnect@@@2@@2@U_tstring_less@@V?$allocator@UROLEINFO@CHostConnect@@@2@@1@0AAI@Z 00425650 f i HostConnect.obj
 0001:00024680       ?_Distance@std@@YAXViterator@?$_Tree@KU?$pair@$$CBKUPARAMINFO@CHostConnect@@@std@@U_Kfn@?$map@KUPARAMINFO@CHostConnect@@U?$less@K@std@@V?$allocator@UPARAMINFO@CHostConnect@@@4@@2@U?$less@K@2@V?$allocator@UPARAMINFO@CHostConnect@@@2@@1@0AAI@Z 00425680 f i HostConnect.obj
 0001:000246b0       ?_Construct@std@@YAXPAU?$pair@$$CBV?$basic_string@DU?$char_traits@D@std@@V?$allocator@D@2@@std@@UACCINFO@CHostConnect@@@1@ABU21@@Z 004256b0 f i HostConnect.obj
 0001:00024800       ?_Construct@std@@YAXPAU?$pair@$$CBV?$basic_string@DU?$char_traits@D@std@@V?$allocator@D@2@@std@@UROLEINFO@CHostConnect@@@1@ABU21@@Z 00425800 f i HostConnect.obj
 0001:00024950       ?_Construct@std@@YAXPAU?$pair@$$CBKUPARAMINFO@CHostConnect@@@1@ABU21@@Z 00425950 f i HostConnect.obj
 0001:00024ae0       ??0CHostServer@@QAE@XZ     00425ae0 f   HostServer.obj
 0001:00024bc0       ??_ECHostServer@@UAEPAXI@Z 00425bc0 f i HostServer.obj
 0001:00024bc0       ??_GCHostServer@@UAEPAXI@Z 00425bc0 f i HostServer.obj
 0001:00024be0       ??1?$map@KPAVCHostConnect@@U?$less@K@std@@V?$allocator@PAVCHostConnect@@@3@@std@@QAE@XZ 00425be0 f i HostServer.obj
 0001:00024c50       ??1CHostServer@@UAE@XZ     00425c50 f   HostServer.obj
 0001:00024d10       ?CreateConnect@CHostServer@@MAEPAVCNetConnect@@PAVCNetServer@@K@Z 00425d10 f   HostServer.obj
 0001:00024d80       ?DestroyConnect@CHostServer@@MAEXPAVCNetConnect@@@Z 00425d80 f   HostServer.obj
 0001:00024da0       ?OnBuildup@CHostServer@@MAEXXZ 00425da0 f   HostServer.obj
 0001:00024e00       ?OnClearup@CHostServer@@MAEXXZ 00425e00 f   HostServer.obj
 0001:00024e80       ?OnClientConnectCreate@CHostServer@@MAEXPAVCNetConnect@@@Z 00425e80 f   HostServer.obj
 0001:00024f10       ?OnClientConnectClose@CHostServer@@MAEXPAVCNetConnect@@@Z 00425f10 f   HostServer.obj
 0001:00024fc0       ?FindHostConnectByIP@CHostServer@@QAE?AVCNetConnectDup@@K@Z 00425fc0 f   HostServer.obj
 0001:000250a0       ?FindPlayerByAcc@CHostServer@@QAEHPAVCHostConnect@@ABV?$basic_string@DU?$char_traits@D@std@@V?$allocator@D@2@@std@@PAVCNetConnectDup@@PAV34@PAK43@Z 004260a0 f   HostServer.obj
 0001:00025180       ?FindPlayerByRole@CHostServer@@QAEHPAVCHostConnect@@ABV?$basic_string@DU?$char_traits@D@std@@V?$allocator@D@2@@std@@PAVCNetConnectDup@@PAV34@PAK43@Z 00426180 f   HostServer.obj
 0001:00025260       ?FindPlayerByIpParam@CHostServer@@QAEHPAVCHostConnect@@KKPAVCNetConnectDup@@PAV?$basic_string@DU?$char_traits@D@std@@V?$allocator@D@2@@std@@2PAK@Z 00426260 f   HostServer.obj
 0001:00025370       ?GetPlayerCount@CHostServer@@QAEIXZ 00426370 f   HostServer.obj
 0001:00025440       ?TraceInfo@CHostServer@@QAEHXZ 00426440 f   HostServer.obj
 0001:00025690       ?TracePlayer@CHostServer@@QAEHXZ 00426690 f   HostServer.obj
 0001:000258f0       ?erase@?$_Tree@KU?$pair@$$CBKPAVCHostConnect@@@std@@U_Kfn@?$map@KPAVCHostConnect@@U?$less@K@std@@V?$allocator@PAVCHostConnect@@@3@@2@U?$less@K@2@V?$allocator@PAVCHostConnect@@@2@@std@@QAE?AViterator@12@V312@0@Z 004268f0 f i HostServer.obj
 0001:00025a20       ?find@?$_Tree@KU?$pair@$$CBKPAVCHostConnect@@@std@@U_Kfn@?$map@KPAVCHostConnect@@U?$less@K@std@@V?$allocator@PAVCHostConnect@@@3@@2@U?$less@K@2@V?$allocator@PAVCHostConnect@@@2@@std@@QAE?AViterator@12@ABK@Z 00426a20 f i HostServer.obj
 0001:00025a70       ?insert@?$_Tree@KU?$pair@$$CBKPAVCHostConnect@@@std@@U_Kfn@?$map@KPAVCHostConnect@@U?$less@K@std@@V?$allocator@PAVCHostConnect@@@3@@2@U?$less@K@2@V?$allocator@PAVCHostConnect@@@2@@std@@QAE?AU?$pair@Viterator@?$_Tree@KU?$pair@$$CBKPAVCHostConnect@@@std@@U_Kfn@?$map@KPAVCHostConnect@@U?$less@K@std@@V?$allocator@PAVCHostConnect@@@3@@2@U?$less@K@2@V?$allocator@PAVCHostConnect@@@2@@std@@_N@2@ABU?$pair@$$CBKPAVCHostConnect@@@2@@Z 00426a70 f i HostServer.obj
 0001:00025ba0       ?erase@?$_Tree@KU?$pair@$$CBKPAVCHostConnect@@@std@@U_Kfn@?$map@KPAVCHostConnect@@U?$less@K@std@@V?$allocator@PAVCHostConnect@@@3@@2@U?$less@K@2@V?$allocator@PAVCHostConnect@@@2@@std@@QAE?AViterator@12@V312@@Z 00426ba0 f i HostServer.obj
 0001:000260c0       ?lower_bound@?$_Tree@KU?$pair@$$CBKPAVCHostConnect@@@std@@U_Kfn@?$map@KPAVCHostConnect@@U?$less@K@std@@V?$allocator@PAVCHostConnect@@@3@@2@U?$less@K@2@V?$allocator@PAVCHostConnect@@@2@@std@@QAE?AViterator@12@ABK@Z 004270c0 f i HostServer.obj
 0001:000260e0       ?_Erase@?$_Tree@KU?$pair@$$CBKPAVCHostConnect@@@std@@U_Kfn@?$map@KPAVCHostConnect@@U?$less@K@std@@V?$allocator@PAVCHostConnect@@@3@@2@U?$less@K@2@V?$allocator@PAVCHostConnect@@@2@@std@@IAEXPAU_Node@12@@Z 004270e0 f i HostServer.obj
 0001:00026170       ?_Inc@const_iterator@?$_Tree@KU?$pair@$$CBKPAVCHostConnect@@@std@@U_Kfn@?$map@KPAVCHostConnect@@U?$less@K@std@@V?$allocator@PAVCHostConnect@@@3@@2@U?$less@K@2@V?$allocator@PAVCHostConnect@@@2@@std@@QAEXXZ 00427170 f i HostServer.obj
 0001:00026220       ?_Insert@?$_Tree@KU?$pair@$$CBKPAVCHostConnect@@@std@@U_Kfn@?$map@KPAVCHostConnect@@U?$less@K@std@@V?$allocator@PAVCHostConnect@@@3@@2@U?$less@K@2@V?$allocator@PAVCHostConnect@@@2@@std@@IAE?AViterator@12@PAU_Node@12@0ABU?$pair@$$CBKPAVCHostConnect@@@2@@Z 00427220 f i HostServer.obj
 0001:00026520       ?_Lbound@?$_Tree@KU?$pair@$$CBKPAVCHostConnect@@@std@@U_Kfn@?$map@KPAVCHostConnect@@U?$less@K@std@@V?$allocator@PAVCHostConnect@@@3@@2@U?$less@K@2@V?$allocator@PAVCHostConnect@@@2@@std@@IBEPAU_Node@12@ABK@Z 00427520 f i HostServer.obj
 0001:00026570       ?_Min@?$_Tree@KU?$pair@$$CBKPAVCHostConnect@@@std@@U_Kfn@?$map@KPAVCHostConnect@@U?$less@K@std@@V?$allocator@PAVCHostConnect@@@3@@2@U?$less@K@2@V?$allocator@PAVCHostConnect@@@2@@std@@KAPAU_Node@12@PAU312@@Z 00427570 f i HostServer.obj
 0001:000265b0       ?_Ubound@?$_Tree@KU?$pair@$$CBKPAVCHostConnect@@@std@@U_Kfn@?$map@KPAVCHostConnect@@U?$less@K@std@@V?$allocator@PAVCHostConnect@@@3@@2@U?$less@K@2@V?$allocator@PAVCHostConnect@@@2@@std@@IBEPAU_Node@12@ABK@Z 004275b0 f i HostServer.obj
 0001:00026600       ?_Dec@const_iterator@?$_Tree@KU?$pair@$$CBKPAVCHostConnect@@@std@@U_Kfn@?$map@KPAVCHostConnect@@U?$less@K@std@@V?$allocator@PAVCHostConnect@@@3@@2@U?$less@K@2@V?$allocator@PAVCHostConnect@@@2@@std@@QAEXXZ 00427600 f i HostServer.obj
 0001:000266c0       ?_Construct@std@@YAXPAU?$pair@$$CBKPAVCHostConnect@@@1@ABU21@@Z 004276c0 f i HostServer.obj
 0001:00026710       ??0KThread@@QAE@XZ         00427710 f   KThread.obj
 0001:00026730       ??_EKThread@@UAEPAXI@Z     00427730 f i KThread.obj
 0001:00026730       ??_GKThread@@UAEPAXI@Z     00427730 f i KThread.obj
 0001:00026750       ??1KThread@@UAE@XZ         00427750 f   KThread.obj
 0001:00026760       ?Start@KThread@@UAEPAXXZ   00427760 f   KThread.obj
 0001:000267b0       ?Stop@KThread@@UAEHXZ      004277b0 f   KThread.obj
 0001:00026840       ?IsAskingStop@KThread@@UAEHXZ 00427840 f   KThread.obj
 0001:00026860       ?ThreadFun@KThread@@SGIPAX@Z 00427860 f   KThread.obj
 0001:00026940       ??0CLockSRSW@@QAE@XZ       00427940 f   Lock.obj
 0001:00026960       ??_ECLockSRSW@@UAEPAXI@Z   00427960 f i Lock.obj
 0001:00026960       ??_GCLockSRSW@@UAEPAXI@Z   00427960 f i Lock.obj
 0001:00026980       ??1CLockSRSW@@UAE@XZ       00427980 f   Lock.obj
 0001:000269a0       ?EnterRead@CLockSRSW@@UAEXXZ 004279a0 f   Lock.obj
 0001:000269b0       ?LeaveRead@CLockSRSW@@UAEXXZ 004279b0 f   Lock.obj
 0001:000269c0       ?EnterWrite@CLockSRSW@@UAEXXZ 004279c0 f   Lock.obj
 0001:000269d0       ?LeaveWrite@CLockSRSW@@UAEXXZ 004279d0 f   Lock.obj
 0001:000269e0       ??0CLockMRSW@@QAE@XZ       004279e0 f   Lock.obj
 0001:00026a20       ??_GCLockMRSW@@UAEPAXI@Z   00427a20 f i Lock.obj
 0001:00026a20       ??_ECLockMRSW@@UAEPAXI@Z   00427a20 f i Lock.obj
 0001:00026a40       ??1CLockMRSW@@UAE@XZ       00427a40 f   Lock.obj
 0001:00026a70       ?EnterRead@CLockMRSW@@UAEXXZ 00427a70 f   Lock.obj
 0001:00026ab0       ?LeaveRead@CLockMRSW@@UAEXXZ 00427ab0 f   Lock.obj
 0001:00026ae0       ?EnterWrite@CLockMRSW@@UAEXXZ 00427ae0 f   Lock.obj
 0001:00026b00       ?LeaveWrite@CLockMRSW@@UAEXXZ 00427b00 f   Lock.obj
 0001:00026b10       ??_GALock@@MAEPAXI@Z       00427b10 f i Lock.obj
 0001:00026b10       ??_EALock@@MAEPAXI@Z       00427b10 f i Lock.obj
 0001:00026b60       ??0CLogFile@@QAE@XZ        00427b60 f   LogFile.obj
 0001:00026b90       ??_ECLogFile@@UAEPAXI@Z    00427b90 f i LogFile.obj
 0001:00026b90       ??_GCLogFile@@UAEPAXI@Z    00427b90 f i LogFile.obj
 0001:00026bb0       ??1CLogFile@@UAE@XZ        00427bb0 f   LogFile.obj
 0001:00026c00       ?Initialize@CLogFile@@QAEHABV?$basic_string@DU?$char_traits@D@std@@V?$allocator@D@2@@std@@I@Z 00427c00 f   LogFile.obj
 0001:00026dc0       ?Uninitialize@CLogFile@@QAEHXZ 00427dc0 f   LogFile.obj
 0001:00026e90       ?TraceLog@CLogFile@@QAEIPBXI@Z 00427e90 f   LogFile.obj
 0001:00026ef0       ?PrepareFile@CLogFile@@AAEHXZ 00427ef0 f   LogFile.obj
 0001:000271a0       ?BeginBatch@CLogFile@@QAEKXZ 004281a0 f   LogFile.obj
 0001:000271d0       ?EndBatch@CLogFile@@QAEKXZ 004281d0 f   LogFile.obj
 0001:000271f0       ?IsBatched@CLogFile@@QAEHXZ 004281f0 f   LogFile.obj
 0001:00027200       ?OpenUniDirectory@CLogFile@@CAHABV?$basic_string@DU?$char_traits@D@std@@V?$allocator@D@2@@std@@PAV23@@Z 00428200 f   LogFile.obj
 0001:00027490       ?CreateUniFile@CLogFile@@CAPAXABV?$basic_string@DU?$char_traits@D@std@@V?$allocator@D@2@@std@@PAV23@@Z 00428490 f   LogFile.obj
 0001:00027720       ??0CMemory@@QAE@XZ         00428720 f   Memory.obj
 0001:00027730       ??_ECMemory@@UAEPAXI@Z     00428730 f i Memory.obj
 0001:00027730       ??_GCMemory@@UAEPAXI@Z     00428730 f i Memory.obj
 0001:00027750       ??1CMemory@@UAE@XZ         00428750 f   Memory.obj
 0001:00027760       ?Initialize@CMemory@@QAEHXZ 00428760 f   Memory.obj
 0001:00027770       ?Uninitialize@CMemory@@QAEHXZ 00428770 f   Memory.obj
 0001:00027780       ?Alloc@CMemory@@QAEPAXI@Z  00428780 f   Memory.obj
 0001:000277a0       ?Reuse@CMemory@@QAEXPAX@Z  004287a0 f   Memory.obj
 0001:000277b0       ?Free@CMemory@@QAEXPAX@Z   004287b0 f   Memory.obj
 0001:000277d0       ?Size@CMemory@@QAEIPAX@Z   004287d0 f   Memory.obj
 0001:00027820       ??0CNetCenter@@QAE@XZ      00428820 f   NetCenter.obj
 0001:00027910       ??_ECNetCenter@@UAEPAXI@Z  00428910 f i NetCenter.obj
 0001:00027910       ??_GCNetCenter@@UAEPAXI@Z  00428910 f i NetCenter.obj
 0001:00027930       ??1?$set@PAVCNetClient@@U?$less@PAVCNetClient@@@std@@V?$allocator@PAVCNetClient@@@3@@std@@QAE@XZ 00428930 f i NetCenter.obj
 0001:000279a0       ??1CNetCenter@@UAE@XZ      004289a0 f   NetCenter.obj
 0001:00027a60       ?Initialize@CNetCenter@@QAEHXZ 00428a60 f   NetCenter.obj
 0001:00027ac0       ?Uninitialize@CNetCenter@@QAEHXZ 00428ac0 f   NetCenter.obj
 0001:00027b70       ?_NotifyServerEventCreate@CNetCenter@@QAEXPAVCNetClient@@@Z 00428b70 f   NetCenter.obj
 0001:00027bf0       ?_NotifyServerEventClose@CNetCenter@@QAEXPAVCNetClient@@@Z 00428bf0 f   NetCenter.obj
 0001:00027cb0       ?GetClientCount@CNetCenter@@QAEIXZ 00428cb0 f   NetCenter.obj
 0001:00027cd0       ?BroadPackage@CNetCenter@@QAEHPBXI@Z 00428cd0 f   NetCenter.obj
 0001:00027da0       ?Route@CNetCenter@@QAEHXZ  00428da0 f   NetCenter.obj
 0001:00027e60       ?insert@?$_Tree@PAVCNetClient@@PAV1@U_Kfn@?$set@PAVCNetClient@@U?$less@PAVCNetClient@@@std@@V?$allocator@PAVCNetClient@@@3@@std@@U?$less@PAVCNetClient@@@4@V?$allocator@PAVCNetClient@@@4@@std@@QAE?AU?$pair@Viterator@?$_Tree@PAVCNetClient@@PAV1@U_Kfn@?$set@PAVCNetClient@@U?$less@PAVCNetClient@@@std@@V?$allocator@PAVCNetClient@@@3@@std@@U?$less@PAVCNetClient@@@4@V?$allocator@PAVCNetClient@@@4@@std@@_N@2@ABQAVCNetClient@@@Z 00428e60 f i NetCenter.obj
 0001:00027f90       ?erase@?$_Tree@PAVCNetClient@@PAV1@U_Kfn@?$set@PAVCNetClient@@U?$less@PAVCNetClient@@@std@@V?$allocator@PAVCNetClient@@@3@@std@@U?$less@PAVCNetClient@@@4@V?$allocator@PAVCNetClient@@@4@@std@@QAE?AViterator@12@V312@0@Z 00428f90 f i NetCenter.obj
 0001:000280c0       ?erase@?$_Tree@PAVCNetClient@@PAV1@U_Kfn@?$set@PAVCNetClient@@U?$less@PAVCNetClient@@@std@@V?$allocator@PAVCNetClient@@@3@@std@@U?$less@PAVCNetClient@@@4@V?$allocator@PAVCNetClient@@@4@@std@@QAE?AViterator@12@V312@@Z 004290c0 f i NetCenter.obj
 0001:000285e0       ?_Erase@?$_Tree@PAVCNetClient@@PAV1@U_Kfn@?$set@PAVCNetClient@@U?$less@PAVCNetClient@@@std@@V?$allocator@PAVCNetClient@@@3@@std@@U?$less@PAVCNetClient@@@4@V?$allocator@PAVCNetClient@@@4@@std@@IAEXPAU_Node@12@@Z 004295e0 f i NetCenter.obj
 0001:00028670       ?_Insert@?$_Tree@PAVCNetClient@@PAV1@U_Kfn@?$set@PAVCNetClient@@U?$less@PAVCNetClient@@@std@@V?$allocator@PAVCNetClient@@@3@@std@@U?$less@PAVCNetClient@@@4@V?$allocator@PAVCNetClient@@@4@@std@@IAE?AViterator@12@PAU_Node@12@0ABQAVCNetClient@@@Z 00429670 f i NetCenter.obj
 0001:00028970       ?_Inc@const_iterator@?$_Tree@PAVCNetClient@@PAV1@U_Kfn@?$set@PAVCNetClient@@U?$less@PAVCNetClient@@@std@@V?$allocator@PAVCNetClient@@@3@@std@@U?$less@PAVCNetClient@@@4@V?$allocator@PAVCNetClient@@@4@@std@@QAEXXZ 00429970 f i NetCenter.obj
 0001:00028a20       ?_Min@?$_Tree@PAVCNetClient@@PAV1@U_Kfn@?$set@PAVCNetClient@@U?$less@PAVCNetClient@@@std@@V?$allocator@PAVCNetClient@@@3@@std@@U?$less@PAVCNetClient@@@4@V?$allocator@PAVCNetClient@@@4@@std@@KAPAU_Node@12@PAU312@@Z 00429a20 f i NetCenter.obj
 0001:00028a60       ?_Dec@const_iterator@?$_Tree@PAVCNetClient@@PAV1@U_Kfn@?$set@PAVCNetClient@@U?$less@PAVCNetClient@@@std@@V?$allocator@PAVCNetClient@@@3@@std@@U?$less@PAVCNetClient@@@4@V?$allocator@PAVCNetClient@@@4@@std@@QAEXXZ 00429a60 f i NetCenter.obj
 0001:00028b20       ?_Lbound@?$_Tree@PAVCNetClient@@PAV1@U_Kfn@?$set@PAVCNetClient@@U?$less@PAVCNetClient@@@std@@V?$allocator@PAVCNetClient@@@3@@std@@U?$less@PAVCNetClient@@@4@V?$allocator@PAVCNetClient@@@4@@std@@IBEPAU_Node@12@ABQAVCNetClient@@@Z 00429b20 f i NetCenter.obj
 0001:00028b70       ?_Ubound@?$_Tree@PAVCNetClient@@PAV1@U_Kfn@?$set@PAVCNetClient@@U?$less@PAVCNetClient@@@std@@V?$allocator@PAVCNetClient@@@3@@std@@U?$less@PAVCNetClient@@@4@V?$allocator@PAVCNetClient@@@4@@std@@IBEPAU_Node@12@ABQAVCNetClient@@@Z 00429b70 f i NetCenter.obj
 0001:00028bc0       ?_Construct@std@@YAXPAPAVCNetClient@@ABQAV2@@Z 00429bc0 f i NetCenter.obj
 0001:00028c10       ??0CNetClientDup@@QAE@ABVCNetClient@@@Z 00429c10 f   NetClient.obj
 0001:00028c50       ?SendPackage@CNetClientDup@@QBEHPBXI@Z 00429c50 f   NetClient.obj
 0001:00028c90       ??4CNetClientDup@@QAEAAV0@ABVCNetClient@@@Z 00429c90 f   NetClient.obj
 0001:00028ce0       ??0CNetClient@@QAE@PAVCNetCenter@@H@Z 00429ce0 f   NetClient.obj
 0001:00028d30       ?RecvPackage@CNetClient@@MAEXPBXI@Z 00429d30 f i NetClient.obj
 0001:00028d40       ?OnServerEventCreate@CNetClient@@MAEXXZ 00429d40 f i NetClient.obj
 0001:00028d50       ?OnServerEventClose@CNetClient@@MAEXXZ 00429d50 f i NetClient.obj
 0001:00028d60       ??_GCNetClient@@UAEPAXI@Z  00429d60 f i NetClient.obj
 0001:00028d60       ??_ECNetClient@@UAEPAXI@Z  00429d60 f i NetClient.obj
 0001:00028d80       ??1CNetClient@@UAE@XZ      00429d80 f   NetClient.obj
 0001:00028dd0       ?DirectClearup@CNetClient@@AAEXXZ 00429dd0 f   NetClient.obj
 0001:00028f40       ?InterShutdown@CNetClient@@IAEXXZ 00429f40 f   NetClient.obj
 0001:00028f70       ?Main@CNetClient@@MAEKPAX@Z 00429f70 f   NetClient.obj
 0001:00029010       ?ClientEventNotify@CNetClient@@CGXPAXABK@Z 0042a010 f   NetClient.obj
 0001:00029040       ?Startup@CNetClient@@QAEHIIPBDGH@Z 0042a040 f   NetClient.obj
 0001:00029220       ?Shutdown@CNetClient@@QAEHXZ 0042a220 f   NetClient.obj
 0001:00029260       ?_NotifyServerEventCreate@CNetClient@@AAEXXZ 0042a260 f   NetClient.obj
 0001:00029290       ?_NotifyServerEventClose@CNetClient@@AAEXXZ 0042a290 f   NetClient.obj
 0001:00029300       ?SendPackage@CNetClient@@QAEHPBXI@Z 0042a300 f   NetClient.obj
 0001:00029350       ?DoRoute@CNetClient@@AAEHXZ 0042a350 f   NetClient.obj
 0001:000293e0       ?Route@CNetClient@@QAEHXZ  0042a3e0 f   NetClient.obj
 0001:00029420       ??0CNetConnectDup@@QAE@ABVCNetConnect@@@Z 0042a420 f   NetConnect.obj
 0001:00029470       ?SendPackage@CNetConnectDup@@QBEHPBXI@Z 0042a470 f   NetConnect.obj
 0001:000294b0       ??4CNetConnectDup@@QAEAAV0@ABVCNetConnect@@@Z 0042a4b0 f   NetConnect.obj
 0001:00029510       ??0CNetConnect@@QAE@PAVCNetServer@@K@Z 0042a510 f   NetConnect.obj
 0001:000295d0       ?RecvPackage@CNetConnect@@MAEXPBXI@Z 0042a5d0 f i NetConnect.obj
 0001:000295e0       ?OnClientConnectCreate@CNetConnect@@MAEXXZ 0042a5e0 f i NetConnect.obj
 0001:000295f0       ?OnClientConnectClose@CNetConnect@@MAEXXZ 0042a5f0 f i NetConnect.obj
 0001:00029600       ??_ECNetConnect@@UAEPAXI@Z 0042a600 f i NetConnect.obj
 0001:00029600       ??_GCNetConnect@@UAEPAXI@Z 0042a600 f i NetConnect.obj
 0001:00029620       ??1CNetConnect@@UAE@XZ     0042a620 f   NetConnect.obj
 0001:00029640       ?_NotifyClientConnectCreate@CNetConnect@@QAEXXZ 0042a640 f   NetConnect.obj
 0001:00029650       ?_NotifyClientConnectClose@CNetConnect@@QAEXXZ 0042a650 f   NetConnect.obj
 0001:00029670       ?OnMessage@CNetConnect@@UAEJPAXI@Z 0042a670 f   NetConnect.obj
 0001:000296a0       ?Main@CNetConnect@@MAEKPAX@Z 0042a6a0 f   NetConnect.obj
 0001:000296e0       ?SendPackage@CNetConnect@@QAEHPBXI@Z 0042a6e0 f   NetConnect.obj
 0001:00029730       ?IsReady@CNetConnect@@QBEHXZ 0042a730 f   NetConnect.obj
 0001:00029760       ?DoRoute@CNetConnect@@AAEHXZ 0042a760 f   NetConnect.obj
 0001:000297f0       ?Route@CNetConnect@@QAEHXZ 0042a7f0 f   NetConnect.obj
 0001:00029830       ??0CNetServer@@QAE@XZ      0042a830 f   NetServer.obj
 0001:00029910       ?OnBuildup@CNetServer@@MAEXXZ 0042a910 f i NetServer.obj
 0001:00029920       ?OnClearup@CNetServer@@MAEXXZ 0042a920 f i NetServer.obj
 0001:00029930       ?OnClientConnectCreate@CNetServer@@MAEXPAVCNetConnect@@@Z 0042a930 f i NetServer.obj
 0001:00029940       ?OnClientConnectClose@CNetServer@@MAEXPAVCNetConnect@@@Z 0042a940 f i NetServer.obj
 0001:00029950       ??_ECNetServer@@UAEPAXI@Z  0042a950 f i NetServer.obj
 0001:00029950       ??_GCNetServer@@UAEPAXI@Z  0042a950 f i NetServer.obj
 0001:00029970       ??1?$map@KPAVCNetConnect@@U?$less@K@std@@V?$allocator@PAVCNetConnect@@@3@@std@@QAE@XZ 0042a970 f i NetServer.obj
 0001:000299e0       ??1CNetServer@@UAE@XZ      0042a9e0 f   NetServer.obj
 0001:00029a90       ?ServerEventNotify@CNetServer@@CGXPAXABK1@Z 0042aa90 f   NetServer.obj
 0001:00029ad0       ?Startup@CNetServer@@QAEHIIIIKG@Z 0042aad0 f   NetServer.obj
 0001:00029c00       ?Shutdown@CNetServer@@QAEHXZ 0042ac00 f   NetServer.obj
 0001:00029cd0       ?Disconnect@CNetServer@@QAEHK@Z 0042acd0 f   NetServer.obj
 0001:00029d00       ?_NotifyClientConnectCreate@CNetServer@@AAEXK@Z 0042ad00 f   NetServer.obj
 0001:00029e40       ?_NotifyClientConnectClose@CNetServer@@AAEXK@Z 0042ae40 f   NetServer.obj
 0001:00029f20       ?GetConnectCount@CNetServer@@QAEIXZ 0042af20 f   NetServer.obj
 0001:00029f40       ?IsConnectReady@CNetServer@@QAEHK@Z 0042af40 f   NetServer.obj
 0001:00029fe0       ?FindNetConnect@CNetServer@@QAE?AVCNetConnectDup@@K@Z 0042afe0 f   NetServer.obj
 0001:0002a0c0       ?BroadPackage@CNetServer@@QAEHPBXI@Z 0042b0c0 f   NetServer.obj
 0001:0002a1c0       ?Route@CNetServer@@QAEHXZ  0042b1c0 f   NetServer.obj
 0001:0002a2b0       ?insert@?$_Tree@KU?$pair@$$CBKPAVCNetConnect@@@std@@U_Kfn@?$map@KPAVCNetConnect@@U?$less@K@std@@V?$allocator@PAVCNetConnect@@@3@@2@U?$less@K@2@V?$allocator@PAVCNetConnect@@@2@@std@@QAE?AU?$pair@Viterator@?$_Tree@KU?$pair@$$CBKPAVCNetConnect@@@std@@U_Kfn@?$map@KPAVCNetConnect@@U?$less@K@std@@V?$allocator@PAVCNetConnect@@@3@@2@U?$less@K@2@V?$allocator@PAVCNetConnect@@@2@@std@@_N@2@ABU?$pair@$$CBKPAVCNetConnect@@@2@@Z 0042b2b0 f i NetServer.obj
 0001:0002a3e0       ?erase@?$_Tree@KU?$pair@$$CBKPAVCNetConnect@@@std@@U_Kfn@?$map@KPAVCNetConnect@@U?$less@K@std@@V?$allocator@PAVCNetConnect@@@3@@2@U?$less@K@2@V?$allocator@PAVCNetConnect@@@2@@std@@QAE?AViterator@12@V312@@Z 0042b3e0 f i NetServer.obj
 0001:0002a900       ?erase@?$_Tree@KU?$pair@$$CBKPAVCNetConnect@@@std@@U_Kfn@?$map@KPAVCNetConnect@@U?$less@K@std@@V?$allocator@PAVCNetConnect@@@3@@2@U?$less@K@2@V?$allocator@PAVCNetConnect@@@2@@std@@QAE?AViterator@12@V312@0@Z 0042b900 f i NetServer.obj
 0001:0002aa30       ?find@?$_Tree@KU?$pair@$$CBKPAVCNetConnect@@@std@@U_Kfn@?$map@KPAVCNetConnect@@U?$less@K@std@@V?$allocator@PAVCNetConnect@@@3@@2@U?$less@K@2@V?$allocator@PAVCNetConnect@@@2@@std@@QAE?AViterator@12@ABK@Z 0042ba30 f i NetServer.obj
 0001:0002aa80       ?lower_bound@?$_Tree@KU?$pair@$$CBKPAVCNetConnect@@@std@@U_Kfn@?$map@KPAVCNetConnect@@U?$less@K@std@@V?$allocator@PAVCNetConnect@@@3@@2@U?$less@K@2@V?$allocator@PAVCNetConnect@@@2@@std@@QAE?AViterator@12@ABK@Z 0042ba80 f i NetServer.obj
 0001:0002aaa0       ?_Erase@?$_Tree@KU?$pair@$$CBKPAVCNetConnect@@@std@@U_Kfn@?$map@KPAVCNetConnect@@U?$less@K@std@@V?$allocator@PAVCNetConnect@@@3@@2@U?$less@K@2@V?$allocator@PAVCNetConnect@@@2@@std@@IAEXPAU_Node@12@@Z 0042baa0 f i NetServer.obj
 0001:0002ab30       ?_Insert@?$_Tree@KU?$pair@$$CBKPAVCNetConnect@@@std@@U_Kfn@?$map@KPAVCNetConnect@@U?$less@K@std@@V?$allocator@PAVCNetConnect@@@3@@2@U?$less@K@2@V?$allocator@PAVCNetConnect@@@2@@std@@IAE?AViterator@12@PAU_Node@12@0ABU?$pair@$$CBKPAVCNetConnect@@@2@@Z 0042bb30 f i NetServer.obj
 0001:0002ae30       ?_Min@?$_Tree@KU?$pair@$$CBKPAVCNetConnect@@@std@@U_Kfn@?$map@KPAVCNetConnect@@U?$less@K@std@@V?$allocator@PAVCNetConnect@@@3@@2@U?$less@K@2@V?$allocator@PAVCNetConnect@@@2@@std@@KAPAU_Node@12@PAU312@@Z 0042be30 f i NetServer.obj
 0001:0002ae70       ?_Inc@const_iterator@?$_Tree@KU?$pair@$$CBKPAVCNetConnect@@@std@@U_Kfn@?$map@KPAVCNetConnect@@U?$less@K@std@@V?$allocator@PAVCNetConnect@@@3@@2@U?$less@K@2@V?$allocator@PAVCNetConnect@@@2@@std@@QAEXXZ 0042be70 f i NetServer.obj
 0001:0002af20       ?_Lbound@?$_Tree@KU?$pair@$$CBKPAVCNetConnect@@@std@@U_Kfn@?$map@KPAVCNetConnect@@U?$less@K@std@@V?$allocator@PAVCNetConnect@@@3@@2@U?$less@K@2@V?$allocator@PAVCNetConnect@@@2@@std@@IBEPAU_Node@12@ABK@Z 0042bf20 f i NetServer.obj
 0001:0002af70       ?_Dec@const_iterator@?$_Tree@KU?$pair@$$CBKPAVCNetConnect@@@std@@U_Kfn@?$map@KPAVCNetConnect@@U?$less@K@std@@V?$allocator@PAVCNetConnect@@@3@@2@U?$less@K@2@V?$allocator@PAVCNetConnect@@@2@@std@@QAEXXZ 0042bf70 f i NetServer.obj
 0001:0002b030       ?_Construct@std@@YAXPAU?$pair@$$CBKPAVCNetConnect@@@1@ABU21@@Z 0042c030 f i NetServer.obj
 0001:0002b080       ??0CNetSockDupEx@@QAE@XZ   0042c080 f   NetSockDupEx.obj
 0001:0002b0b0       ??_ECNetSockDupEx@@UAEPAXI@Z 0042c0b0 f i NetSockDupEx.obj
 0001:0002b0b0       ??_GCNetSockDupEx@@UAEPAXI@Z 0042c0b0 f i NetSockDupEx.obj
 0001:0002b0d0       ??0CNetSockDupEx@@QAE@ABVCNetConnectDup@@@Z 0042c0d0 f   NetSockDupEx.obj
 0001:0002b120       ??0CNetSockDupEx@@QAE@ABVCNetClientDup@@@Z 0042c120 f   NetSockDupEx.obj
 0001:0002b1a0       ??0CNetSockDupEx@@QAE@ABV0@@Z 0042c1a0 f   NetSockDupEx.obj
 0001:0002b230       ??1CNetSockDupEx@@UAE@XZ   0042c230 f   NetSockDupEx.obj
 0001:0002b2b0       ?GetSockType@CNetSockDupEx@@QBE?AW4SOCKTYPE@1@XZ 0042c2b0 f   NetSockDupEx.obj
 0001:0002b2d0       ?SendPackage@CNetSockDupEx@@QBEHPBXI@Z 0042c2d0 f   NetSockDupEx.obj
 0001:0002b310       ?GetSockIP@CNetSockDupEx@@QBEKXZ 0042c310 f   NetSockDupEx.obj
 0001:0002b330       ?GetSockParam@CNetSockDupEx@@QBEKXZ 0042c330 f   NetSockDupEx.obj
 0001:0002b340       ??4CNetSockDupEx@@QAEAAV0@ABVCNetConnectDup@@@Z 0042c340 f   NetSockDupEx.obj
 0001:0002b3a0       ??4CNetSockDupEx@@QAEAAV0@ABVCNetClientDup@@@Z 0042c3a0 f   NetSockDupEx.obj
 0001:0002b410       ??4CNetSockDupEx@@QAEAAV0@ABV0@@Z 0042c410 f   NetSockDupEx.obj
 0001:0002b4d0       ??0CRainbowLib@@QAE@XZ     0042c4d0 f   RainbowLib.obj
 0001:0002b4f0       ??_ECRainbowLib@@UAEPAXI@Z 0042c4f0 f i RainbowLib.obj
 0001:0002b4f0       ??_GCRainbowLib@@UAEPAXI@Z 0042c4f0 f i RainbowLib.obj
 0001:0002b510       ??1CRainbowLib@@UAE@XZ     0042c510 f   RainbowLib.obj
 0001:0002b520       ?Initialize@CRainbowLib@@QAEHXZ 0042c520 f   RainbowLib.obj
 0001:0002b560       ?Uninitialize@CRainbowLib@@QAEHXZ 0042c560 f   RainbowLib.obj
 0001:0002b590       ?CreateInterface@CRainbowLib@@QAEJABU_GUID@@PAPAX@Z 0042c590 f   RainbowLib.obj
 0001:0002b5e0       ??0CRelayCenter@@QAE@XZ    0042c5e0 f   RelayCenter.obj
 0001:0002b6e0       ??_GCRelayCenter@@UAEPAXI@Z 0042c6e0 f i RelayCenter.obj
 0001:0002b6e0       ??_ECRelayCenter@@UAEPAXI@Z 0042c6e0 f i RelayCenter.obj
 0001:0002b700       ??1?$map@KPAVCRelayClient@@U?$less@K@std@@V?$allocator@PAVCRelayClient@@@3@@std@@QAE@XZ 0042c700 f i RelayCenter.obj
 0001:0002b770       ??1CRelayCenter@@UAE@XZ    0042c770 f   RelayCenter.obj
 0001:0002b840       ?OnBuildup@CRelayCenter@@MAEXXZ 0042c840 f   RelayCenter.obj
 0001:0002b860       ?OnClearup@CRelayCenter@@MAEXXZ 0042c860 f   RelayCenter.obj
 0001:0002b8e0       ?OnServerEventCreate@CRelayCenter@@MAEXPAVCNetClient@@@Z 0042c8e0 f   RelayCenter.obj
 0001:0002b970       ?OnServerEventClose@CRelayCenter@@MAEXPAVCNetClient@@@Z 0042c970 f   RelayCenter.obj
 0001:0002ba30       ?FindRelayClientByIP@CRelayCenter@@QAEHKPAVCNetClientDup@@@Z 0042ca30 f   RelayCenter.obj
 0001:0002bb40       ?TraceInfo@CRelayCenter@@QAEHXZ 0042cb40 f   RelayCenter.obj
 0001:0002bda0       ?erase@?$_Tree@KU?$pair@$$CBKPAVCRelayClient@@@std@@U_Kfn@?$map@KPAVCRelayClient@@U?$less@K@std@@V?$allocator@PAVCRelayClient@@@3@@2@U?$less@K@2@V?$allocator@PAVCRelayClient@@@2@@std@@QAE?AViterator@12@V312@0@Z 0042cda0 f i RelayCenter.obj
 0001:0002bed0       ?insert@?$_Tree@KU?$pair@$$CBKPAVCRelayClient@@@std@@U_Kfn@?$map@KPAVCRelayClient@@U?$less@K@std@@V?$allocator@PAVCRelayClient@@@3@@2@U?$less@K@2@V?$allocator@PAVCRelayClient@@@2@@std@@QAE?AU?$pair@Viterator@?$_Tree@KU?$pair@$$CBKPAVCRelayClient@@@std@@U_Kfn@?$map@KPAVCRelayClient@@U?$less@K@std@@V?$allocator@PAVCRelayClient@@@3@@2@U?$less@K@2@V?$allocator@PAVCRelayClient@@@2@@std@@_N@2@ABU?$pair@$$CBKPAVCRelayClient@@@2@@Z 0042ced0 f i RelayCenter.obj
 0001:0002c000       ?erase@?$_Tree@KU?$pair@$$CBKPAVCRelayClient@@@std@@U_Kfn@?$map@KPAVCRelayClient@@U?$less@K@std@@V?$allocator@PAVCRelayClient@@@3@@2@U?$less@K@2@V?$allocator@PAVCRelayClient@@@2@@std@@QAE?AViterator@12@V312@@Z 0042d000 f i RelayCenter.obj
 0001:0002c520       ?lower_bound@?$_Tree@KU?$pair@$$CBKPAVCRelayClient@@@std@@U_Kfn@?$map@KPAVCRelayClient@@U?$less@K@std@@V?$allocator@PAVCRelayClient@@@3@@2@U?$less@K@2@V?$allocator@PAVCRelayClient@@@2@@std@@QAE?AViterator@12@ABK@Z 0042d520 f i RelayCenter.obj
 0001:0002c540       ?_Erase@?$_Tree@KU?$pair@$$CBKPAVCRelayClient@@@std@@U_Kfn@?$map@KPAVCRelayClient@@U?$less@K@std@@V?$allocator@PAVCRelayClient@@@3@@2@U?$less@K@2@V?$allocator@PAVCRelayClient@@@2@@std@@IAEXPAU_Node@12@@Z 0042d540 f i RelayCenter.obj
 0001:0002c5d0       ?_Inc@const_iterator@?$_Tree@KU?$pair@$$CBKPAVCRelayClient@@@std@@U_Kfn@?$map@KPAVCRelayClient@@U?$less@K@std@@V?$allocator@PAVCRelayClient@@@3@@2@U?$less@K@2@V?$allocator@PAVCRelayClient@@@2@@std@@QAEXXZ 0042d5d0 f i RelayCenter.obj
 0001:0002c680       ?_Insert@?$_Tree@KU?$pair@$$CBKPAVCRelayClient@@@std@@U_Kfn@?$map@KPAVCRelayClient@@U?$less@K@std@@V?$allocator@PAVCRelayClient@@@3@@2@U?$less@K@2@V?$allocator@PAVCRelayClient@@@2@@std@@IAE?AViterator@12@PAU_Node@12@0ABU?$pair@$$CBKPAVCRelayClient@@@2@@Z 0042d680 f i RelayCenter.obj
 0001:0002c980       ?_Lbound@?$_Tree@KU?$pair@$$CBKPAVCRelayClient@@@std@@U_Kfn@?$map@KPAVCRelayClient@@U?$less@K@std@@V?$allocator@PAVCRelayClient@@@3@@2@U?$less@K@2@V?$allocator@PAVCRelayClient@@@2@@std@@IBEPAU_Node@12@ABK@Z 0042d980 f i RelayCenter.obj
 0001:0002c9d0       ?_Ubound@?$_Tree@KU?$pair@$$CBKPAVCRelayClient@@@std@@U_Kfn@?$map@KPAVCRelayClient@@U?$less@K@std@@V?$allocator@PAVCRelayClient@@@3@@2@U?$less@K@2@V?$allocator@PAVCRelayClient@@@2@@std@@IBEPAU_Node@12@ABK@Z 0042d9d0 f i RelayCenter.obj
 0001:0002ca20       ?_Dec@const_iterator@?$_Tree@KU?$pair@$$CBKPAVCRelayClient@@@std@@U_Kfn@?$map@KPAVCRelayClient@@U?$less@K@std@@V?$allocator@PAVCRelayClient@@@3@@2@U?$less@K@2@V?$allocator@PAVCRelayClient@@@2@@std@@QAEXXZ 0042da20 f i RelayCenter.obj
 0001:0002cae0       ?_Construct@std@@YAXPAU?$pair@$$CBKPAVCRelayClient@@@1@ABU21@@Z 0042dae0 f i RelayCenter.obj
 0001:0002cb30       ??0CRelayClient@@QAE@PAVCRelayCenter@@H@Z 0042db30 f   RelayClient.obj
 0001:0002cb50       ?DeleteThis@CRelayClient@@MAEXXZ 0042db50 f i RelayClient.obj
 0001:0002cb60       ??_ECRelayClient@@UAEPAXI@Z 0042db60 f i RelayClient.obj
 0001:0002cb60       ??_GCRelayClient@@UAEPAXI@Z 0042db60 f i RelayClient.obj
 0001:0002cb80       ??1CRelayClient@@UAE@XZ    0042db80 f   RelayClient.obj
 0001:0002cb90       ?OnStartupFail@CRelayClient@@MAEXXZ 0042db90 f   RelayClient.obj
 0001:0002cbb0       ?OnShutdownFail@CRelayClient@@MAEXXZ 0042dbb0 f   RelayClient.obj
 0001:0002cbd0       ?OnServerEventCreate@CRelayClient@@MAEXXZ 0042dbd0 f   RelayClient.obj
 0001:0002cbf0       ?OnServerEventClose@CRelayClient@@MAEXXZ 0042dbf0 f   RelayClient.obj
 0001:0002cc10       ?RecvPackage@CRelayClient@@MAEXPBXI@Z 0042dc10 f   RelayClient.obj
 0001:0002cc60       ??0CRelayConnect@@QAE@PAVCRelayServer@@K@Z 0042dc60 f   RelayConnect.obj
 0001:0002cc90       ??_ECRelayConnect@@UAEPAXI@Z 0042dc90 f i RelayConnect.obj
 0001:0002cc90       ??_GCRelayConnect@@UAEPAXI@Z 0042dc90 f i RelayConnect.obj
 0001:0002ccb0       ??1CRelayConnect@@UAE@XZ   0042dcb0 f   RelayConnect.obj
 0001:0002ccd0       ?OnClientConnectCreate@CRelayConnect@@MAEXXZ 0042dcd0 f   RelayConnect.obj
 0001:0002ccf0       ?OnClientConnectClose@CRelayConnect@@MAEXXZ 0042dcf0 f   RelayConnect.obj
 0001:0002cd10       ?RecvPackage@CRelayConnect@@MAEXPBXI@Z 0042dd10 f   RelayConnect.obj
 0001:0002cd60       ??0CRelayServer@@QAE@XZ    0042dd60 f   RelayServer.obj
 0001:0002ce40       ??_GCRelayServer@@UAEPAXI@Z 0042de40 f i RelayServer.obj
 0001:0002ce40       ??_ECRelayServer@@UAEPAXI@Z 0042de40 f i RelayServer.obj
 0001:0002ce60       ??1?$map@KPAVCRelayConnect@@U?$less@K@std@@V?$allocator@PAVCRelayConnect@@@3@@std@@QAE@XZ 0042de60 f i RelayServer.obj
 0001:0002ced0       ??1CRelayServer@@UAE@XZ    0042ded0 f   RelayServer.obj
 0001:0002cf90       ?CreateConnect@CRelayServer@@EAEPAVCNetConnect@@PAVCNetServer@@K@Z 0042df90 f   RelayServer.obj
 0001:0002d000       ?DestroyConnect@CRelayServer@@EAEXPAVCNetConnect@@@Z 0042e000 f   RelayServer.obj
 0001:0002d020       ?OnBuildup@CRelayServer@@EAEXXZ 0042e020 f   RelayServer.obj
 0001:0002d080       ?OnClearup@CRelayServer@@EAEXXZ 0042e080 f   RelayServer.obj
 0001:0002d100       ?OnClientConnectCreate@CRelayServer@@EAEXPAVCNetConnect@@@Z 0042e100 f   RelayServer.obj
 0001:0002d190       ?OnClientConnectClose@CRelayServer@@EAEXPAVCNetConnect@@@Z 0042e190 f   RelayServer.obj
 0001:0002d240       ?FindRelayConnectByIP@CRelayServer@@QAEHKPAVCNetConnectDup@@@Z 0042e240 f   RelayServer.obj
 0001:0002d340       ?TraceInfo@CRelayServer@@QAEHXZ 0042e340 f   RelayServer.obj
 0001:0002d590       ?erase@?$_Tree@KU?$pair@$$CBKPAVCRelayConnect@@@std@@U_Kfn@?$map@KPAVCRelayConnect@@U?$less@K@std@@V?$allocator@PAVCRelayConnect@@@3@@2@U?$less@K@2@V?$allocator@PAVCRelayConnect@@@2@@std@@QAE?AViterator@12@V312@0@Z 0042e590 f i RelayServer.obj
 0001:0002d6c0       ?insert@?$_Tree@KU?$pair@$$CBKPAVCRelayConnect@@@std@@U_Kfn@?$map@KPAVCRelayConnect@@U?$less@K@std@@V?$allocator@PAVCRelayConnect@@@3@@2@U?$less@K@2@V?$allocator@PAVCRelayConnect@@@2@@std@@QAE?AU?$pair@Viterator@?$_Tree@KU?$pair@$$CBKPAVCRelayConnect@@@std@@U_Kfn@?$map@KPAVCRelayConnect@@U?$less@K@std@@V?$allocator@PAVCRelayConnect@@@3@@2@U?$less@K@2@V?$allocator@PAVCRelayConnect@@@2@@std@@_N@2@ABU?$pair@$$CBKPAVCRelayConnect@@@2@@Z 0042e6c0 f i RelayServer.obj
 0001:0002d7f0       ?erase@?$_Tree@KU?$pair@$$CBKPAVCRelayConnect@@@std@@U_Kfn@?$map@KPAVCRelayConnect@@U?$less@K@std@@V?$allocator@PAVCRelayConnect@@@3@@2@U?$less@K@2@V?$allocator@PAVCRelayConnect@@@2@@std@@QAE?AViterator@12@V312@@Z 0042e7f0 f i RelayServer.obj
 0001:0002dd10       ?lower_bound@?$_Tree@KU?$pair@$$CBKPAVCRelayConnect@@@std@@U_Kfn@?$map@KPAVCRelayConnect@@U?$less@K@std@@V?$allocator@PAVCRelayConnect@@@3@@2@U?$less@K@2@V?$allocator@PAVCRelayConnect@@@2@@std@@QAE?AViterator@12@ABK@Z 0042ed10 f i RelayServer.obj
 0001:0002dd30       ?_Erase@?$_Tree@KU?$pair@$$CBKPAVCRelayConnect@@@std@@U_Kfn@?$map@KPAVCRelayConnect@@U?$less@K@std@@V?$allocator@PAVCRelayConnect@@@3@@2@U?$less@K@2@V?$allocator@PAVCRelayConnect@@@2@@std@@IAEXPAU_Node@12@@Z 0042ed30 f i RelayServer.obj
 0001:0002ddc0       ?_Inc@const_iterator@?$_Tree@KU?$pair@$$CBKPAVCRelayConnect@@@std@@U_Kfn@?$map@KPAVCRelayConnect@@U?$less@K@std@@V?$allocator@PAVCRelayConnect@@@3@@2@U?$less@K@2@V?$allocator@PAVCRelayConnect@@@2@@std@@QAEXXZ 0042edc0 f i RelayServer.obj
 0001:0002de70       ?_Insert@?$_Tree@KU?$pair@$$CBKPAVCRelayConnect@@@std@@U_Kfn@?$map@KPAVCRelayConnect@@U?$less@K@std@@V?$allocator@PAVCRelayConnect@@@3@@2@U?$less@K@2@V?$allocator@PAVCRelayConnect@@@2@@std@@IAE?AViterator@12@PAU_Node@12@0ABU?$pair@$$CBKPAVCRelayConnect@@@2@@Z 0042ee70 f i RelayServer.obj
 0001:0002e170       ?_Lbound@?$_Tree@KU?$pair@$$CBKPAVCRelayConnect@@@std@@U_Kfn@?$map@KPAVCRelayConnect@@U?$less@K@std@@V?$allocator@PAVCRelayConnect@@@3@@2@U?$less@K@2@V?$allocator@PAVCRelayConnect@@@2@@std@@IBEPAU_Node@12@ABK@Z 0042f170 f i RelayServer.obj
 0001:0002e1c0       ?_Ubound@?$_Tree@KU?$pair@$$CBKPAVCRelayConnect@@@std@@U_Kfn@?$map@KPAVCRelayConnect@@U?$less@K@std@@V?$allocator@PAVCRelayConnect@@@3@@2@U?$less@K@2@V?$allocator@PAVCRelayConnect@@@2@@std@@IBEPAU_Node@12@ABK@Z 0042f1c0 f i RelayServer.obj
 0001:0002e210       ?_Dec@const_iterator@?$_Tree@KU?$pair@$$CBKPAVCRelayConnect@@@std@@U_Kfn@?$map@KPAVCRelayConnect@@U?$less@K@std@@V?$allocator@PAVCRelayConnect@@@3@@2@U?$less@K@2@V?$allocator@PAVCRelayConnect@@@2@@std@@QAEXXZ 0042f210 f i RelayServer.obj
 0001:0002e2d0       ?_Construct@std@@YAXPAU?$pair@$$CBKPAVCRelayConnect@@@1@ABU21@@Z 0042f2d0 f i RelayServer.obj
 0001:0002e320       ??0CRootCenter@@QAE@XZ     0042f320 f   RootCenter.obj
 0001:0002e340       ??_ECRootCenter@@UAEPAXI@Z 0042f340 f i RootCenter.obj
 0001:0002e340       ??_GCRootCenter@@UAEPAXI@Z 0042f340 f i RootCenter.obj
 0001:0002e360       ??1CRootCenter@@UAE@XZ     0042f360 f   RootCenter.obj
 0001:0002e370       ?TraceInfo@CRootCenter@@QAEHXZ 0042f370 f   RootCenter.obj
 0001:0002e5a0       ??0CRootClient@@QAE@PAVCRootCenter@@H@Z 0042f5a0 f   RootClient.obj
 0001:0002e5d0       ??_GCRootClient@@UAEPAXI@Z 0042f5d0 f i RootClient.obj
 0001:0002e5d0       ??_ECRootClient@@UAEPAXI@Z 0042f5d0 f i RootClient.obj
 0001:0002e5f0       ??1CRootClient@@UAE@XZ     0042f5f0 f   RootClient.obj
 0001:0002e600       ?OnServerEventCreate@CRootClient@@MAEXXZ 0042f600 f   RootClient.obj
 0001:0002e6e0       ?OnServerEventClose@CRootClient@@MAEXXZ 0042f6e0 f   RootClient.obj
 0001:0002e710       ?StartAutoTime@CRootClient@@IAEHXZ 0042f710 f   RootClient.obj
 0001:0002e750       ?StopAutoTime@CRootClient@@IAEHXZ 0042f750 f   RootClient.obj
 0001:0002e780       ?IsStartAutoTime@CRootClient@@IAEHXZ 0042f780 f   RootClient.obj
 0001:0002e790       ?AutoTime@CRootClient@@IAEXXZ 0042f790 f   RootClient.obj
 0001:0002e830       ?BeginRoute@CRootClient@@MAEXXZ 0042f830 f   RootClient.obj
 0001:0002e840       ?EndRoute@CRootClient@@MAEXXZ 0042f840 f   RootClient.obj
 0001:0002e850       ?RecvPackage@CRootClient@@MAEXPBXI@Z 0042f850 f   RootClient.obj
 0001:0002e890       ?Proc0_Normal@CRootClient@@AAEXPBXI@Z 0042f890 f   RootClient.obj
 0001:0002eaa0       ?Proc0_Relay@CRootClient@@AAEXPBXI@Z 0042faa0 f   RootClient.obj
 0001:0002eae0       ?Proc2_Relay_Data_Here@CRootClient@@AAEXPBXI@Z 0042fae0 f   RootClient.obj
 0001:0002ecf0       ?Proc1_Relay_Data@CRootClient@@AAEXPBXI@Z 0042fcf0 f   RootClient.obj
 0001:0002ee10       ?Proc1_Relay_AskWay@CRootClient@@AAEXPBXI@Z 0042fe10 f   RootClient.obj
 0001:0002ee50       ?Proc1_Relay_LoseWay@CRootClient@@AAEXPBXI@Z 0042fe50 f   RootClient.obj
 0001:0002ef20       ?Proc2_Relay_AskWay_AccountRoleID@CRootClient@@AAEXPBXIH@Z 0042ff20 f   RootClient.obj
 0001:0002f0e0       ?Proc0_PlayerCommunity@CRootClient@@AAEXPBXI@Z 004300e0 f   RootClient.obj
 0001:0002f330       ?gTrackRecvData@@YAXPBXI@Z 00430330 f   S3Relay.obj
 0001:0002f360       ?gTrackSendData@@YAXPBXI@Z 00430360 f   S3Relay.obj
 0001:0002f390       ?gGetRecvDataSize@@YAIXZ   00430390 f   S3Relay.obj
 0001:0002f3c0       ?gGetSendDataSize@@YAIXZ   004303c0 f   S3Relay.obj
 0001:0002f510       _WinMain@16                00430510 f   S3Relay.obj
 0001:0002f890       ?gTrace@@YAHPBDZZ          00430890 f   S3Relay.obj
 0001:0002f9d0       ?MyRegisterClass@@YAGPAUHINSTANCE__@@@Z 004309d0 f   S3Relay.obj
 0001:0002fa60       ?gTimeStamp@@YAHPAD0@Z     00430a60 f   S3Relay.obj
 0001:0002fab0       ?gTraceLogFile@@YAXPBDJ@Z  00430ab0 f   S3Relay.obj
 0001:0002fb30       ?gClearTrace@@YAXXZ        00430b30 f   S3Relay.obj
 0001:0002fb50       ?gShowTrace@@YAXXZ         00430b50 f   S3Relay.obj
 0001:0002fd00       ?InitInstance@@YAHPAUHINSTANCE__@@H@Z 00430d00 f   S3Relay.obj
 0001:0002fe20       ?WndProc@@YGJPAUHWND__@@IIJ@Z 00430e20 f   S3Relay.obj
 0001:00030820       ?About@@YGJPAUHWND__@@IIJ@Z 00431820 f   S3Relay.obj
 0001:00030860       ?Login@@YGJPAUHWND__@@IIJ@Z 00431860 f   S3Relay.obj
 0001:00030a60       ?gGetMainWnd@@YAPAUHWND__@@XZ 00431a60 f   S3Relay.obj
 0001:00030a70       ?gGetListBox@@YAPAUHWND__@@XZ 00431a70 f   S3Relay.obj
 0001:00030ab0       ??0CSockThread@@QAE@XZ     00431ab0 f   SockThread.obj
 0001:00030ad0       ?EnterLoop@CSockThread@@MAEXXZ 00431ad0 f i SockThread.obj
 0001:00030ae0       ?LeaveLoop@CSockThread@@MAEXXZ 00431ae0 f i SockThread.obj
 0001:00030af0       ?PrepareSock@CSockThread@@MAEXXZ 00431af0 f i SockThread.obj
 0001:00030b00       ?UnprepareSock@CSockThread@@MAEXXZ 00431b00 f i SockThread.obj
 0001:00030b10       ??_ECSockThread@@UAEPAXI@Z 00431b10 f i SockThread.obj
 0001:00030b10       ??_GCSockThread@@UAEPAXI@Z 00431b10 f i SockThread.obj
 0001:00030b30       ??1CSockThread@@UAE@XZ     00431b30 f   SockThread.obj
 0001:00030b40       ?Main@CSockThread@@MAEKPAX@Z 00431b40 f   SockThread.obj
 0001:00030c80       ?Start@CSockThread@@UAEPAXXZ 00431c80 f   SockThread.obj
 0001:00030cc0       ?Stop@CSockThread@@UAEHXZ  00431cc0 f   SockThread.obj
 0001:00030d10       ?TraceInfo@CSockThread@@QAEHXZ 00431d10 f   SockThread.obj
 0001:00030da0       ??0CTongConnect@@QAE@PAVCTongServer@@K@Z 00431da0 f   TongConnect.obj
 0001:00030dd0       ??_GCTongConnect@@UAEPAXI@Z 00431dd0 f i TongConnect.obj
 0001:00030dd0       ??_ECTongConnect@@UAEPAXI@Z 00431dd0 f i TongConnect.obj
 0001:00030df0       ??1CTongConnect@@UAE@XZ    00431df0 f   TongConnect.obj
 0001:00030e10       ?OnClientConnectCreate@CTongConnect@@MAEXXZ 00431e10 f   TongConnect.obj
 0001:00030e30       ?OnClientConnectClose@CTongConnect@@MAEXXZ 00431e30 f   TongConnect.obj
 0001:00030e50       ?RecvPackage@CTongConnect@@MAEXPBXI@Z 00431e50 f   TongConnect.obj
 0001:00030e80       ?PassToSomeone@CTongConnect@@AAEHKKKPBXI@Z 00431e80 f   TongConnect.obj
 0001:00030fd0       ?Proc0_Tong@CTongConnect@@AAEXPBXI@Z 00431fd0 f   TongConnect.obj
 0001:00031810       ?Proc0_Friend@CTongConnect@@AAEXPBXI@Z 00432810 f   TongConnect.obj
 0001:000318a0       ?Proc1_Friend_AskAddFriend@CTongConnect@@AAEXPBXI@Z 004328a0 f   TongConnect.obj
 0001:00031c20       ?Proc1_Friend_RepAddFriend@CTongConnect@@AAEXPBXI@Z 00432c20 f   TongConnect.obj
 0001:00031f00       ?Proc1_Friend_GroupFriend@CTongConnect@@AAEXPBXI@Z 00432f00 f   TongConnect.obj
 0001:00032150       ?Proc1_Friend_EraseFriend@CTongConnect@@AAEXPBXI@Z 00433150 f   TongConnect.obj
 0001:000322a0       ?Proc1_Friend_AskSyncFriendList@CTongConnect@@AAEXPBXI@Z 004332a0 f   TongConnect.obj
 0001:000323b0       ?Proc1_Friend_Associate@CTongConnect@@AAEXPBXI@Z 004333b0 f   TongConnect.obj
 0001:00032790       ?Proc1_Friend_AssociateBevy@CTongConnect@@AAEXPBXI@Z 00433790 f   TongConnect.obj
 0001:00032bf0       ??1?$vector@V?$basic_string@DU?$char_traits@D@std@@V?$allocator@D@2@@std@@V?$allocator@V?$basic_string@DU?$char_traits@D@std@@V?$allocator@D@2@@std@@@2@@std@@QAE@XZ 00433bf0 f i TongConnect.obj
 0001:00032c50       ?insert@?$vector@V?$basic_string@DU?$char_traits@D@std@@V?$allocator@D@2@@std@@V?$allocator@V?$basic_string@DU?$char_traits@D@std@@V?$allocator@D@2@@std@@@2@@std@@QAEPAV?$basic_string@DU?$char_traits@D@std@@V?$allocator@D@2@@2@PAV32@ABV32@@Z 00433c50 f i TongConnect.obj
 0001:00032de0       ?size@?$vector@V?$basic_string@DU?$char_traits@D@std@@V?$allocator@D@2@@std@@V?$allocator@V?$basic_string@DU?$char_traits@D@std@@V?$allocator@D@2@@std@@@2@@std@@QBEIXZ 00433de0 f i TongConnect.obj
 0001:00032e00       ?_Ucopy@?$vector@V?$basic_string@DU?$char_traits@D@std@@V?$allocator@D@2@@std@@V?$allocator@V?$basic_string@DU?$char_traits@D@std@@V?$allocator@D@2@@std@@@2@@std@@IAEPAV?$basic_string@DU?$char_traits@D@std@@V?$allocator@D@2@@2@PBV32@0PAV32@@Z 00433e00 f i TongConnect.obj
 0001:00032e40       ?_Ufill@?$vector@V?$basic_string@DU?$char_traits@D@std@@V?$allocator@D@2@@std@@V?$allocator@V?$basic_string@DU?$char_traits@D@std@@V?$allocator@D@2@@std@@@2@@std@@IAEXPAV?$basic_string@DU?$char_traits@D@std@@V?$allocator@D@2@@2@IABV32@@Z 00433e40 f i TongConnect.obj
 0001:00032e70       ?fill@std@@YAXPAV?$basic_string@DU?$char_traits@D@std@@V?$allocator@D@2@@1@0ABV21@@Z 00433e70 f i TongConnect.obj
 0001:00032fc0       ?copy_backward@std@@YAPAV?$basic_string@DU?$char_traits@D@std@@V?$allocator@D@2@@1@PAV21@00@Z 00433fc0 f i TongConnect.obj
 0001:00033150       ??0CTongServer@@QAE@XZ     00434150 f   TongServer.obj
 0001:00033230       ??_ECTongServer@@UAEPAXI@Z 00434230 f i TongServer.obj
 0001:00033230       ??_GCTongServer@@UAEPAXI@Z 00434230 f i TongServer.obj
 0001:00033250       ??1?$map@KPAVCTongConnect@@U?$less@K@std@@V?$allocator@PAVCTongConnect@@@3@@std@@QAE@XZ 00434250 f i TongServer.obj
 0001:000332c0       ??1CTongServer@@UAE@XZ     004342c0 f   TongServer.obj
 0001:00033380       ?CreateConnect@CTongServer@@MAEPAVCNetConnect@@PAVCNetServer@@K@Z 00434380 f   TongServer.obj
 0001:000333f0       ?DestroyConnect@CTongServer@@MAEXPAVCNetConnect@@@Z 004343f0 f   TongServer.obj
 0001:00033410       ?OnBuildup@CTongServer@@MAEXXZ 00434410 f   TongServer.obj
 0001:00033470       ?OnClearup@CTongServer@@MAEXXZ 00434470 f   TongServer.obj
 0001:000334f0       ?OnClientConnectCreate@CTongServer@@MAEXPAVCNetConnect@@@Z 004344f0 f   TongServer.obj
 0001:00033580       ?OnClientConnectClose@CTongServer@@MAEXPAVCNetConnect@@@Z 00434580 f   TongServer.obj
 0001:00033630       ?FindTongConnectByIP@CTongServer@@QAE?AVCNetConnectDup@@K@Z 00434630 f   TongServer.obj
 0001:00033710       ?TraceInfo@CTongServer@@QAEHXZ 00434710 f   TongServer.obj
 0001:00033960       ?erase@?$_Tree@KU?$pair@$$CBKPAVCTongConnect@@@std@@U_Kfn@?$map@KPAVCTongConnect@@U?$less@K@std@@V?$allocator@PAVCTongConnect@@@3@@2@U?$less@K@2@V?$allocator@PAVCTongConnect@@@2@@std@@QAE?AViterator@12@V312@0@Z 00434960 f i TongServer.obj
 0001:00033a90       ?find@?$_Tree@KU?$pair@$$CBKPAVCTongConnect@@@std@@U_Kfn@?$map@KPAVCTongConnect@@U?$less@K@std@@V?$allocator@PAVCTongConnect@@@3@@2@U?$less@K@2@V?$allocator@PAVCTongConnect@@@2@@std@@QAE?AViterator@12@ABK@Z 00434a90 f i TongServer.obj
 0001:00033ae0       ?insert@?$_Tree@KU?$pair@$$CBKPAVCTongConnect@@@std@@U_Kfn@?$map@KPAVCTongConnect@@U?$less@K@std@@V?$allocator@PAVCTongConnect@@@3@@2@U?$less@K@2@V?$allocator@PAVCTongConnect@@@2@@std@@QAE?AU?$pair@Viterator@?$_Tree@KU?$pair@$$CBKPAVCTongConnect@@@std@@U_Kfn@?$map@KPAVCTongConnect@@U?$less@K@std@@V?$allocator@PAVCTongConnect@@@3@@2@U?$less@K@2@V?$allocator@PAVCTongConnect@@@2@@std@@_N@2@ABU?$pair@$$CBKPAVCTongConnect@@@2@@Z 00434ae0 f i TongServer.obj
 0001:00033c10       ?erase@?$_Tree@KU?$pair@$$CBKPAVCTongConnect@@@std@@U_Kfn@?$map@KPAVCTongConnect@@U?$less@K@std@@V?$allocator@PAVCTongConnect@@@3@@2@U?$less@K@2@V?$allocator@PAVCTongConnect@@@2@@std@@QAE?AViterator@12@V312@@Z 00434c10 f i TongServer.obj
 0001:00034130       ?_Erase@?$_Tree@KU?$pair@$$CBKPAVCTongConnect@@@std@@U_Kfn@?$map@KPAVCTongConnect@@U?$less@K@std@@V?$allocator@PAVCTongConnect@@@3@@2@U?$less@K@2@V?$allocator@PAVCTongConnect@@@2@@std@@IAEXPAU_Node@12@@Z 00435130 f i TongServer.obj
 0001:000341c0       ?_Inc@const_iterator@?$_Tree@KU?$pair@$$CBKPAVCTongConnect@@@std@@U_Kfn@?$map@KPAVCTongConnect@@U?$less@K@std@@V?$allocator@PAVCTongConnect@@@3@@2@U?$less@K@2@V?$allocator@PAVCTongConnect@@@2@@std@@QAEXXZ 004351c0 f i TongServer.obj
 0001:00034270       ?_Insert@?$_Tree@KU?$pair@$$CBKPAVCTongConnect@@@std@@U_Kfn@?$map@KPAVCTongConnect@@U?$less@K@std@@V?$allocator@PAVCTongConnect@@@3@@2@U?$less@K@2@V?$allocator@PAVCTongConnect@@@2@@std@@IAE?AViterator@12@PAU_Node@12@0ABU?$pair@$$CBKPAVCTongConnect@@@2@@Z 00435270 f i TongServer.obj
 0001:00034570       ?_Lbound@?$_Tree@KU?$pair@$$CBKPAVCTongConnect@@@std@@U_Kfn@?$map@KPAVCTongConnect@@U?$less@K@std@@V?$allocator@PAVCTongConnect@@@3@@2@U?$less@K@2@V?$allocator@PAVCTongConnect@@@2@@std@@IBEPAU_Node@12@ABK@Z 00435570 f i TongServer.obj
 0001:000345c0       ?_Ubound@?$_Tree@KU?$pair@$$CBKPAVCTongConnect@@@std@@U_Kfn@?$map@KPAVCTongConnect@@U?$less@K@std@@V?$allocator@PAVCTongConnect@@@3@@2@U?$less@K@2@V?$allocator@PAVCTongConnect@@@2@@std@@IBEPAU_Node@12@ABK@Z 004355c0 f i TongServer.obj
 0001:00034610       ?_Dec@const_iterator@?$_Tree@KU?$pair@$$CBKPAVCTongConnect@@@std@@U_Kfn@?$map@KPAVCTongConnect@@U?$less@K@std@@V?$allocator@PAVCTongConnect@@@3@@2@U?$less@K@2@V?$allocator@PAVCTongConnect@@@2@@std@@QAEXXZ 00435610 f i TongServer.obj
 0001:000346d0       ?_Construct@std@@YAXPAU?$pair@$$CBKPAVCTongConnect@@@1@ABU21@@Z 004356d0 f i TongServer.obj
 0001:00034720       ??0CTongControl@@QAE@HPAD0@Z 00435720 f   KTongControl.obj
 0001:000348d0       ??_ECTongControl@@UAEPAXI@Z 004358d0 f i KTongControl.obj
 0001:000348d0       ??_GCTongControl@@UAEPAXI@Z 004358d0 f i KTongControl.obj
 0001:000348f0       ??0CTongControl@@QAE@UTTongList@@@Z 004358f0 f   KTongControl.obj
 0001:00034a20       ??1CTongControl@@UAE@XZ    00435a20 f   KTongControl.obj
 0001:00034a40       ?AddMember@CTongControl@@QAEHPADH@Z 00435a40 f   KTongControl.obj
 0001:00034bc0       ?ChangePassword@CTongControl@@QAEHPAD0@Z 00435bc0 f   KTongControl.obj
 0001:00034c60       ?GetTongHeadInfo@CTongControl@@QAEHPAUSTONG_HEAD_INFO_SYNC@@@Z 00435c60 f   KTongControl.obj
 0001:00034dd0       ?GetTongManagerInfo@CTongControl@@QAEHPAUSTONG_GET_MANAGER_INFO_COMMAND@@PAUSTONG_MANAGER_INFO_SYNC@@@Z 00435dd0 f   KTongControl.obj
 0001:00034f90       ?GetTongMemberInfo@CTongControl@@QAEHPAUSTONG_GET_MEMBER_INFO_COMMAND@@PAUSTONG_MEMBER_INFO_SYNC@@@Z 00435f90 f   KTongControl.obj
 0001:000351f0       ?Instate@CTongControl@@QAEHPAUSTONG_INSTATE_COMMAND@@PAUSTONG_INSTATE_SYNC@@@Z 004361f0 f   KTongControl.obj
 0001:000360c0       ?Kick@CTongControl@@QAEHPAUSTONG_KICK_COMMAND@@PAUSTONG_KICK_SYNC@@@Z 004370c0 f   KTongControl.obj
 0001:000366b0       ?ChangeTitleFemale@CTongControl@@QAEHPAUSTONG_CHANGE_TITLE_FEMALE_COMMAND@@PAUSTONG_CHANGE_TITLE_FEMALE_SYNC@@@Z 004376b0 f   KTongControl.obj
 0001:00036730       ?ChangeTitleMale@CTongControl@@QAEHPAUSTONG_CHANGE_TITLE_MALE_COMMAND@@PAUSTONG_CHANGE_TITLE_MALE_SYNC@@@Z 00437730 f   KTongControl.obj
 0001:000367b0       ?ChangeTitle@CTongControl@@QAEHPAUSTONG_CHANGE_TITLE_COMMAND@@PAUSTONG_CHANGE_TITLE_SYNC@@@Z 004377b0 f   KTongControl.obj
 0001:00036930       ?Leave@CTongControl@@QAEHPAUSTONG_LEAVE_COMMAND@@PAUSTONG_LEAVE_SYNC@@@Z 00437930 f   KTongControl.obj
 0001:00036dd0       ?AcceptMaster@CTongControl@@QAEHPAUSTONG_ACCEPT_MASTER_COMMAND@@@Z 00437dd0 f   KTongControl.obj
 0001:00037a90       ?GetLoginData@CTongControl@@QAEHPAUSTONG_GET_LOGIN_DATA_COMMAND@@PAUSTONG_LOGIN_DATA_SYNC@@@Z 00438a90 f   KTongControl.obj
 0001:00037cd0       ?SearchOne@CTongControl@@QAEHPADPAUSTONG_ONE_LEADER_INFO@@@Z 00438cd0 f   KTongControl.obj
 0001:00037f30       ??0CTongSet@@QAE@XZ        00438f30 f   KTongSet.obj
 0001:00037f50       ??_GCTongSet@@UAEPAXI@Z    00438f50 f i KTongSet.obj
 0001:00037f50       ??_ECTongSet@@UAEPAXI@Z    00438f50 f i KTongSet.obj
 0001:00037f70       ??1CTongSet@@UAE@XZ        00438f70 f   KTongSet.obj
 0001:00037f80       ?Init@CTongSet@@QAEXXZ     00438f80 f   KTongSet.obj
 0001:00037fc0       ?DeleteAll@CTongSet@@QAEXXZ 00438fc0 f   KTongSet.obj
 0001:00038020       ?Create@CTongSet@@QAEHHPAD0H@Z 00439020 f   KTongSet.obj
 0001:00038360       ?AddMember@CTongSet@@QAEHPAD0H@Z 00439360 f   KTongSet.obj
 0001:00038700       ?GetTongCamp@CTongSet@@QAEHH@Z 00439700 f   KTongSet.obj
 0001:00038730       ?GetMasterName@CTongSet@@QAEHHPAD@Z 00439730 f   KTongSet.obj
 0001:00038790       ?GetMemberTitle@CTongSet@@QAEHHPAD@Z 00439790 f   KTongSet.obj
 0001:000387f0       ?GetTongHeadInfo@CTongSet@@QAEHKPAUSTONG_HEAD_INFO_SYNC@@@Z 004397f0 f   KTongSet.obj
 0001:00038840       ?GetTongManagerInfo@CTongSet@@QAEHPAUSTONG_GET_MANAGER_INFO_COMMAND@@PAUSTONG_MANAGER_INFO_SYNC@@@Z 00439840 f   KTongSet.obj
 0001:000388a0       ?GetTongMemberInfo@CTongSet@@QAEHPAUSTONG_GET_MEMBER_INFO_COMMAND@@PAUSTONG_MEMBER_INFO_SYNC@@@Z 004398a0 f   KTongSet.obj
 0001:00038900       ?Instate@CTongSet@@QAEHPAUSTONG_INSTATE_COMMAND@@PAUSTONG_INSTATE_SYNC@@@Z 00439900 f   KTongSet.obj
 0001:00038960       ?Kick@CTongSet@@QAEHPAUSTONG_KICK_COMMAND@@PAUSTONG_KICK_SYNC@@@Z 00439960 f   KTongSet.obj
 0001:000389c0       ?ChangeTitleFemale@CTongSet@@QAEHPAUSTONG_CHANGE_TITLE_FEMALE_COMMAND@@PAUSTONG_CHANGE_TITLE_FEMALE_SYNC@@@Z 004399c0 f   KTongSet.obj
 0001:00038a20       ?ChangeTitleMale@CTongSet@@QAEHPAUSTONG_CHANGE_TITLE_MALE_COMMAND@@PAUSTONG_CHANGE_TITLE_MALE_SYNC@@@Z 00439a20 f   KTongSet.obj
 0001:00038a80       ?ChangeTitle@CTongSet@@QAEHPAUSTONG_CHANGE_TITLE_COMMAND@@PAUSTONG_CHANGE_TITLE_SYNC@@@Z 00439a80 f   KTongSet.obj
 0001:00038ae0       ?Leave@CTongSet@@QAEHPAUSTONG_LEAVE_COMMAND@@PAUSTONG_LEAVE_SYNC@@@Z 00439ae0 f   KTongSet.obj
 0001:00038b40       ?AcceptMaster@CTongSet@@QAEHPAUSTONG_ACCEPT_MASTER_COMMAND@@@Z 00439b40 f   KTongSet.obj
 0001:00038b90       ?InitFromDB@CTongSet@@QAEHXZ 00439b90 f   KTongSet.obj
 0001:00038d30       ?GetLoginData@CTongSet@@QAEHPAUSTONG_GET_LOGIN_DATA_COMMAND@@PAUSTONG_LOGIN_DATA_SYNC@@@Z 00439d30 f   KTongSet.obj
 0001:00038dc0       ?SearchOne@CTongSet@@QAEHKPADPAUSTONG_ONE_LEADER_INFO@@@Z 00439dc0 f   KTongSet.obj
 0001:00038ea0       ??_ECTongDB@@UAEPAXI@Z     00439ea0 f i TONGDB.OBJ
 0001:00038ea0       ??_GCTongDB@@UAEPAXI@Z     00439ea0 f i TONGDB.OBJ
 0001:00038ec0       ?get_TongName@@YAHPAU__db@@PBU__db_dbt@@1PAU2@@Z 00439ec0 f   TONGDB.OBJ
 0001:00038ef0       ??0CTongDB@@QAE@XZ         00439ef0 f   TONGDB.OBJ
 0001:00038f20       ?Open@CTongDB@@QAE_NXZ     00439f20 f   TONGDB.OBJ
 0001:00039020       ?Close@CTongDB@@QAEXXZ     0043a020 f   TONGDB.OBJ
 0001:00039050       ?ChangeTong@CTongDB@@QAE_NAAVCTongControl@@@Z 0043a050 f   TONGDB.OBJ
 0001:000391f0       ?DelTong@CTongDB@@QAE_NPAD@Z 0043a1f0 f   TONGDB.OBJ
 0001:00039250       ?SearchTong@CTongDB@@QAE_NPADAAVCTongControl@@@Z 0043a250 f   TONGDB.OBJ
 0001:000395b0       ?GetTongCount@CTongDB@@QAEHXZ 0043a5b0 f   TONGDB.OBJ
 0001:00039610       ?GetTongList@CTongDB@@QAEHPAUTTongList@@H@Z 0043a610 f   TONGDB.OBJ
 0001:00039720       ?ChangeMember@CTongDB@@QAE_NUTMemberStruct@@@Z 0043a720 f   TONGDB.OBJ
 0001:00039750       ?DelMember@CTongDB@@QAE_NPAD@Z 0043a750 f   TONGDB.OBJ
 0001:000397b0       _GetTickCount@0            0043a7b0 f   kernel32:KERNEL32.dll
 0001:000397b6       _GetModuleFileNameA@12     0043a7b6 f   kernel32:KERNEL32.dll
 0001:000397bc       _GetPrivateProfileStringA@24 0043a7bc f   kernel32:KERNEL32.dll
 0001:000397c2       _GetPrivateProfileIntA@16  0043a7c2 f   kernel32:KERNEL32.dll
 0001:000397c8       _GetPrivateProfileSectionA@16 0043a7c8 f   kernel32:KERNEL32.dll
 0001:000397ce       _GetPrivateProfileSectionNamesA@12 0043a7ce f   kernel32:KERNEL32.dll
 0001:000397d4       _FreeLibrary@4             0043a7d4 f   kernel32:KERNEL32.dll
 0001:000397da       _GetProcAddress@8          0043a7da f   kernel32:KERNEL32.dll
 0001:000397e0       _LoadLibraryA@4            0043a7e0 f   kernel32:KERNEL32.dll
 0001:000397e6       _Sleep@4                   0043a7e6 f   kernel32:KERNEL32.dll
 0001:000397ec       _CreateEventA@16           0043a7ec f   kernel32:KERNEL32.dll
 0001:000397f2       _CloseHandle@4             0043a7f2 f   kernel32:KERNEL32.dll
 0001:000397f8       _TerminateThread@8         0043a7f8 f   kernel32:KERNEL32.dll
 0001:000397fe       _WaitForSingleObject@8     0043a7fe f   kernel32:KERNEL32.dll
 0001:00039804       _SetEvent@4                0043a804 f   kernel32:KERNEL32.dll
 0001:0003980a       _InitializeCriticalSection@4 0043a80a f   kernel32:KERNEL32.dll
 0001:00039810       _DeleteCriticalSection@4   0043a810 f   kernel32:KERNEL32.dll
 0001:00039816       _EnterCriticalSection@4    0043a816 f   kernel32:KERNEL32.dll
 0001:0003981c       _LeaveCriticalSection@4    0043a81c f   kernel32:KERNEL32.dll
 0001:00039822       _ResetEvent@4              0043a822 f   kernel32:KERNEL32.dll
 0001:00039828       _GetFileAttributesA@4      0043a828 f   kernel32:KERNEL32.dll
 0001:0003982e       _WriteFile@20              0043a82e f   kernel32:KERNEL32.dll
 0001:00039834       _GetLocalTime@4            0043a834 f   kernel32:KERNEL32.dll
 0001:0003983a       _GetFileSize@8             0043a83a f   kernel32:KERNEL32.dll
 0001:00039840       _CreateDirectoryA@8        0043a840 f   kernel32:KERNEL32.dll
 0001:00039846       _CreateFileA@28            0043a846 f   kernel32:KERNEL32.dll
 0001:0003984c       _KillTimer@8               0043a84c f   user32:USER32.dll
 0001:00039852       _SetTimer@16               0043a852 f   user32:USER32.dll
 0001:00039858       _PostMessageA@16           0043a858 f   user32:USER32.dll
 0001:0003985e       _MessageBoxA@16            0043a85e f   user32:USER32.dll
 0001:00039864       _DispatchMessageA@4        0043a864 f   user32:USER32.dll
 0001:0003986a       _TranslateMessage@4        0043a86a f   user32:USER32.dll
 0001:00039870       _TranslateAcceleratorA@12  0043a870 f   user32:USER32.dll
 0001:00039876       _GetMessageA@16            0043a876 f   user32:USER32.dll
 0001:0003987c       _LoadAcceleratorsA@8       0043a87c f   user32:USER32.dll
 0001:00039882       _LoadStringA@16            0043a882 f   user32:USER32.dll
 0001:00039888       _DialogBoxParamA@20        0043a888 f   user32:USER32.dll
 0001:0003988e       _RegisterClassExA@4        0043a88e f   user32:USER32.dll
 0001:00039894       _LoadCursorA@8             0043a894 f   user32:USER32.dll
 0001:0003989a       _LoadIconA@8               0043a89a f   user32:USER32.dll
 0001:000398a0       _SendMessageA@16           0043a8a0 f   user32:USER32.dll
 0001:000398a6       _UpdateWindow@4            0043a8a6 f   user32:USER32.dll
 0001:000398ac       _ShowWindow@8              0043a8ac f   user32:USER32.dll
 0001:000398b2       _GetClientRect@8           0043a8b2 f   user32:USER32.dll
 0001:000398b8       _CreateWindowExA@48        0043a8b8 f   user32:USER32.dll
 0001:000398be       _DefWindowProcA@16         0043a8be f   user32:USER32.dll
 0001:000398c4       _DestroyWindow@4           0043a8c4 f   user32:USER32.dll
 0001:000398ca       _PostQuitMessage@4         0043a8ca f   user32:USER32.dll
 0001:000398d0       _MoveWindow@24             0043a8d0 f   user32:USER32.dll
 0001:000398d6       _EndPaint@8                0043a8d6 f   user32:USER32.dll
 0001:000398dc       _BeginPaint@8              0043a8dc f   user32:USER32.dll
 0001:000398e2       _EndDialog@8               0043a8e2 f   user32:USER32.dll
 0001:000398e8       _GetDlgItemTextA@16        0043a8e8 f   user32:USER32.dll
 0001:000398ee       _inet_ntoa@4               0043a8ee f   Ws2_32:WS2_32.dll
 0001:000398f4       _inet_addr@4               0043a8f4 f   Ws2_32:WS2_32.dll
 0001:000398fa       _lua_tostring              0043a8fa f   lualibdll:LuaLibDll.dll
 0001:00039900       _lua_gettop                0043a900 f   lualibdll:LuaLibDll.dll
 0001:00039906       _lua_tonumber              0043a906 f   lualibdll:LuaLibDll.dll
 0001:0003990c       _lua_pushstring            0043a90c f   lualibdll:LuaLibDll.dll
 0001:00039912       ??0KLuaScript@@QAE@XZ      0043a912 f   engine:Engine.dll
 0001:00039918       ??1KLuaScript@@UAE@XZ      0043a918 f   engine:Engine.dll
 0001:0003991e       ?RegisterFunctions@KLuaScript@@QAEHQAUTLua_Funcs@@H@Z 0043a91e f   engine:Engine.dll
 0001:00039924       ?Init@KLuaScript@@UAEHXZ   0043a924 f   engine:Engine.dll
 0001:0003992a       ?ExecuteCode@KLuaScript@@QAEHXZ 0043a92a f   engine:Engine.dll
 0001:00039930       ?LoadBuffer@KLuaScript@@QAEHPAEK@Z 0043a930 f   engine:Engine.dll
 0001:00039936       ?KSG_StringToMD5String@@YAHQADQBD@Z 0043a936 f   engine:Engine.dll
 0001:00039940       _db_env_create             0043a940 f   libdb41s:env_method.obj
 0001:0003a040       ___db_mi_env               0043b040 f   libdb41s:env_method.obj
 0001:0003a060       ___db_mi_open              0043b060 f   libdb41s:env_method.obj
 0001:0003a090       ___db_env_config           0043b090 f   libdb41s:env_method.obj
 0001:0003a120       _db_create                 0043b120 f   libdb41s:db_method.obj
 0001:0003a420       ___dbh_am_chk              0043b420 f   libdb41s:db_method.obj
 0001:0003a900       ___db_set_lorder           0043b900 f   libdb41s:db_method.obj
 0001:0003aae0       ___os_umalloc              0043bae0 f   libdb41s:os_alloc.obj
 0001:0003ab90       ___os_urealloc             0043bb90 f   libdb41s:os_alloc.obj
 0001:0003ac50       ___os_ufree                0043bc50 f   libdb41s:os_alloc.obj
 0001:0003aca0       ___os_strdup               0043bca0 f   libdb41s:os_alloc.obj
 0001:0003ad00       ___os_calloc               0043bd00 f   libdb41s:os_alloc.obj
 0001:0003ad50       ___os_malloc               0043bd50 f   libdb41s:os_alloc.obj
 0001:0003add0       ___os_realloc              0043bdd0 f   libdb41s:os_alloc.obj
 0001:0003ae60       ___os_free                 0043be60 f   libdb41s:os_alloc.obj
 0001:0003ae80       ___ua_memcpy               0043be80 f   libdb41s:os_alloc.obj
 0001:0003aeb0       ___txn_dbenv_create        0043beb0 f   libdb41s:txn_method.obj
 0001:0003af60       ___rep_dbenv_create        0043bf60 f   libdb41s:rep_method.obj
 0001:0003c4c0       ___memp_dbenv_create       0043d4c0 f   libdb41s:mp_method.obj
 0001:0003c610       ___lock_dbenv_create       0043d610 f   libdb41s:lock_method.obj
 0001:0003c6d0       ___lock_dbenv_close        0043d6d0 f   libdb41s:lock_method.obj
 0001:0003c900       ___log_dbenv_create        0043d900 f   libdb41s:log_method.obj
 0001:0003caf0       _db_version                0043daf0 f   libdb41s:env_open.obj
 0001:0003cb20       ___dbenv_open              0043db20 f   libdb41s:env_open.obj
 0001:0003cfb0       ___dbenv_remove            0043dfb0 f   libdb41s:env_open.obj
 0001:0003d220       ___dbenv_close             0043e220 f   libdb41s:env_open.obj
 0001:0003d4e0       ___db_appname              0043e4e0 f   libdb41s:env_open.obj
 0001:0003d7d0       ___db_home                 0043e7d0 f   libdb41s:env_open.obj
 0001:0003e620       ___dbenv_dbrename          0043f620 f   libdb41s:db_rename.obj
 0001:0003e780       ___db_rename               0043f780 f   libdb41s:db_rename.obj
 0001:0003e840       ___db_rename_i             0043f840 f   libdb41s:db_rename.obj
 0001:0003ea80       ___dbenv_dbremove          0043fa80 f   libdb41s:db_remove.obj
 0001:0003ebe0       ___db_remove               0043fbe0 f   libdb41s:db_remove.obj
 0001:0003ec90       ___db_remove_i             0043fc90 f   libdb41s:db_remove.obj
 0001:0003ef40       ___db_fchk                 0043ff40 f   libdb41s:db_err.obj
 0001:0003ef70       ___db_fcchk                0043ff70 f   libdb41s:db_err.obj
 0001:0003efa0       ___db_ferr                 0043ffa0 f   libdb41s:db_err.obj
 0001:0003efd0       ___db_pgerr                0043ffd0 f   libdb41s:db_err.obj
 0001:0003f000       ___db_pgfmt                00440000 f   libdb41s:db_err.obj
 0001:0003f030       ___db_eopnotsup            00440030 f   libdb41s:db_err.obj
 0001:0003f050       ___db_panic_msg            00440050 f   libdb41s:db_err.obj
 0001:0003f070       ___db_panic                00440070 f   libdb41s:db_err.obj
 0001:0003f0c0       _db_strerror               004400c0 f   libdb41s:db_err.obj
 0001:0003f1d0       ___db_err                  004401d0 f   libdb41s:db_err.obj
 0001:0003f220       ___db_errcall              00440220 f   libdb41s:db_err.obj
 0001:0003f2e0       ___db_errfile              004402e0 f   libdb41s:db_err.obj
 0001:0003f370       ___db_logmsg               00440370 f   libdb41s:db_err.obj
 0001:0003f420       ___db_unknown_flag         00440420 f   libdb41s:db_err.obj
 0001:0003f450       ___db_unknown_type         00440450 f   libdb41s:db_err.obj
 0001:0003f480       ___db_check_txn            00440480 f   libdb41s:db_err.obj
 0001:0003f590       ___db_not_txn_env          00440590 f   libdb41s:db_err.obj
 0001:0003f5b0       ___db_xa_create            004405b0 f   libdb41s:xa_db.obj
 0001:0003f7d0       ___qam_db_create           004407d0 f   libdb41s:qam_method.obj
 0001:0003f810       ___qam_db_close            00440810 f   libdb41s:qam_method.obj
 0001:0003f930       ___db_prqueue              00440930 f   libdb41s:qam_method.obj
 0001:0003fab0       ___qam_remove              00440ab0 f   libdb41s:qam_method.obj
 0001:0003fd10       ___qam_rename              00440d10 f   libdb41s:qam_method.obj
 0001:0003ff60       ___ham_db_create           00440f60 f   libdb41s:hash_method.obj
 0001:0003ffb0       ___ham_db_close            00440fb0 f   libdb41s:hash_method.obj
 0001:000400d0       ___bam_db_create           004410d0 f   libdb41s:bt_method.obj
 0001:00040190       ___bam_db_close            00441190 f   libdb41s:bt_method.obj
 0001:000401e0       ___bam_set_flags           004411e0 f   libdb41s:bt_method.obj
 0001:00040460       ___ram_set_flags           00441460 f   libdb41s:bt_method.obj
 0001:00040660       ___db_verify               00441660 f   libdb41s:db_vrfy.obj
 0001:00040690       ___db_verify_callback      00441690 f   libdb41s:db_vrfy.obj
 0001:000406d0       ___db_verify_internal      004416d0 f   libdb41s:db_vrfy.obj
 0001:00041890       ___db_vrfy_datapage        00442890 f   libdb41s:db_vrfy.obj
 0001:00041a80       ___db_vrfy_meta            00442a80 f   libdb41s:db_vrfy.obj
 0001:00042050       ___db_vrfy_struct_feedback 00443050 f   libdb41s:db_vrfy.obj
 0001:000427e0       ___db_vrfy_inpitem         004437e0 f   libdb41s:db_vrfy.obj
 0001:000429a0       ___db_vrfy_duptype         004439a0 f   libdb41s:db_vrfy.obj
 0001:00042ad0       ___db_salvage_duptree      00443ad0 f   libdb41s:db_vrfy.obj
 0001:00043400       ___db_upgrade              00444400 f   libdb41s:db_upg.obj
 0001:00043980       ___db_lastpgno             00444980 f   libdb41s:db_upg.obj
 0001:00043a20       ___db_cursor               00444a20 f   libdb41s:db_am.obj
 0001:00043b80       ___db_icursor              00444b80 f   libdb41s:db_am.obj
 0001:00043fd0       ___db_fd                   00444fd0 f   libdb41s:db_am.obj
 0001:00044070       ___db_get                  00445070 f   libdb41s:db_am.obj
 0001:000441b0       ___db_put                  004451b0 f   libdb41s:db_am.obj
 0001:000444d0       ___db_delete               004454d0 f   libdb41s:db_am.obj
 0001:00044750       ___db_sync                 00445750 f   libdb41s:db_am.obj
 0001:00044810       ___db_associate            00445810 f   libdb41s:db_am.obj
 0001:00044d00       ___db_pget                 00445d00 f   libdb41s:db_am.obj
 0001:000451f0       ___db_truncate             004461f0 f   libdb41s:db_truncate.obj
 0001:00045340       ___db_master_open          00446340 f   libdb41s:db.obj
 0001:00045440       ___db_master_update        00446440 f   libdb41s:db.obj
 0001:000458f0       ___db_dbenv_setup          004468f0 f   libdb41s:db.obj
 0001:00045c60       ___db_close                00446c60 f   libdb41s:db.obj
 0001:00045cc0       ___db_close_i              00446cc0 f   libdb41s:db.obj
 0001:00045d90       ___db_refresh              00446d90 f   libdb41s:db.obj
 0001:00046150       ___db_log_page             00447150 f   libdb41s:db.obj
 0001:000461d0       ___db_backup_name          004471d0 f   libdb41s:db.obj
 0001:00046310       ___dblist_get              00447310 f   libdb41s:db.obj
 0001:000463f0       ___db_open                 004473f0 f   libdb41s:db_open.obj
 0001:00046630       ___db_dbopen               00447630 f   libdb41s:db_open.obj
 0001:00046870       ___db_new_file             00447870 f   libdb41s:db_open.obj
 0001:00046920       ___db_init_subdb           00447920 f   libdb41s:db_open.obj
 0001:00046a20       ___db_chk_meta             00447a20 f   libdb41s:db_open.obj
 0001:00046a80       ___db_meta_setup           00447a80 f   libdb41s:db_open.obj
 0001:00046ec0       ___db_join                 00447ec0 f   libdb41s:db_join.obj
 0001:00047ae0       ___db_isbigendian          00448ae0 f   libdb41s:db_byteorder.obj
 0001:00047af0       ___db_byteorder            00448af0 f   libdb41s:db_byteorder.obj
 0001:00047b40       ___os_get_errno            00448b40 f   libdb41s:os_errno.obj
 0001:00047b50       ___os_set_errno            00448b50 f   libdb41s:os_errno.obj
 0001:00047b60       ___os_win32_errno          00448b60 f   libdb41s:os_errno.obj
 0001:00047c30       _txn_abort                 00448c30 f   libdb41s:txn.obj
 0001:00047c40       _txn_begin                 00448c40 f   libdb41s:txn.obj
 0001:00047c60       _txn_commit                00448c60 f   libdb41s:txn.obj
 0001:00047c80       ___txn_begin               00448c80 f   libdb41s:txn.obj
 0001:00047e90       ___txn_xa_begin            00448e90 f   libdb41s:txn.obj
 0001:00047f00       ___txn_compensate_begin    00448f00 f   libdb41s:txn.obj
 0001:00048360       ___txn_commit              00449360 f   libdb41s:txn.obj
 0001:00048610       ___txn_abort               00449610 f   libdb41s:txn.obj
 0001:00048800       ___txn_discard             00449800 f   libdb41s:txn.obj
 0001:000488d0       ___txn_prepare             004498d0 f   libdb41s:txn.obj
 0001:00048a90       ___txn_id                  00449a90 f   libdb41s:txn.obj
 0001:00049060       ___txn_checkpoint          0044a060 f   libdb41s:txn.obj
 0001:00049300       ___txn_getckp              0044a300 f   libdb41s:txn.obj
 0001:00049360       ___txn_activekids          0044a360 f   libdb41s:txn.obj
 0001:000493a0       ___txn_force_abort         0044a3a0 f   libdb41s:txn.obj
 0001:00049490       ___txn_preclose            0044a490 f   libdb41s:txn.obj
 0001:00049520       ___txn_reset               0044a520 f   libdb41s:txn.obj
 0001:00049560       ___txn_updateckp           0044a560 f   libdb41s:txn.obj
 0001:000495d0       ___txn_stat                0044a5d0 f   libdb41s:txn_stat.obj
 0001:000497c0       ___txn_continue            0044a7c0 f   libdb41s:txn_recover.obj
 0001:00049820       ___txn_map_gid             0044a820 f   libdb41s:txn_recover.obj
 0001:000498d0       ___txn_recover             0044a8d0 f   libdb41s:txn_recover.obj
 0001:00049960       ___txn_get_prepared        0044a960 f   libdb41s:txn_recover.obj
 0001:00049dc0       ___rep_process_message     0044adc0 f   libdb41s:rep_record.obj
 0001:0004bba0       ___rep_process_txn         0044cba0 f   libdb41s:rep_record.obj
 0001:0004c070       ___rep_check_alloc         0044d070 f   libdb41s:rep_util.obj
 0001:0004c0d0       ___rep_send_message        0044d0d0 f   libdb41s:rep_util.obj
 0001:0004c1e0       ___rep_new_master          0044d1e0 f   libdb41s:rep_util.obj
 0001:0004c440       ___rep_lockpgno_init       0044d440 f   libdb41s:rep_util.obj
 0001:0004c4e0       ___rep_unlockpages         0044d4e0 f   libdb41s:rep_util.obj
 0001:0004c510       ___rep_lockpages           0044d510 f   libdb41s:rep_util.obj
 0001:0004c970       ___rep_is_client           0044d970 f   libdb41s:rep_util.obj
 0001:0004c9c0       ___rep_send_vote           0044d9c0 f   libdb41s:rep_util.obj
 0001:0004ca30       ___rep_grow_sites          0044da30 f   libdb41s:rep_util.obj
 0001:0004cae0       ___db_win32_mutex_init     0044dae0 f   libdb41s:mut_win32.obj
 0001:0004cb60       ___db_win32_mutex_lock     0044db60 f   libdb41s:mut_win32.obj
 0001:0004cc40       ___db_win32_mutex_unlock   0044dc40 f   libdb41s:mut_win32.obj
 0001:0004ccd0       ___db_win32_mutex_destroy  0044dcd0 f   libdb41s:mut_win32.obj
 0001:0004cce0       ___rep_region_init         0044dce0 f   libdb41s:rep_region.obj
 0001:0004ce50       ___rep_region_destroy      0044de50 f   libdb41s:rep_region.obj
 0001:0004cea0       ___rep_dbenv_close         0044dea0 f   libdb41s:rep_region.obj
 0001:0004ced0       ___rep_preclose            0044ded0 f   libdb41s:rep_region.obj
 0001:0004cf60       ___dbreg_add_dbentry       0044df60 f   libdb41s:dbreg_util.obj
 0001:0004d020       ___dbreg_rem_dbentry       0044e020 f   libdb41s:dbreg_util.obj
 0001:0004d080       ___dbreg_open_files        0044e080 f   libdb41s:dbreg_util.obj
 0001:0004d180       ___dbreg_close_files       0044e180 f   libdb41s:dbreg_util.obj
 0001:0004d280       ___dbreg_nofiles           0044e280 f   libdb41s:dbreg_util.obj
 0001:0004d300       ___dbreg_id_to_db          0044e300 f   libdb41s:dbreg_util.obj
 0001:0004d330       ___dbreg_id_to_db_int      0044e330 f   libdb41s:dbreg_util.obj
 0001:0004d440       ___dbreg_id_to_fname       0044e440 f   libdb41s:dbreg_util.obj
 0001:0004d4c0       ___dbreg_fid_to_fname      0044e4c0 f   libdb41s:dbreg_util.obj
 0001:0004d560       ___dbreg_get_name          0044e560 f   libdb41s:dbreg_util.obj
 0001:0004d5b0       ___dbreg_do_open           0044e5b0 f   libdb41s:dbreg_util.obj
 0001:0004d7d0       ___dbreg_lazy_id           0044e7d0 f   libdb41s:dbreg_util.obj
 0001:0004d830       ___dbreg_push_id           0044e830 f   libdb41s:dbreg_util.obj
 0001:0004d950       ___dbreg_pop_id            0044e950 f   libdb41s:dbreg_util.obj
 0001:0004d9a0       ___dbreg_pluck_id          0044e9a0 f   libdb41s:dbreg_util.obj
 0001:0004da00       ___db_dispatch             0044ea00 f   libdb41s:db_dispatch.obj
 0001:0004dd00       ___db_add_recovery         0044ed00 f   libdb41s:db_dispatch.obj
 0001:0004dd60       ___db_txnlist_init         0044ed60 f   libdb41s:db_dispatch.obj
 0001:0004dec0       ___db_txnlist_add          0044eec0 f   libdb41s:db_dispatch.obj
 0001:0004df90       ___db_txnlist_remove       0044ef90 f   libdb41s:db_dispatch.obj
 0001:0004dfc0       ___db_txnlist_ckp          0044efc0 f   libdb41s:db_dispatch.obj
 0001:0004e000       ___db_txnlist_end          0044f000 f   libdb41s:db_dispatch.obj
 0001:0004e0a0       ___db_txnlist_find         0044f0a0 f   libdb41s:db_dispatch.obj
 0001:0004e0d0       ___db_txnlist_update       0044f0d0 f   libdb41s:db_dispatch.obj
 0001:0004e2b0       ___db_txnlist_gen          0044f2b0 f   libdb41s:db_dispatch.obj
 0001:0004e350       ___db_txnlist_lsnadd       0044f350 f   libdb41s:db_dispatch.obj
 0001:0004e480       ___db_txnlist_lsninit      0044f480 f   libdb41s:db_dispatch.obj
 0001:0004e540       ___db_add_limbo            0044f540 f   libdb41s:db_dispatch.obj
 0001:0004e5d0       ___db_do_the_limbo         0044f5d0 f   libdb41s:db_dispatch.obj
 0001:0004ef80       ___txn_regop_log           0044ff80 f   libdb41s:txn_auto.obj
 0001:0004f0c0       ___txn_regop_getpgnos      004500c0 f   libdb41s:txn_auto.obj
 0001:0004f140       ___txn_regop_print         00450140 f   libdb41s:txn_auto.obj
 0001:0004f1d0       ___txn_regop_read          004501d0 f   libdb41s:txn_auto.obj
 0001:0004f250       ___txn_ckp_log             00450250 f   libdb41s:txn_auto.obj
 0001:0004f3c0       ___txn_ckp_getpgnos        004503c0 f   libdb41s:txn_auto.obj
 0001:0004f440       ___txn_ckp_print           00450440 f   libdb41s:txn_auto.obj
 0001:0004f4f0       ___txn_ckp_read            004504f0 f   libdb41s:txn_auto.obj
 0001:0004f590       ___txn_child_log           00450590 f   libdb41s:txn_auto.obj
 0001:0004f6e0       ___txn_child_getpgnos      004506e0 f   libdb41s:txn_auto.obj
 0001:0004f760       ___txn_child_print         00450760 f   libdb41s:txn_auto.obj
 0001:0004f7f0       ___txn_child_read          004507f0 f   libdb41s:txn_auto.obj
 0001:0004f880       ___txn_xa_regop_log        00450880 f   libdb41s:txn_auto.obj
 0001:0004fa20       ___txn_xa_regop_getpgnos   00450a20 f   libdb41s:txn_auto.obj
 0001:0004faa0       ___txn_xa_regop_print      00450aa0 f   libdb41s:txn_auto.obj
 0001:0004fbf0       ___txn_xa_regop_read       00450bf0 f   libdb41s:txn_auto.obj
 0001:0004fcd0       ___txn_recycle_log         00450cd0 f   libdb41s:txn_auto.obj
 0001:0004fe10       ___txn_recycle_getpgnos    00450e10 f   libdb41s:txn_auto.obj
 0001:0004fe90       ___txn_recycle_print       00450e90 f   libdb41s:txn_auto.obj
 0001:0004ff20       ___txn_recycle_read        00450f20 f   libdb41s:txn_auto.obj
 0001:0004ffa0       ___txn_init_print          00450fa0 f   libdb41s:txn_auto.obj
 0001:00050020       ___txn_init_getpgnos       00451020 f   libdb41s:txn_auto.obj
 0001:000500a0       ___txn_init_recover        004510a0 f   libdb41s:txn_auto.obj
 0001:00050120       ___txn_regop_recover       00451120 f   libdb41s:txn_rec.obj
 0001:00050290       ___txn_xa_regop_recover    00451290 f   libdb41s:txn_rec.obj
 0001:000503f0       ___txn_ckp_recover         004513f0 f   libdb41s:txn_rec.obj
 0001:00050450       ___txn_child_recover       00451450 f   libdb41s:txn_rec.obj
 0001:000505d0       ___txn_restore_txn         004515d0 f   libdb41s:txn_rec.obj
 0001:000507a0       ___txn_recycle_recover     004517a0 f   libdb41s:txn_rec.obj
 0001:00050810       _log_compare               00451810 f   libdb41s:log_compare.obj
 0001:00050840       ___os_clock                00451840 f   libdb41s:os_clock.obj
 0001:00050890       ___os_id                   00451890 f   libdb41s:os_id.obj
 0001:000508a0       ___os_sleep                004518a0 f   libdb41s:os_sleep.obj
 0001:00050900       ___memp_trickle            00451900 f   libdb41s:mp_trickle.obj
 0001:00050a60       ___memp_sync               00451a60 f   libdb41s:mp_sync.obj
 0001:00050bc0       ___memp_fsync              00451bc0 f   libdb41s:mp_sync.obj
 0001:00050c20       ___mp_xxx_fh               00451c20 f   libdb41s:mp_sync.obj
 0001:00050c50       ___memp_sync_int           00451c50 f   libdb41s:mp_sync.obj
 0001:00051480       ___memp_stat               00452480 f   libdb41s:mp_stat.obj
 0001:000519c0       ___memp_dump_region        004529c0 f   libdb41s:mp_stat.obj
 0001:00051f10       ___memp_stat_hash          00452f10 f   libdb41s:mp_stat.obj
 0001:00051fc0       ___memp_register           00452fc0 f   libdb41s:mp_register.obj
 0001:00052120       ___memp_open               00453120 f   libdb41s:mp_region.obj
 0001:00052770       ___memp_dbenv_refresh      00453770 f   libdb41s:mp_region.obj
 0001:00052850       ___mpool_region_destroy    00453850 f   libdb41s:mp_region.obj
 0001:00052860       ___memp_nameop             00453860 f   libdb41s:mp_region.obj
 0001:00052a20       ___memp_fcreate            00453a20 f   libdb41s:mp_fopen.obj
 0001:00052e80       ___memp_fopen_int          00453e80 f   libdb41s:mp_fopen.obj
 0001:00053860       ___memp_fclose_int         00454860 f   libdb41s:mp_fopen.obj
 0001:00053ac0       ___memp_mf_discard         00454ac0 f   libdb41s:mp_fopen.obj
 0001:00053ca0       ___memp_fn                 00454ca0 f   libdb41s:mp_fopen.obj
 0001:00053cc0       ___memp_fns                00454cc0 f   libdb41s:mp_fopen.obj
 0001:00053ce0       ___lock_id                 00454ce0 f   libdb41s:lock.obj
 0001:00053e70       ___lock_id_free            00454e70 f   libdb41s:lock.obj
 0001:00053f60       ___lock_vec                00454f60 f   libdb41s:lock.obj
 0001:00054630       ___lock_get                00455630 f   libdb41s:lock.obj
 0001:000551c0       ___lock_put                004561c0 f   libdb41s:lock.obj
 0001:00055330       ___lock_downgrade          00456330 f   libdb41s:lock.obj
 0001:000558a0       ___lock_addfamilylocker    004568a0 f   libdb41s:lock.obj
 0001:000559e0       ___lock_freefamilylocker   004569e0 f   libdb41s:lock.obj
 0001:00055ba0       ___lock_set_timeout        00456ba0 f   libdb41s:lock.obj
 0001:00055cb0       ___lock_inherit_timeout    00456cb0 f   libdb41s:lock.obj
 0001:00055db0       ___lock_getlocker          00456db0 f   libdb41s:lock.obj
 0001:00056180       ___lock_promote            00457180 f   libdb41s:lock.obj
 0001:000564d0       ___lock_expired            004574d0 f   libdb41s:lock.obj
 0001:00056630       ___lock_stat               00457630 f   libdb41s:lock_stat.obj
 0001:000567e0       ___lock_dump_region        004577e0 f   libdb41s:lock_stat.obj
 0001:00056cd0       ___lock_printlock          00457cd0 f   libdb41s:lock_stat.obj
 0001:00056eb0       ___lock_detect             00457eb0 f   libdb41s:lock_deadlock.obj
 0001:00057fd0       ___log_open                00458fd0 f   libdb41s:log.obj
 0001:00058520       ___log_find                00459520 f   libdb41s:log.obj
 0001:00058750       ___log_valid               00459750 f   libdb41s:log.obj
 0001:00058a00       ___log_dbenv_refresh       00459a00 f   libdb41s:log.obj
 0001:00058aa0       ___log_stat                00459aa0 f   libdb41s:log.obj
 0001:00058c40       ___log_get_cached_ckp_lsn  00459c40 f   libdb41s:log.obj
 0001:00058ca0       ___log_region_destroy      00459ca0 f   libdb41s:log.obj
 0001:00058cb0       ___log_vtruncate           00459cb0 f   libdb41s:log.obj
 0001:00058ef0       ___log_is_outdated         00459ef0 f   libdb41s:log.obj
 0001:00059100       ___log_put                 0045a100 f   libdb41s:log_put.obj
 0001:00059490       ___log_txn_lsn             0045a490 f   libdb41s:log_put.obj
 0001:000596a0       ___log_newfile             0045a6a0 f   libdb41s:log_put.obj
 0001:000599e0       ___log_flush               0045a9e0 f   libdb41s:log_put.obj
 0001:0005a340       ___log_file                0045b340 f   libdb41s:log_put.obj
 0001:0005a4e0       ___log_name                0045b4e0 f   libdb41s:log_put.obj
 0001:0005a620       ___log_rep_put             0045b620 f   libdb41s:log_put.obj
 0001:0005a7a0       ___log_cursor              0045b7a0 f   libdb41s:log_get.obj
 0001:0005b780       ___log_archive             0045c780 f   libdb41s:log_archive.obj
 0001:0005c340       ___db_mutex_setup          0045d340 f   libdb41s:mutex.obj
 0001:0005c400       ___db_mutex_free           0045d400 f   libdb41s:mutex.obj
 0001:0005c410       ___db_apprec               0045d410 f   libdb41s:env_recover.obj
 0001:0005d250       ___env_openfiles           0045e250 f   libdb41s:env_recover.obj
 0001:0005d360       ___qam_incfirst_log        0045e360 f   libdb41s:qam_auto.obj
 0001:0005d4c0       ___qam_incfirst_getpgnos   0045e4c0 f   libdb41s:qam_auto.obj
 0001:0005d5e0       ___qam_incfirst_print      0045e5e0 f   libdb41s:qam_auto.obj
 0001:0005d680       ___qam_incfirst_read       0045e680 f   libdb41s:qam_auto.obj
 0001:0005d710       ___qam_mvptr_log           0045e710 f   libdb41s:qam_auto.obj
 0001:0005d8b0       ___qam_mvptr_getpgnos      0045e8b0 f   libdb41s:qam_auto.obj
 0001:0005d9d0       ___qam_mvptr_print         0045e9d0 f   libdb41s:qam_auto.obj
 0001:0005dad0       ___qam_mvptr_read          0045ead0 f   libdb41s:qam_auto.obj
 0001:0005dbb0       ___qam_del_log             0045ebb0 f   libdb41s:qam_auto.obj
 0001:0005dd40       ___qam_del_getpgnos        0045ed40 f   libdb41s:qam_auto.obj
 0001:0005de60       ___qam_del_print           0045ee60 f   libdb41s:qam_auto.obj
 0001:0005df30       ___qam_del_read            0045ef30 f   libdb41s:qam_auto.obj
 0001:0005dfe0       ___qam_add_log             0045efe0 f   libdb41s:qam_auto.obj
 0001:0005e1e0       ___qam_add_getpgnos        0045f1e0 f   libdb41s:qam_auto.obj
 0001:0005e300       ___qam_add_print           0045f300 f   libdb41s:qam_auto.obj
 0001:0005e4e0       ___qam_add_read            0045f4e0 f   libdb41s:qam_auto.obj
 0001:0005e600       ___qam_delext_log          0045f600 f   libdb41s:qam_auto.obj
 0001:0005e7c0       ___qam_delext_getpgnos     0045f7c0 f   libdb41s:qam_auto.obj
 0001:0005e840       ___qam_delext_print        0045f840 f   libdb41s:qam_auto.obj
 0001:0005e990       ___qam_delext_read         0045f990 f   libdb41s:qam_auto.obj
 0001:0005ea70       ___qam_init_print          0045fa70 f   libdb41s:qam_auto.obj
 0001:0005eaf0       ___qam_init_getpgnos       0045faf0 f   libdb41s:qam_auto.obj
 0001:0005eb70       ___qam_init_recover        0045fb70 f   libdb41s:qam_auto.obj
 0001:0005ebf0       ___ham_insdel_log          0045fbf0 f   libdb41s:hash_auto.obj
 0001:0005ee00       ___ham_insdel_getpgnos     0045fe00 f   libdb41s:hash_auto.obj
 0001:0005ef20       ___ham_insdel_print        0045ff20 f   libdb41s:hash_auto.obj
 0001:0005f0f0       ___ham_insdel_read         004600f0 f   libdb41s:hash_auto.obj
 0001:0005f200       ___ham_newpage_log         00460200 f   libdb41s:hash_auto.obj
 0001:0005f3e0       ___ham_newpage_getpgnos    004603e0 f   libdb41s:hash_auto.obj
 0001:0005f630       ___ham_newpage_print       00460630 f   libdb41s:hash_auto.obj
 0001:0005f740       ___ham_newpage_read        00460740 f   libdb41s:hash_auto.obj
 0001:0005f830       ___ham_splitdata_log       00460830 f   libdb41s:hash_auto.obj
 0001:0005f9f0       ___ham_splitdata_getpgnos  004609f0 f   libdb41s:hash_auto.obj
 0001:0005fb10       ___ham_splitdata_print     00460b10 f   libdb41s:hash_auto.obj
 0001:0005fc50       ___ham_splitdata_read      00460c50 f   libdb41s:hash_auto.obj
 0001:0005fd30       ___ham_replace_log         00460d30 f   libdb41s:hash_auto.obj
 0001:0005ff40       ___ham_replace_getpgnos    00460f40 f   libdb41s:hash_auto.obj
 0001:00060060       ___ham_replace_print       00461060 f   libdb41s:hash_auto.obj
 0001:00060250       ___ham_replace_read        00461250 f   libdb41s:hash_auto.obj
 0001:00060370       ___ham_copypage_log        00461370 f   libdb41s:hash_auto.obj
 0001:00060570       ___ham_copypage_getpgnos   00461570 f   libdb41s:hash_auto.obj
 0001:000607a0       ___ham_copypage_print      004617a0 f   libdb41s:hash_auto.obj
 0001:00060920       ___ham_copypage_read       00461920 f   libdb41s:hash_auto.obj
 0001:00060a30       ___ham_metagroup_log       00461a30 f   libdb41s:hash_auto.obj
 0001:00060c10       ___ham_metagroup_getpgnos  00461c10 f   libdb41s:hash_auto.obj
 0001:00060e50       ___ham_metagroup_print     00461e50 f   libdb41s:hash_auto.obj
 0001:00060f70       ___ham_metagroup_read      00461f70 f   libdb41s:hash_auto.obj
 0001:00061070       ___ham_groupalloc_log      00462070 f   libdb41s:hash_auto.obj
 0001:00061200       ___ham_groupalloc_getpgnos 00462200 f   libdb41s:hash_auto.obj
 0001:00061320       ___ham_groupalloc_print    00462320 f   libdb41s:hash_auto.obj
 0001:000613f0       ___ham_groupalloc_read     004623f0 f   libdb41s:hash_auto.obj
 0001:000614a0       ___ham_curadj_log          004624a0 f   libdb41s:hash_auto.obj
 0001:00061630       ___ham_curadj_getpgnos     00462630 f   libdb41s:hash_auto.obj
 0001:000616b0       ___ham_curadj_print        004626b0 f   libdb41s:hash_auto.obj
 0001:000617b0       ___ham_curadj_read         004627b0 f   libdb41s:hash_auto.obj
 0001:00061880       ___ham_chgpg_log           00462880 f   libdb41s:hash_auto.obj
 0001:00061a00       ___ham_chgpg_getpgnos      00462a00 f   libdb41s:hash_auto.obj
 0001:00061a80       ___ham_chgpg_print         00462a80 f   libdb41s:hash_auto.obj
 0001:00061b60       ___ham_chgpg_read          00462b60 f   libdb41s:hash_auto.obj
 0001:00061c20       ___ham_init_print          00462c20 f   libdb41s:hash_auto.obj
 0001:00061d10       ___ham_init_getpgnos       00462d10 f   libdb41s:hash_auto.obj
 0001:00061e00       ___ham_init_recover        00462e00 f   libdb41s:hash_auto.obj
 0001:00061ef0       ___fop_create_log          00462ef0 f   libdb41s:fileops_auto.obj
 0001:00062060       ___fop_create_getpgnos     00463060 f   libdb41s:fileops_auto.obj
 0001:000620e0       ___fop_create_print        004630e0 f   libdb41s:fileops_auto.obj
 0001:000621f0       ___fop_create_read         004631f0 f   libdb41s:fileops_auto.obj
 0001:000622a0       ___fop_remove_log          004632a0 f   libdb41s:fileops_auto.obj
 0001:00062460       ___fop_remove_getpgnos     00463460 f   libdb41s:fileops_auto.obj
 0001:000624e0       ___fop_remove_print        004634e0 f   libdb41s:fileops_auto.obj
 0001:00062660       ___fop_remove_read         00463660 f   libdb41s:fileops_auto.obj
 0001:00062730       ___fop_write_log           00463730 f   libdb41s:fileops_auto.obj
 0001:00062900       ___fop_write_getpgnos      00463900 f   libdb41s:fileops_auto.obj
 0001:00062980       ___fop_write_print         00463980 f   libdb41s:fileops_auto.obj
 0001:00062b30       ___fop_write_read          00463b30 f   libdb41s:fileops_auto.obj
 0001:00062c10       ___fop_rename_log          00463c10 f   libdb41s:fileops_auto.obj
 0001:00062e20       ___fop_rename_getpgnos     00463e20 f   libdb41s:fileops_auto.obj
 0001:00062ea0       ___fop_rename_print        00463ea0 f   libdb41s:fileops_auto.obj
 0001:000630a0       ___fop_rename_read         004640a0 f   libdb41s:fileops_auto.obj
 0001:000631a0       ___fop_file_remove_log     004641a0 f   libdb41s:fileops_auto.obj
 0001:000633b0       ___fop_file_remove_getpgnos 004643b0 f   libdb41s:fileops_auto.obj
 0001:00063430       ___fop_file_remove_print   00464430 f   libdb41s:fileops_auto.obj
 0001:00063640       ___fop_file_remove_read    00464640 f   libdb41s:fileops_auto.obj
 0001:00063740       ___fop_init_print          00464740 f   libdb41s:fileops_auto.obj
 0001:000637d0       ___fop_init_getpgnos       004647d0 f   libdb41s:fileops_auto.obj
 0001:00063860       ___fop_init_recover        00464860 f   libdb41s:fileops_auto.obj
 0001:000638f0       ___dbreg_register_log      004648f0 f   libdb41s:dbreg_auto.obj
 0001:00063ad0       ___dbreg_register_getpgnos 00464ad0 f   libdb41s:dbreg_auto.obj
 0001:00063b50       ___dbreg_register_print    00464b50 f   libdb41s:dbreg_auto.obj
 0001:00063d20       ___dbreg_register_read     00464d20 f   libdb41s:dbreg_auto.obj
 0001:00063e20       ___dbreg_init_print        00464e20 f   libdb41s:dbreg_auto.obj
 0001:00063e40       ___dbreg_init_getpgnos     00464e40 f   libdb41s:dbreg_auto.obj
 0001:00063e60       ___dbreg_init_recover      00464e60 f   libdb41s:dbreg_auto.obj
 0001:00063e80       ___db_addrem_log           00464e80 f   libdb41s:db_auto.obj
 0001:000640a0       ___db_addrem_getpgnos      004650a0 f   libdb41s:db_auto.obj
 0001:000641c0       ___db_addrem_print         004651c0 f   libdb41s:db_auto.obj
 0001:000643a0       ___db_addrem_read          004653a0 f   libdb41s:db_auto.obj
 0001:000644c0       ___db_big_log              004654c0 f   libdb41s:db_auto.obj
 0001:000646d0       ___db_big_getpgnos         004656d0 f   libdb41s:db_auto.obj
 0001:00064920       ___db_big_print            00465920 f   libdb41s:db_auto.obj
 0001:00064ab0       ___db_big_read             00465ab0 f   libdb41s:db_auto.obj
 0001:00064bd0       ___db_ovref_log            00465bd0 f   libdb41s:db_auto.obj
 0001:00064d50       ___db_ovref_getpgnos       00465d50 f   libdb41s:db_auto.obj
 0001:00064e70       ___db_ovref_print          00465e70 f   libdb41s:db_auto.obj
 0001:00064f30       ___db_ovref_read           00465f30 f   libdb41s:db_auto.obj
 0001:00064fe0       ___db_relink_log           00465fe0 f   libdb41s:db_auto.obj
 0001:000651c0       ___db_relink_getpgnos      004661c0 f   libdb41s:db_auto.obj
 0001:00065410       ___db_relink_print         00466410 f   libdb41s:db_auto.obj
 0001:00065520       ___db_relink_read          00466520 f   libdb41s:db_auto.obj
 0001:00065610       ___db_debug_log            00466610 f   libdb41s:db_auto.obj
 0001:000657f0       ___db_debug_getpgnos       004667f0 f   libdb41s:db_auto.obj
 0001:00065870       ___db_debug_print          00466870 f   libdb41s:db_auto.obj
 0001:00065a80       ___db_debug_read           00466a80 f   libdb41s:db_auto.obj
 0001:00065b80       ___db_noop_log             00466b80 f   libdb41s:db_auto.obj
 0001:00065cf0       ___db_noop_getpgnos        00466cf0 f   libdb41s:db_auto.obj
 0001:00065e10       ___db_noop_print           00466e10 f   libdb41s:db_auto.obj
 0001:00065eb0       ___db_noop_read            00466eb0 f   libdb41s:db_auto.obj
 0001:00065f50       ___db_pg_alloc_log         00466f50 f   libdb41s:db_auto.obj
 0001:00066100       ___db_pg_alloc_getpgnos    00467100 f   libdb41s:db_auto.obj
 0001:000662b0       ___db_pg_alloc_print       004672b0 f   libdb41s:db_auto.obj
 0001:000663b0       ___db_pg_alloc_read        004673b0 f   libdb41s:db_auto.obj
 0001:00066490       ___db_pg_free_log          00467490 f   libdb41s:db_auto.obj
 0001:00066650       ___db_pg_free_getpgnos     00467650 f   libdb41s:db_auto.obj
 0001:00066800       ___db_pg_free_print        00467800 f   libdb41s:db_auto.obj
 0001:00066950       ___db_pg_free_read         00467950 f   libdb41s:db_auto.obj
 0001:00066a30       ___db_cksum_log            00467a30 f   libdb41s:db_auto.obj
 0001:00066b60       ___db_cksum_getpgnos       00467b60 f   libdb41s:db_auto.obj
 0001:00066be0       ___db_cksum_print          00467be0 f   libdb41s:db_auto.obj
 0001:00066c50       ___db_cksum_read           00467c50 f   libdb41s:db_auto.obj
 0001:00066cb0       ___db_init_print           00467cb0 f   libdb41s:db_auto.obj
 0001:00066da0       ___db_init_getpgnos        00467da0 f   libdb41s:db_auto.obj
 0001:00066e90       ___db_init_recover         00467e90 f   libdb41s:db_auto.obj
 0001:00066f80       ___crdel_metasub_log       00467f80 f   libdb41s:crdel_auto.obj
 0001:00067130       ___crdel_metasub_getpgnos  00468130 f   libdb41s:crdel_auto.obj
 0001:00067250       ___crdel_metasub_print     00468250 f   libdb41s:crdel_auto.obj
 0001:00067380       ___crdel_metasub_read      00468380 f   libdb41s:crdel_auto.obj
 0001:00067450       ___crdel_init_print        00468450 f   libdb41s:crdel_auto.obj
 0001:00067480       ___crdel_init_getpgnos     00468480 f   libdb41s:crdel_auto.obj
 0001:000674b0       ___crdel_init_recover      004684b0 f   libdb41s:crdel_auto.obj
 0001:000674e0       ___bam_split_log           004684e0 f   libdb41s:btree_auto.obj
 0001:00067710       ___bam_split_getpgnos      00468710 f   libdb41s:btree_auto.obj
 0001:00067940       ___bam_split_print         00468940 f   libdb41s:btree_auto.obj
 0001:00067af0       ___bam_split_read          00468af0 f   libdb41s:btree_auto.obj
 0001:00067c30       ___bam_rsplit_log          00468c30 f   libdb41s:btree_auto.obj
 0001:00067e40       ___bam_rsplit_getpgnos     00468e40 f   libdb41s:btree_auto.obj
 0001:00067ff0       ___bam_rsplit_print        00468ff0 f   libdb41s:btree_auto.obj
 0001:000681c0       ___bam_rsplit_read         004691c0 f   libdb41s:btree_auto.obj
 0001:000682d0       ___bam_adj_log             004692d0 f   libdb41s:btree_auto.obj
 0001:00068460       ___bam_adj_getpgnos        00469460 f   libdb41s:btree_auto.obj
 0001:00068580       ___bam_adj_print           00469580 f   libdb41s:btree_auto.obj
 0001:00068660       ___bam_adj_read            00469660 f   libdb41s:btree_auto.obj
 0001:00068720       ___bam_cadjust_log         00469720 f   libdb41s:btree_auto.obj
 0001:000688b0       ___bam_cadjust_getpgnos    004698b0 f   libdb41s:btree_auto.obj
 0001:000689d0       ___bam_cadjust_print       004699d0 f   libdb41s:btree_auto.obj
 0001:00068ab0       ___bam_cadjust_read        00469ab0 f   libdb41s:btree_auto.obj
 0001:00068b70       ___bam_cdel_log            00469b70 f   libdb41s:btree_auto.obj
 0001:00068cf0       ___bam_cdel_getpgnos       00469cf0 f   libdb41s:btree_auto.obj
 0001:00068e10       ___bam_cdel_print          00469e10 f   libdb41s:btree_auto.obj
 0001:00068ed0       ___bam_cdel_read           00469ed0 f   libdb41s:btree_auto.obj
 0001:00068f80       ___bam_repl_log            00469f80 f   libdb41s:btree_auto.obj
 0001:00069190       ___bam_repl_getpgnos       0046a190 f   libdb41s:btree_auto.obj
 0001:000692b0       ___bam_repl_print          0046a2b0 f   libdb41s:btree_auto.obj
 0001:000694b0       ___bam_repl_read           0046a4b0 f   libdb41s:btree_auto.obj
 0001:000695d0       ___bam_root_log            0046a5d0 f   libdb41s:btree_auto.obj
 0001:00069750       ___bam_root_getpgnos       0046a750 f   libdb41s:btree_auto.obj
 0001:00069900       ___bam_root_print          0046a900 f   libdb41s:btree_auto.obj
 0001:000699c0       ___bam_root_read           0046a9c0 f   libdb41s:btree_auto.obj
 0001:00069a70       ___bam_curadj_log          0046aa70 f   libdb41s:btree_auto.obj
 0001:00069c00       ___bam_curadj_getpgnos     0046ac00 f   libdb41s:btree_auto.obj
 0001:00069c80       ___bam_curadj_print        0046ac80 f   libdb41s:btree_auto.obj
 0001:00069d80       ___bam_curadj_read         0046ad80 f   libdb41s:btree_auto.obj
 0001:00069e50       ___bam_rcuradj_log         0046ae50 f   libdb41s:btree_auto.obj
 0001:00069fd0       ___bam_rcuradj_getpgnos    0046afd0 f   libdb41s:btree_auto.obj
 0001:0006a050       ___bam_rcuradj_print       0046b050 f   libdb41s:btree_auto.obj
 0001:0006a120       ___bam_rcuradj_read        0046b120 f   libdb41s:btree_auto.obj
 0001:0006a1d0       ___bam_init_print          0046b1d0 f   libdb41s:btree_auto.obj
 0001:0006a2c0       ___bam_init_getpgnos       0046b2c0 f   libdb41s:btree_auto.obj
 0001:0006a3b0       ___bam_init_recover        0046b3b0 f   libdb41s:btree_auto.obj
 0001:0006a4a0       ___txn_open                0046b4a0 f   libdb41s:txn_region.obj
 0001:0006a810       ___txn_dbenv_refresh       0046b810 f   libdb41s:txn_region.obj
 0001:0006a920       ___txn_region_destroy      0046b920 f   libdb41s:txn_region.obj
 0001:0006a930       ___lock_open               0046b930 f   libdb41s:lock_region.obj
 0001:0006aee0       ___lock_dbenv_refresh      0046bee0 f   libdb41s:lock_region.obj
 0001:0006afd0       ___lock_region_destroy     0046bfd0 f   libdb41s:lock_region.obj
 0001:0006afe0       ___db_e_attach             0046bfe0 f   libdb41s:env_region.obj
 0001:0006b720       ___db_e_detach             0046c720 f   libdb41s:env_region.obj
 0001:0006b800       ___db_e_remove             0046c800 f   libdb41s:env_region.obj
 0001:0006bc80       ___db_e_stat               0046cc80 f   libdb41s:env_region.obj
 0001:0006bd80       ___db_r_attach             0046cd80 f   libdb41s:env_region.obj
 0001:0006bf10       ___db_r_detach             0046cf10 f   libdb41s:env_region.obj
 0001:0006c2a0       ___db_oflags               0046d2a0 f   libdb41s:os_oflags.obj
 0001:0006c2d0       ___db_omode                0046d2d0 f   libdb41s:os_oflags.obj
 0001:0006c2f0       ___os_tmpdir               0046d2f0 f   libdb41s:os_tmpdir.obj
 0001:0006c4e0       ___os_exists               0046d4e0 f   libdb41s:os_stat.obj
 0001:0006c540       ___os_ioinfo               0046d540 f   libdb41s:os_stat.obj
 0001:0006c630       ___os_abspath              0046d630 f   libdb41s:os_abs.obj
 0001:0006c690       ___os_isroot               0046d690 f   libdb41s:os_root.obj
 0001:0006c6a0       ___db_Cstrcasecmp          0046d6a0 f   libdb41s:strcasecmp.obj
 0001:0006c710       ___db_Cstrncasecmp         0046d710 f   libdb41s:strcasecmp.obj
 0001:0006c790       ___os_open                 0046d790 f   libdb41s:os_open.obj
 0001:0006ca90       ___db_cursorchk            0046da90 f   libdb41s:db_iface.obj
 0001:0006cb80       ___db_ccountchk            0046db80 f   libdb41s:db_iface.obj
 0001:0006cbc0       ___db_cdelchk              0046dbc0 f   libdb41s:db_iface.obj
 0001:0006cc30       ___db_cgetchk              0046dc30 f   libdb41s:db_iface.obj
 0001:0006ce30       ___db_cputchk              0046de30 f   libdb41s:db_iface.obj
 0001:0006cfa0       ___db_pgetchk              0046dfa0 f   libdb41s:db_iface.obj
 0001:0006d060       ___db_cpgetchk             0046e060 f   libdb41s:db_iface.obj
 0001:0006d160       ___db_delchk               0046e160 f   libdb41s:db_iface.obj
 0001:0006d1c0       ___db_getchk               0046e1c0 f   libdb41s:db_iface.obj
 0001:0006d360       ___db_joinchk              0046e360 f   libdb41s:db_iface.obj
 0001:0006d3f0       ___db_joingetchk           0046e3f0 f   libdb41s:db_iface.obj
 0001:0006d470       ___db_putchk               0046e470 f   libdb41s:db_iface.obj
 0001:0006d5b0       ___db_statchk              0046e5b0 f   libdb41s:db_iface.obj
 0001:0006d630       ___db_syncchk              0046e630 f   libdb41s:db_iface.obj
 0001:0006d780       ___db_secondary_corrupt    0046e780 f   libdb41s:db_iface.obj
 0001:0006d7a0       ___db_associatechk         0046e7a0 f   libdb41s:db_iface.obj
 0001:0006d870       ___db_txn_auto             0046e870 f   libdb41s:db_iface.obj
 0001:0006d8d0       ___fop_lock_handle         0046e8d0 f   libdb41s:fop_util.obj
 0001:0006da60       ___fop_file_setup          0046ea60 f   libdb41s:fop_util.obj
 0001:0006e440       ___fop_subdb_setup         0046f440 f   libdb41s:fop_util.obj
 0001:0006e680       ___fop_remove_setup        0046f680 f   libdb41s:fop_util.obj
 0001:0006e7f0       ___fop_read_meta           0046f7f0 f   libdb41s:fop_util.obj
 0001:0006e8f0       ___fop_dummy               0046f8f0 f   libdb41s:fop_util.obj
 0001:0006ecf0       ___fop_dbrename            0046fcf0 f   libdb41s:fop_util.obj
 0001:0006ee20       ___fop_create              0046fe20 f   libdb41s:fop_basic.obj
 0001:0006ef60       ___fop_remove              0046ff60 f   libdb41s:fop_basic.obj
 0001:0006f080       ___fop_write               00470080 f   libdb41s:fop_basic.obj
 0001:0006f210       ___fop_rename              00470210 f   libdb41s:fop_basic.obj
 0001:0006f370       ___bam_reclaim             00470370 f   libdb41s:bt_reclaim.obj
 0001:0006f3d0       ___bam_truncate            004703d0 f   libdb41s:bt_reclaim.obj
 0001:0006f450       ___ham_reclaim             00470450 f   libdb41s:hash_reclaim.obj
 0001:0006f500       ___ham_truncate            00470500 f   libdb41s:hash_reclaim.obj
 0001:0006f5d0       ___qam_fprobe              004705d0 f   libdb41s:qam_files.obj
 0001:0006fb10       ___qam_fclose              00470b10 f   libdb41s:qam_files.obj
 0001:0006fba0       ___qam_fremove             00470ba0 f   libdb41s:qam_files.obj
 0001:0006fcb0       ___qam_sync                00470cb0 f   libdb41s:qam_files.obj
 0001:0006fe80       ___qam_gen_filelist        00470e80 f   libdb41s:qam_files.obj
 0001:0006ffd0       ___qam_extent_names        00470fd0 f   libdb41s:qam_files.obj
 0001:000701c0       ___qam_exid                004711c0 f   libdb41s:qam_files.obj
 0001:000701f0       ___db_loadme               004711f0 f   libdb41s:db_pr.obj
 0001:00070200       ___db_dump                 00471200 f   libdb41s:db_pr.obj
 0001:000702b0       ___db_inmemdbflags         004712b0 f   libdb41s:db_pr.obj
 0001:00070520       ___db_prnpage              00471520 f   libdb41s:db_pr.obj
 0001:00070580       ___db_prpage               00471580 f   libdb41s:db_pr.obj
 0001:00071190       ___db_pr                   00472190 f   libdb41s:db_pr.obj
 0001:00071290       ___db_prdbt                00472290 f   libdb41s:db_pr.obj
 0001:00071550       ___db_prflags              00472550 f   libdb41s:db_pr.obj
 0001:000715b0       ___db_dbtype_to_string     004725b0 f   libdb41s:db_pr.obj
 0001:00071680       ___db_prheader             00472680 f   libdb41s:db_pr.obj
 0001:00071de0       ___db_prfooter             00472de0 f   libdb41s:db_pr.obj
 0001:00071e00       ___txn_remevent            00472e00 f   libdb41s:txn_util.obj
 0001:00071ed0       ___txn_lockevent           00472ed0 f   libdb41s:txn_util.obj
 0001:00071f70       ___txn_remlock             00472f70 f   libdb41s:txn_util.obj
 0001:00071fe0       ___txn_doevents            00472fe0 f   libdb41s:txn_util.obj
 0001:000721f0       ___db_rpath                004731f0 f   libdb41s:os_rpath.obj
 0001:00072250       ___bam_cmp                 00473250 f   libdb41s:bt_compare.obj
 0001:000723d0       ___bam_defcmp              004733d0 f   libdb41s:bt_compare.obj
 0001:00072420       ___bam_defpfx              00473420 f   libdb41s:bt_compare.obj
 0001:00072480       ___db_vrfy_dbinfo_create   00473480 f   libdb41s:db_vrfyutil.obj
 0001:00072610       ___db_vrfy_dbinfo_destroy  00473610 f   libdb41s:db_vrfyutil.obj
 0001:00072690       ___db_vrfy_getpageinfo     00473690 f   libdb41s:db_vrfyutil.obj
 0001:000727a0       ___db_vrfy_putpageinfo     004737a0 f   libdb41s:db_vrfyutil.obj
 0001:00072850       ___db_vrfy_pgset           00473850 f   libdb41s:db_vrfyutil.obj
 0001:000728d0       ___db_vrfy_pgset_get       004738d0 f   libdb41s:db_vrfyutil.obj
 0001:00072960       ___db_vrfy_pgset_inc       00473960 f   libdb41s:db_vrfyutil.obj
 0001:00072980       ___db_vrfy_pgset_dec       00473980 f   libdb41s:db_vrfyutil.obj
 0001:00072a50       ___db_vrfy_pgset_next      00473a50 f   libdb41s:db_vrfyutil.obj
 0001:00072ac0       ___db_vrfy_childcursor     00473ac0 f   libdb41s:db_vrfyutil.obj
 0001:00072af0       ___db_vrfy_childput        00473af0 f   libdb41s:db_vrfyutil.obj
 0001:00072bf0       ___db_vrfy_ccset           00473bf0 f   libdb41s:db_vrfyutil.obj
 0001:00072c50       ___db_vrfy_ccnext          00473c50 f   libdb41s:db_vrfyutil.obj
 0001:00072ca0       ___db_vrfy_ccclose         00473ca0 f   libdb41s:db_vrfyutil.obj
 0001:00072cf0       ___db_salvage_init         00473cf0 f   libdb41s:db_vrfyutil.obj
 0001:00072d70       ___db_salvage_destroy      00473d70 f   libdb41s:db_vrfyutil.obj
 0001:00072d90       ___db_salvage_getnext      00473d90 f   libdb41s:db_vrfyutil.obj
 0001:00072e60       ___db_salvage_isdone       00473e60 f   libdb41s:db_vrfyutil.obj
 0001:00072f00       ___db_salvage_markdone     00473f00 f   libdb41s:db_vrfyutil.obj
 0001:00072fb0       ___db_salvage_markneeded   00473fb0 f   libdb41s:db_vrfyutil.obj
 0001:00073020       ___os_openhandle           00474020 f   libdb41s:os_handle.obj
 0001:000730f0       ___os_closehandle          004740f0 f   libdb41s:os_handle.obj
 0001:00073170       ___os_io                   00474170 f   libdb41s:os_rw.obj
 0001:000732c0       ___os_read                 004742c0 f   libdb41s:os_rw.obj
 0001:00073380       ___os_write                00474380 f   libdb41s:os_rw.obj
 0001:000736c0       ___os_seek                 004746c0 f   libdb41s:os_seek.obj
 0001:00073820       ___qam_vrfy_meta           00474820 f   libdb41s:qam_verify.obj
 0001:00073960       ___qam_vrfy_data           00474960 f   libdb41s:qam_verify.obj
 0001:00073a10       ___qam_vrfy_structure      00474a10 f   libdb41s:qam_verify.obj
 0001:00073b50       ___bam_vrfy_meta           00474b50 f   libdb41s:bt_verify.obj
 0001:00073ea0       ___ram_vrfy_leaf           00474ea0 f   libdb41s:bt_verify.obj
 0001:000740c0       ___bam_vrfy                004750c0 f   libdb41s:bt_verify.obj
 0001:00074c00       ___bam_vrfy_itemorder      00475c00 f   libdb41s:bt_verify.obj
 0001:000750e0       ___bam_vrfy_structure      004760e0 f   libdb41s:bt_verify.obj
 0001:00075350       ___bam_vrfy_subtree        00476350 f   libdb41s:bt_verify.obj
 0001:00076230       ___bam_salvage             00477230 f   libdb41s:bt_verify.obj
 0001:00076670       ___bam_salvage_walkdupint  00477670 f   libdb41s:bt_verify.obj
 0001:00076790       ___bam_meta2pgset          00477790 f   libdb41s:bt_verify.obj
 0001:00076a40       ___ham_vrfy_meta           00477a40 f   libdb41s:hash_verify.obj
 0001:00076ce0       ___ham_vrfy                00477ce0 f   libdb41s:hash_verify.obj
 0001:000772c0       ___ham_vrfy_structure      004782c0 f   libdb41s:hash_verify.obj
 0001:000779f0       ___ham_vrfy_hashing        004789f0 f   libdb41s:hash_verify.obj
 0001:00077b30       ___ham_salvage             00478b30 f   libdb41s:hash_verify.obj
 0001:00077f40       ___ham_meta2pgset          00478f40 f   libdb41s:hash_verify.obj
 0001:00078120       ___db_goff                 00479120 f   libdb41s:db_overflow.obj
 0001:00078300       ___db_poff                 00479300 f   libdb41s:db_overflow.obj
 0001:00078580       ___db_ovref                00479580 f   libdb41s:db_overflow.obj
 0001:00078650       ___db_doff                 00479650 f   libdb41s:db_overflow.obj
 0001:000787d0       ___db_moff                 004797d0 f   libdb41s:db_overflow.obj
 0001:00078960       ___db_vrfy_overflow        00479960 f   libdb41s:db_overflow.obj
 0001:00078a40       ___db_vrfy_ovfl_structure  00479a40 f   libdb41s:db_overflow.obj
 0001:00078cf0       ___db_safe_goff            00479cf0 f   libdb41s:db_overflow.obj
 0001:00078ed0       ___db_c_close              00479ed0 f   libdb41s:db_cam.obj
 0001:000790f0       ___db_c_destroy            0047a0f0 f   libdb41s:db_cam.obj
 0001:000791d0       ___db_c_count              0047a1d0 f   libdb41s:db_cam.obj
 0001:000792b0       ___db_c_del                0047a2b0 f   libdb41s:db_cam.obj
 0001:00079410       ___db_c_dup                0047a410 f   libdb41s:db_cam.obj
 0001:00079570       ___db_c_idup               0047a570 f   libdb41s:db_cam.obj
 0001:00079730       ___db_c_newopd             0047a730 f   libdb41s:db_cam.obj
 0001:000797f0       ___db_c_get                0047a7f0 f   libdb41s:db_cam.obj
 0001:00079ec0       ___db_c_put                0047aec0 f   libdb41s:db_cam.obj
 0001:0007a990       ___db_duperr               0047b990 f   libdb41s:db_cam.obj
 0001:0007aaf0       ___db_c_secondary_get      0047baf0 f   libdb41s:db_cam.obj
 0001:0007ab10       ___db_c_pget               0047bb10 f   libdb41s:db_cam.obj
 0001:0007b020       ___db_c_del_primary        0047c020 f   libdb41s:db_cam.obj
 0001:0007b240       ___db_s_first              0047c240 f   libdb41s:db_cam.obj
 0001:0007b290       ___db_s_next               0047c290 f   libdb41s:db_cam.obj
 0001:0007b340       ___db_s_done               0047c340 f   libdb41s:db_cam.obj
 0001:0007b4e0       ___db_partsize             0047c4e0 f   libdb41s:db_cam.obj
 0001:0007b510       ___db_log2                 0047c510 f   libdb41s:db_log2.obj
 0001:0007b530       ___ham_func2               0047c530 f   libdb41s:hash_func.obj
 0001:0007b570       ___ham_func3               0047c570 f   libdb41s:hash_func.obj
 0001:0007b670       ___ham_func4               0047c670 f   libdb41s:hash_func.obj
 0001:0007b730       ___ham_func5               0047c730 f   libdb41s:hash_func.obj
 0001:0007b760       ___ham_test                0047c760 f   libdb41s:hash_func.obj
 0001:0007b770       ___bam_30_btreemeta        0047c770 f   libdb41s:bt_upgrade.obj
 0001:0007b7d0       ___bam_31_btreemeta        0047c7d0 f   libdb41s:bt_upgrade.obj
 0001:0007b850       ___bam_31_lbtree           0047c850 f   libdb41s:bt_upgrade.obj
 0001:0007b990       ___ham_30_hashmeta         0047c990 f   libdb41s:hash_upgrade.obj
 0001:0007bab0       ___ham_30_sizefix          0047cab0 f   libdb41s:hash_upgrade.obj
 0001:0007bb60       ___ham_31_hashmeta         0047cb60 f   libdb41s:hash_upgrade.obj
 0001:0007bc00       ___ham_31_hash             0047cc00 f   libdb41s:hash_upgrade.obj
 0001:0007bca0       ___os_fsync                0047cca0 f   libdb41s:os_fsync.obj
 0001:0007bd20       ___qam_31_qammeta          0047cd20 f   libdb41s:qam_upgrade.obj
 0001:0007bd80       ___qam_32_qammeta          0047cd80 f   libdb41s:qam_upgrade.obj
 0001:0007bdd0       ___bam_c_init              0047cdd0 f   libdb41s:bt_cursor.obj
 0001:0007bee0       ___bam_c_refresh           0047cee0 f   libdb41s:bt_cursor.obj
 0001:0007c460       ___bam_c_count             0047d460 f   libdb41s:bt_cursor.obj
 0001:0007c880       ___bam_c_dup               0047d880 f   libdb41s:bt_cursor.obj
 0001:0007d800       ___bam_bulk_overflow       0047e800 f   libdb41s:bt_cursor.obj
 0001:0007d850       ___bam_bulk_duplicates     0047e850 f   libdb41s:bt_cursor.obj
 0001:0007e8b0       ___bam_c_rget              0047f8b0 f   libdb41s:bt_cursor.obj
 0001:0007fc20       ___qam_position            00480c20 f   libdb41s:qam.obj
 0001:0007fda0       ___qam_pitem               00480da0 f   libdb41s:qam.obj
 0001:00080080       ___qam_append              00481080 f   libdb41s:qam.obj
 0001:000803e0       ___qam_c_dup               004813e0 f   libdb41s:qam.obj
 0001:00080450       ___qam_c_init              00481450 f   libdb41s:qam.obj
 0001:00082100       ___qam_truncate            00483100 f   libdb41s:qam.obj
 0001:000822e0       ___ham_quick_delete        004832e0 f   libdb41s:hash.obj
 0001:00082320       ___ham_c_init              00483320 f   libdb41s:hash.obj
 0001:00082590       ___ham_c_count             00483590 f   libdb41s:hash.obj
 0001:00082960       ___ham_c_dup               00483960 f   libdb41s:hash.obj
 0001:00083f40       ___ham_call_hash           00484f40 f   libdb41s:hash.obj
 0001:00084ae0       ___ham_init_dbt            00485ae0 f   libdb41s:hash.obj
 0001:00084b40       ___ham_c_update            00485b40 f   libdb41s:hash.obj
 0001:00084f50       ___ham_get_clist           00485f50 f   libdb41s:hash.obj
 0001:000851c0       ___ram_open                004861c0 f   libdb41s:bt_recno.obj
 0001:00085270       ___ram_append              00486270 f   libdb41s:bt_recno.obj
 0001:000852e0       ___ram_c_del               004862e0 f   libdb41s:bt_recno.obj
 0001:00085570       ___ram_c_get               00486570 f   libdb41s:bt_recno.obj
 0001:000859d0       ___ram_c_put               004869d0 f   libdb41s:bt_recno.obj
 0001:00085e50       ___ram_ca                  00486e50 f   libdb41s:bt_recno.obj
 0001:000862b0       ___ram_getno               004872b0 f   libdb41s:bt_recno.obj
 0001:00086460       ___ram_writeback           00487460 f   libdb41s:bt_recno.obj
 0001:00086a70       ___db_new                  00487a70 f   libdb41s:db_meta.obj
 0001:00086d80       ___db_free                 00487d80 f   libdb41s:db_meta.obj
 0001:00086f70       ___db_lget                 00487f70 f   libdb41s:db_meta.obj
 0001:000871c0       ___db_lput                 004881c0 f   libdb41s:db_meta.obj
 0001:00087240       ___dbreg_setup             00488240 f   libdb41s:dbreg.obj
 0001:000873b0       ___dbreg_teardown          004883b0 f   libdb41s:dbreg.obj
 0001:00087420       ___dbreg_new_id            00488420 f   libdb41s:dbreg.obj
 0001:000875b0       ___dbreg_assign_id         004885b0 f   libdb41s:dbreg.obj
 0001:000876f0       ___dbreg_revoke_id         004886f0 f   libdb41s:dbreg.obj
 0001:000877b0       ___dbreg_close_id          004887b0 f   libdb41s:dbreg.obj
 0001:000878b0       ___db_pgin                 004888b0 f   libdb41s:db_conv.obj
 0001:00087b70       ___db_pgout                00488b70 f   libdb41s:db_conv.obj
 0001:00087d50       ___db_metaswap             00488d50 f   libdb41s:db_conv.obj
 0001:00087ef0       ___db_byteswap             00488ef0 f   libdb41s:db_conv.obj
 0001:00088650       ___qam_open                00489650 f   libdb41s:qam_open.obj
 0001:000888a0       ___qam_metachk             004898a0 f   libdb41s:qam_open.obj
 0001:000889b0       ___qam_new_file            004899b0 f   libdb41s:qam_open.obj
 0001:00088c20       ___ham_open                00489c20 f   libdb41s:hash_open.obj
 0001:00088de0       ___ham_metachk             00489de0 f   libdb41s:hash_open.obj
 0001:00088fa0       ___ham_new_file            00489fa0 f   libdb41s:hash_open.obj
 0001:00089390       ___ham_new_subdb           0048a390 f   libdb41s:hash_open.obj
 0001:000896d0       ___bam_open                0048a6d0 f   libdb41s:bt_open.obj
 0001:000897d0       ___bam_metachk             0048a7d0 f   libdb41s:bt_open.obj
 0001:00089af0       ___bam_read_root           0048aaf0 f   libdb41s:bt_open.obj
 0001:00089c60       ___bam_new_file            0048ac60 f   libdb41s:bt_open.obj
 0001:0008a000       ___bam_new_subdb           0048b000 f   libdb41s:bt_open.obj
 0001:0008a230       ___db_chksum               0048b230 f   libdb41s:hmac.obj
 0001:0008a3e0       ___db_derive_mac           0048b3e0 f   libdb41s:hmac.obj
 0001:0008a440       ___db_check_chksum         0048b440 f   libdb41s:hmac.obj
 0001:0008a540       ___db_ret                  0048b540 f   libdb41s:db_ret.obj
 0001:0008a700       ___db_retcopy              0048b700 f   libdb41s:db_ret.obj
 0001:0008a810       ___db_shalloc_init         0048b810 f   libdb41s:db_salloc.obj
 0001:0008a870       ___db_shalloc_size         0048b870 f   libdb41s:db_salloc.obj
 0001:0008a8a0       ___db_shalloc              0048b8a0 f   libdb41s:db_salloc.obj
 0001:0008a970       ___db_shalloc_free         0048b970 f   libdb41s:db_salloc.obj
 0001:0008ab40       ___db_shsizeof             0048bb40 f   libdb41s:db_salloc.obj
 0001:0008ab60       ___db_shalloc_dump         0048bb60 f   libdb41s:db_salloc.obj
 0001:0008abd0       ___db_idspace              0048bbd0 f   libdb41s:db_idspace.obj
 0001:0008aca0       ___os_spin                 0048bca0 f   libdb41s:os_spin.obj
 0001:0008acf0       ___os_yield                0048bcf0 f   libdb41s:os_spin.obj
 0001:0008ad20       ___memp_bhwrite            0048bd20 f   libdb41s:mp_bh.obj
 0001:0008af70       ___memp_pgread             0048bf70 f   libdb41s:mp_bh.obj
 0001:0008b2e0       ___memp_pg                 0048c2e0 f   libdb41s:mp_bh.obj
 0001:0008b440       ___memp_bhfree             0048c440 f   libdb41s:mp_bh.obj
 0001:0008b670       ___db_tablesize            0048c670 f   libdb41s:db_shash.obj
 0001:0008b6b0       ___db_hashinit             0048c6b0 f   libdb41s:db_shash.obj
 0001:0008b6d0       ___os_rename               0048c6d0 f   libdb41s:os_rename.obj
 0001:0008b780       ___os_region_unlink        0048c780 f   libdb41s:os_unlink.obj
 0001:0008b7b0       ___os_unlink               0048c7b0 f   libdb41s:os_unlink.obj
 0001:0008b810       ___memp_alloc              0048c810 f   libdb41s:mp_alloc.obj
 0001:0008bd90       ___memp_fset               0048cd90 f   libdb41s:mp_fset.obj
 0001:0008bf20       ___memp_fput               0048cf20 f   libdb41s:mp_fput.obj
 0001:0008c2c0       ___memp_fget               0048d2c0 f   libdb41s:mp_fget.obj
 0001:0008cd20       ___os_r_sysattach          0048dd20 f   libdb41s:os_map.obj
 0001:0008cde0       ___os_r_sysdetach          0048dde0 f   libdb41s:os_map.obj
 0001:0008ce80       ___os_mapfile              0048de80 f   libdb41s:os_map.obj
 0001:0008cee0       ___os_unmapfile            0048dee0 f   libdb41s:os_map.obj
 0001:0008d1a0       ___os_fileid               0048e1a0 f   libdb41s:os_fid.obj
 0001:0008d320       ___lock_cmp                0048e320 f   libdb41s:lock_util.obj
 0001:0008d350       ___lock_locker_cmp         0048e350 f   libdb41s:lock_util.obj
 0001:0008d370       ___lock_ohash              0048e370 f   libdb41s:lock_util.obj
 0001:0008d3d0       ___lock_lhash              0048e3d0 f   libdb41s:lock_util.obj
 0001:0008d430       ___lock_locker_hash        0048e430 f   libdb41s:lock_util.obj
 0001:0008d440       ___os_dirlist              0048e440 f   libdb41s:os_dir.obj
 0001:0008d5a0       ___os_dirfree              0048e5a0 f   libdb41s:os_dir.obj
 0001:0008d600       ___qam_incfirst_recover    0048e600 f   libdb41s:qam_rec.obj
 0001:0008d9c0       ___qam_mvptr_recover       0048e9c0 f   libdb41s:qam_rec.obj
 0001:0008dc80       ___qam_del_recover         0048ec80 f   libdb41s:qam_rec.obj
 0001:0008e000       ___qam_delext_recover      0048f000 f   libdb41s:qam_rec.obj
 0001:0008e3b0       ___qam_add_recover         0048f3b0 f   libdb41s:qam_rec.obj
 0001:0008e7c0       ___ham_insdel_recover      0048f7c0 f   libdb41s:hash_rec.obj
 0001:0008eb20       ___ham_newpage_recover     0048fb20 f   libdb41s:hash_rec.obj
 0001:0008f0c0       ___ham_replace_recover     004900c0 f   libdb41s:hash_rec.obj
 0001:0008f3d0       ___ham_splitdata_recover   004903d0 f   libdb41s:hash_rec.obj
 0001:0008f6b0       ___ham_copypage_recover    004906b0 f   libdb41s:hash_rec.obj
 0001:0008fbe0       ___ham_metagroup_recover   00490be0 f   libdb41s:hash_rec.obj
 0001:00090100       ___ham_groupalloc_recover  00491100 f   libdb41s:hash_rec.obj
 0001:000904f0       ___ham_curadj_recover      004914f0 f   libdb41s:hash_rec.obj
 0001:00090660       ___ham_chgpg_recover       00491660 f   libdb41s:hash_rec.obj
 0001:000909e0       ___fop_create_recover      004919e0 f   libdb41s:fop_rec.obj
 0001:00090ae0       ___fop_remove_recover      00491ae0 f   libdb41s:fop_rec.obj
 0001:00090bb0       ___fop_write_recover       00491bb0 f   libdb41s:fop_rec.obj
 0001:00090c50       ___fop_rename_recover      00491c50 f   libdb41s:fop_rec.obj
 0001:00090e10       ___fop_file_remove_recover 00491e10 f   libdb41s:fop_rec.obj
 0001:00090ff0       ___dbreg_register_recover  00491ff0 f   libdb41s:dbreg_rec.obj
 0001:000914d0       ___db_addrem_recover       004924d0 f   libdb41s:db_rec.obj
 0001:000917d0       ___db_big_recover          004927d0 f   libdb41s:db_rec.obj
 0001:00091df0       ___db_ovref_recover        00492df0 f   libdb41s:db_rec.obj
 0001:00092040       ___db_relink_recover       00493040 f   libdb41s:db_rec.obj
 0001:00092590       ___db_debug_recover        00493590 f   libdb41s:db_rec.obj
 0001:000925e0       ___db_noop_recover         004935e0 f   libdb41s:db_rec.obj
 0001:000927e0       ___db_pg_alloc_recover     004937e0 f   libdb41s:db_rec.obj
 0001:00092cf0       ___db_pg_free_recover      00493cf0 f   libdb41s:db_rec.obj
 0001:000930f0       ___db_cksum_recover        004940f0 f   libdb41s:db_rec.obj
 0001:00093160       ___crdel_metasub_recover   00494160 f   libdb41s:crdel_rec.obj
 0001:000933b0       ___bam_split_recover       004943b0 f   libdb41s:bt_rec.obj
 0001:00093f40       ___bam_rsplit_recover      00494f40 f   libdb41s:bt_rec.obj
 0001:000943b0       ___bam_adj_recover         004953b0 f   libdb41s:bt_rec.obj
 0001:00094670       ___bam_cadjust_recover     00495670 f   libdb41s:bt_rec.obj
 0001:00094a40       ___bam_cdel_recover        00495a40 f   libdb41s:bt_rec.obj
 0001:00094d60       ___bam_repl_recover        00495d60 f   libdb41s:bt_rec.obj
 0001:00095210       ___bam_root_recover        00496210 f   libdb41s:bt_rec.obj
 0001:00095480       ___bam_curadj_recover      00496480 f   libdb41s:bt_rec.obj
 0001:00095630       ___bam_rcuradj_recover     00496630 f   libdb41s:bt_rec.obj
 0001:000957e0       ___os_r_attach             004967e0 f   libdb41s:os_region.obj
 0001:00095870       ___os_r_detach             00496870 f   libdb41s:os_region.obj
 0001:000958d0       ___db_fileinit             004968d0 f   libdb41s:env_file.obj
 0001:000959f0       ___db_overwrite            004969f0 f   libdb41s:env_file.obj
 0001:00095c10       ___os_is_winnt             00496c10 f   libdb41s:os_type.obj
 0001:00095c30       ___bam_stat                00496c30 f   libdb41s:bt_stat.obj
 0001:00096160       ___bam_traverse            00497160 f   libdb41s:bt_stat.obj
 0001:000965f0       ___bam_stat_callback       004975f0 f   libdb41s:bt_stat.obj
 0001:000969b0       ___bam_key_range           004979b0 f   libdb41s:bt_stat.obj
 0001:00096bd0       ___db_traverse_big         00497bd0 f   libdb41s:db_reclaim.obj
 0001:00096c70       ___db_reclaim_callback     00497c70 f   libdb41s:db_reclaim.obj
 0001:00096ca0       ___db_truncate_callback    00497ca0 f   libdb41s:db_reclaim.obj
 0001:00097210       ___ham_get_meta            00498210 f   libdb41s:hash_meta.obj
 0001:000972c0       ___ham_release_meta        004982c0 f   libdb41s:hash_meta.obj
 0001:00097330       ___ham_dirty_meta          00498330 f   libdb41s:hash_meta.obj
 0001:00097400       ___ham_stat                00498400 f   libdb41s:hash_stat.obj
 0001:000976a0       ___ham_traverse            004986a0 f   libdb41s:hash_stat.obj
 0001:00097c40       ___os_fs_notzero           00498c40 f   libdb41s:os_config.obj
 0001:00097c50       ___db_31_offdup            00498c50 f   libdb41s:db_upg_opd.obj
 0001:000986b0       ___bam_ca_delete           004996b0 f   libdb41s:bt_curadj.obj
 0001:000987c0       ___ram_ca_delete           004997c0 f   libdb41s:bt_curadj.obj
 0001:00098890       ___bam_ca_di               00499890 f   libdb41s:bt_curadj.obj
 0001:00098a20       ___bam_ca_dup              00499a20 f   libdb41s:bt_curadj.obj
 0001:00098c90       ___bam_ca_undodup          00499c90 f   libdb41s:bt_curadj.obj
 0001:00098dc0       ___bam_ca_rsplit           00499dc0 f   libdb41s:bt_curadj.obj
 0001:00098f30       ___bam_ca_split            00499f30 f   libdb41s:bt_curadj.obj
 0001:000990f0       ___bam_ca_undosplit        0049a0f0 f   libdb41s:bt_curadj.obj
 0001:000991f0       ___bam_search              0049a1f0 f   libdb41s:bt_search.obj
 0001:00099d70       ___bam_stkrel              0049ad70 f   libdb41s:bt_search.obj
 0001:00099e50       ___bam_stkgrow             0049ae50 f   libdb41s:bt_search.obj
 0001:00099f00       ___bam_rsearch             0049af00 f   libdb41s:bt_rsearch.obj
 0001:0009a630       ___bam_adjust              0049b630 f   libdb41s:bt_rsearch.obj
 0001:0009a790       ___bam_nrecs               0049b790 f   libdb41s:bt_rsearch.obj
 0001:0009a840       ___bam_total               0049b840 f   libdb41s:bt_rsearch.obj
 0001:0009aa40       ___bam_split               0049ba40 f   libdb41s:bt_split.obj
 0001:0009c780       ___bam_copy                0049d780 f   libdb41s:bt_split.obj
 0001:0009ca40       ___bam_iitem               0049da40 f   libdb41s:bt_put.obj
 0001:0009d4c0       ___bam_ritem               0049e4c0 f   libdb41s:bt_put.obj
 0001:0009dc30       ___bam_ditem               0049ec30 f   libdb41s:bt_delete.obj
 0001:0009de90       ___bam_adjindx             0049ee90 f   libdb41s:bt_delete.obj
 0001:0009dfc0       ___bam_dpages              0049efc0 f   libdb41s:bt_delete.obj
 0001:0009e640       ___ham_item                0049f640 f   libdb41s:hash_page.obj
 0001:0009e800       ___ham_item_reset          0049f800 f   libdb41s:hash_page.obj
 0001:0009e840       ___ham_item_init           0049f840 f   libdb41s:hash_page.obj
 0001:0009e8a0       ___ham_item_last           0049f8a0 f   libdb41s:hash_page.obj
 0001:0009e900       ___ham_item_first          0049f900 f   libdb41s:hash_page.obj
 0001:0009e960       ___ham_item_prev           0049f960 f   libdb41s:hash_page.obj
 0001:0009eb50       ___ham_item_next           0049fb50 f   libdb41s:hash_page.obj
 0001:0009ece0       ___ham_putitem             0049fce0 f   libdb41s:hash_page.obj
 0001:0009ee00       ___ham_reputpair           0049fe00 f   libdb41s:hash_page.obj
 0001:0009ef80       ___ham_del_pair            0049ff80 f   libdb41s:hash_page.obj
 0001:0009f760       ___ham_replpair            004a0760 f   libdb41s:hash_page.obj
 0001:0009fc20       ___ham_onpage_replace      004a0c20 f   libdb41s:hash_page.obj
 0001:0009feb0       ___ham_split_page          004a0eb0 f   libdb41s:hash_page.obj
 0001:000a0750       ___ham_add_el              004a1750 f   libdb41s:hash_page.obj
 0001:000a0b20       ___ham_copy_item           004a1b20 f   libdb41s:hash_page.obj
 0001:000a0c50       ___ham_add_ovflpage        004a1c50 f   libdb41s:hash_page.obj
 0001:000a0d40       ___ham_get_cpage           004a1d40 f   libdb41s:hash_page.obj
 0001:000a0eb0       ___ham_next_cpage          004a1eb0 f   libdb41s:hash_page.obj
 0001:000a0f20       ___ham_lock_bucket         004a1f20 f   libdb41s:hash_page.obj
 0001:000a0fa0       ___ham_dpair               004a1fa0 f   libdb41s:hash_page.obj
 0001:000a13c0       ___ham_add_dup             004a23c0 f   libdb41s:hash_dup.obj
 0001:000a1910       ___ham_dup_convert         004a2910 f   libdb41s:hash_dup.obj
 0001:000a1e90       ___ham_make_dup            004a2e90 f   libdb41s:hash_dup.obj
 0001:000a2910       ___ham_dsearch             004a3910 f   libdb41s:hash_dup.obj
 0001:000a2cc0       ___db_ditem                004a3cc0 f   libdb41s:db_dup.obj
 0001:000a2e50       ___db_pitem                004a3e50 f   libdb41s:db_dup.obj
 0001:000a3030       ___db_relink               004a4030 f   libdb41s:db_dup.obj
 0001:000a3330       ___bam_pgin                004a4330 f   libdb41s:bt_conv.obj
 0001:000a3380       ___bam_pgout               004a4380 f   libdb41s:bt_conv.obj
 0001:000a33d0       ___bam_mswap               004a43d0 f   libdb41s:bt_conv.obj
 0001:000a34c0       ___ham_pgin                004a44c0 f   libdb41s:hash_conv.obj
 0001:000a3540       ___ham_pgout               004a4540 f   libdb41s:hash_conv.obj
 0001:000a3590       ___ham_mswap               004a4590 f   libdb41s:hash_conv.obj
 0001:000a36d0       ___qam_mswap               004a46d0 f   libdb41s:qam_conv.obj
 0001:000a37e0       ___qam_pgin_out            004a47e0 f   libdb41s:qam_conv.obj
 0001:000a3860       ___qam_stat                004a4860 f   libdb41s:qam_stat.obj
 0001:000a3df0       ___db_SHA1Transform        004a4df0 f   libdb41s:sha1.obj
 0001:000a5ce0       ___db_SHA1Init             004a6ce0 f   libdb41s:sha1.obj
 0001:000a5d10       ___db_SHA1Update           004a6d10 f   libdb41s:sha1.obj
 0001:000a5dd0       ___db_SHA1Final            004a6dd0 f   libdb41s:sha1.obj
 0001:000a5ec0       ??0_Lockit@std@@QAE@XZ     004a6ec0 f   libcpmt:xlock.obj
 0001:000a5f5c       ??1_Lockit@std@@QAE@XZ     004a6f5c f   libcpmt:xlock.obj
 0001:000a5f71       ??3@YAXPAX@Z               004a6f71 f   libcpmt:delop.obj
 0001:000a5f7c       ?_Xlen@std@@YAXXZ          004a6f7c f   libcpmt:string.obj
 0001:000a5fd6       ??0logic_error@std@@QAE@ABV?$basic_string@DU?$char_traits@D@std@@V?$allocator@D@2@@1@@Z 004a6fd6 f i libcpmt:string.obj
 0001:000a603a       ?what@logic_error@std@@UBEPBDXZ 004a703a f i libcpmt:string.obj
 0001:000a6047       ?_Doraise@logic_error@std@@MBEXXZ 004a7047 f i libcpmt:string.obj
 0001:000a6064       ??1logic_error@std@@UAE@XZ 004a7064 f i libcpmt:string.obj
 0001:000a60a1       ??_Elogic_error@std@@UAEPAXI@Z 004a70a1 f i libcpmt:string.obj
 0001:000a60a1       ??_Glogic_error@std@@UAEPAXI@Z 004a70a1 f i libcpmt:string.obj
 0001:000a60bd       ??0logic_error@std@@QAE@ABV01@@Z 004a70bd f i libcpmt:string.obj
 0001:000a611a       ??1length_error@std@@UAE@XZ 004a711a f i libcpmt:string.obj
 0001:000a6157       ?_Doraise@length_error@std@@MBEXXZ 004a7157 f i libcpmt:string.obj
 0001:000a6174       ??_Glength_error@std@@UAEPAXI@Z 004a7174 f i libcpmt:string.obj
 0001:000a6174       ??_Elength_error@std@@UAEPAXI@Z 004a7174 f i libcpmt:string.obj
 0001:000a6190       ??0length_error@std@@QAE@ABV01@@Z 004a7190 f i libcpmt:string.obj
 0001:000a61a8       ?_Xran@std@@YAXXZ          004a71a8 f   libcpmt:string.obj
 0001:000a6202       ??1out_of_range@std@@UAE@XZ 004a7202 f i libcpmt:string.obj
 0001:000a623f       ?_Doraise@out_of_range@std@@MBEXXZ 004a723f f i libcpmt:string.obj
 0001:000a625c       ??_Eout_of_range@std@@UAEPAXI@Z 004a725c f i libcpmt:string.obj
 0001:000a625c       ??_Gout_of_range@std@@UAEPAXI@Z 004a725c f i libcpmt:string.obj
 0001:000a6278       ??0out_of_range@std@@QAE@ABV01@@Z 004a7278 f i libcpmt:string.obj
 0001:000a62d2       ?id@?$collate@D@std@@$E    004a72d2 f i libcpmt:string.obj
 0001:000a62d3       ??2@YAPAXI@Z               004a72d3 f   LIBCMT:new.obj
 0001:000a62e1       ?_JumpToContinuation@@YGXPAXPAUEHRegistrationNode@@@Z 004a72e1 f   LIBCMT:trnsctrl.obj
 0001:000a6315       ?_CallMemberFunction0@@YGXPAX0@Z 004a7315 f   LIBCMT:trnsctrl.obj
 0001:000a631c       ?_CallMemberFunction1@@YGXPAX00@Z 004a731c f   LIBCMT:trnsctrl.obj
 0001:000a6323       ?_CallMemberFunction2@@YGXPAX00H@Z 004a7323 f   LIBCMT:trnsctrl.obj
 0001:000a632a       ?_UnwindNestedFrames@@YGXPAUEHRegistrationNode@@PAUEHExceptionRecord@@@Z 004a732a f   LIBCMT:trnsctrl.obj
 0001:000a6379       ___CxxFrameHandler         004a7379 f   LIBCMT:trnsctrl.obj
 0001:000a63af       ___CxxLongjmpUnwind@4      004a73af f   LIBCMT:trnsctrl.obj
 0001:000a63c9       ?_CallCatchBlock2@@YAPAXPAUEHRegistrationNode@@PBU_s_FuncInfo@@PAXHK@Z 004a73c9 f   LIBCMT:trnsctrl.obj
 0001:000a6442       ?_CallSETranslator@@YAHPAUEHExceptionRecord@@PAUEHRegistrationNode@@PAX2PBU_s_FuncInfo@@H1@Z 004a7442 f   LIBCMT:trnsctrl.obj
 0001:000a656d       ?_GetRangeOfTrysToCheck@@YAPBU_s_TryBlockMapEntry@@PBU_s_FuncInfo@@HHPAI1@Z 004a756d f   LIBCMT:trnsctrl.obj
 0001:000a65e8       __global_unwind2           004a75e8 f   LIBCMT:exsup.obj
 0001:000a662a       __local_unwind2            004a762a f   LIBCMT:exsup.obj
 0001:000a6682       __NLG_Return2              004a7682 f   LIBCMT:exsup.obj
 0001:000a6692       __abnormal_termination     004a7692 f   LIBCMT:exsup.obj
 0001:000a66b5       __NLG_Notify1              004a76b5 f   LIBCMT:exsup.obj
 0001:000a66be       __NLG_Notify               004a76be f   LIBCMT:exsup.obj
 0001:000a66d1       __NLG_Dispatch             004a76d1 f   LIBCMT:exsup.obj
 0001:000a66d6       __mbscmp                   004a76d6 f   LIBCMT:mbscmp.obj
 0001:000a6790       __alloca_probe             004a7790 f   LIBCMT:chkstk.obj
 0001:000a6790       __chkstk                   004a7790 f   LIBCMT:chkstk.obj
 0001:000a67bf       _atol                      004a77bf f   LIBCMT:atox.obj
 0001:000a684a       _atoi                      004a784a f   LIBCMT:atox.obj
 0001:000a6855       __atoi64                   004a7855 f   LIBCMT:atox.obj
 0001:000a690f       _itoa                      004a790f f   LIBCMT:xtoa.obj
 0001:000a690f       __itoa                     004a790f f   LIBCMT:xtoa.obj
 0001:000a6998       __ltoa                     004a7998 f   LIBCMT:xtoa.obj
 0001:000a69c2       __ultoa                    004a79c2 f   LIBCMT:xtoa.obj
 0001:000a69dd       __i64toa                   004a79dd f   LIBCMT:xtoa.obj
 0001:000a6a94       __ui64toa                  004a7a94 f   LIBCMT:xtoa.obj
 0001:000a6ab0       _memmove                   004a7ab0 f   LIBCMT:memmove.obj
 0001:000a6df0       _memchr                    004a7df0 f   LIBCMT:memchr.obj
 0001:000a6e95       __onexit                   004a7e95 f   LIBCMT:onexit.obj
 0001:000a6f13       _atexit                    004a7f13 f   LIBCMT:onexit.obj
 0001:000a6f25       ___onexitinit              004a7f25 f   LIBCMT:onexit.obj
 0001:000a6f54       _sprintf                   004a7f54 f   LIBCMT:sprintf.obj
 0001:000a6fa6       __fsopen                   004a7fa6 f   LIBCMT:fopen.obj
 0001:000a6fd7       _fopen                     004a7fd7 f   LIBCMT:fopen.obj
 0001:000a6fea       __findfirst                004a7fea f   LIBCMT:findfile.obj
 0001:000a70b7       __findnext                 004a80b7 f   LIBCMT:findfile.obj
 0001:000a717f       __findclose                004a817f f   LIBCMT:findfile.obj
 0001:000a719f       ___timet_from_ft           004a819f f   LIBCMT:findfile.obj
 0001:000a7203       _fclose                    004a8203 f   LIBCMT:fclose.obj
 0001:000a7234       __fclose_lk                004a8234 f   LIBCMT:fclose.obj
 0001:000a7280       _fseek                     004a8280 f   LIBCMT:fseek.obj
 0001:000a72ac       __fseek_lk                 004a82ac f   LIBCMT:fseek.obj
 0001:000a7339       _fwrite                    004a8339 f   LIBCMT:fwrite.obj
 0001:000a7368       __fwrite_lk                004a8368 f   LIBCMT:fwrite.obj
 0001:000a7472       _ftell                     004a8472 f   LIBCMT:ftell.obj
 0001:000a7494       __ftell_lk                 004a8494 f   LIBCMT:ftell.obj
 0001:000a75f5       _fread                     004a85f5 f   LIBCMT:fread.obj
 0001:000a7624       __fread_lk                 004a8624 f   LIBCMT:fread.obj
 0001:000a7710       _strncpy                   004a8710 f   LIBCMT:strncpy.obj
 0001:000a780e       __fpmath                   004a880e f   LIBCMT:fpinit.obj
 0001:000a7825       __fpclear                  004a8825 f   LIBCMT:fpinit.obj
 0001:000a7826       __cfltcvt_init             004a8826 f   LIBCMT:fpinit.obj
 0001:000a785e       ___setfflag                004a885e f   LIBCMT:fpinit.obj
 0001:000a7870       __ftol                     004a8870 f   LIBCMT:ftol.obj
 0001:000a7897       _free                      004a8897 f   LIBCMT:free.obj
 0001:000a78df       _malloc                    004a88df f   LIBCMT:malloc.obj
 0001:000a78f1       __nh_malloc                004a88f1 f   LIBCMT:malloc.obj
 0001:000a791d       __heap_alloc               004a891d f   LIBCMT:malloc.obj
 0001:000a796b       __mbsrchr                  004a896b f   LIBCMT:mbsrchr.obj
 0001:000a79dd       __mbsicmp                  004a89dd f   LIBCMT:mbsicmp.obj
 0001:000a7b72       __purecall                 004a8b72 f   LIBCMT:purevirt.obj
 0001:000a7b7b       __beginthreadex            004a8b7b f   LIBCMT:threadex.obj
 0001:000a7c82       __endthreadex              004a8c82 f   LIBCMT:threadex.obj
 0001:000a7cb4       ??1type_info@@UAE@XZ       004a8cb4 f   LIBCMT:typinfo.obj
 0001:000a7cdd       ??_Gtype_info@@UAEPAXI@Z   004a8cdd f i LIBCMT:typinfo.obj
 0001:000a7cdd       ??_Etype_info@@UAEPAXI@Z   004a8cdd f i LIBCMT:typinfo.obj
 0001:000a7cf9       ??8type_info@@QBEHABV0@@Z  004a8cf9 f   LIBCMT:typinfo.obj
 0001:000a7d14       ??9type_info@@QBEHABV0@@Z  004a8d14 f   LIBCMT:typinfo.obj
 0001:000a7d30       ?before@type_info@@QBEHABV1@@Z 004a8d30 f   LIBCMT:typinfo.obj
 0001:000a7d4f       ?raw_name@type_info@@QBEPBDXZ 004a8d4f f   LIBCMT:typinfo.obj
 0001:000a7d53       ??0type_info@@AAE@ABV0@@Z  004a8d53 f   LIBCMT:typinfo.obj
 0001:000a7d5e       ??4type_info@@AAEAAV0@ABV0@@Z 004a8d5e f   LIBCMT:typinfo.obj
 0001:000a7d63       __CxxThrowException@8      004a8d63 f   LIBCMT:throw.obj
 0001:000a7d9d       __msize                    004a8d9d f   LIBCMT:msize.obj
 0001:000a7e00       _strchr                    004a8e00 f   LIBCMT:strchr.obj
 0001:000a7e06       ___from_strstr_to_strchr   004a8e06 f   LIBCMT:strchr.obj
 0001:000a7ebc       _vsprintf                  004a8ebc f   LIBCMT:vsprintf.obj
 0001:000a7f0d       _localtime                 004a8f0d f   LIBCMT:localtim.obj
 0001:000a806d       _time                      004a906d f   LIBCMT:time.obj
 0001:000a8149       _WinMainCRTStartup         004a9149 f   LIBCMT:wincrt0.obj
 0001:000a8251       __amsg_exit                004a9251 f   LIBCMT:wincrt0.obj
 0001:000a829a       _strerror                  004a929a f   LIBCMT:strerror.obj
 0001:000a82ea       _realloc                   004a92ea f   LIBCMT:realloc.obj
 0001:000a8422       _srand                     004a9422 f   LIBCMT:rand.obj
 0001:000a842f       _rand                      004a942f f   LIBCMT:rand.obj
 0001:000a8451       __isctype                  004a9451 f   LIBCMT:isctype.obj
 0001:000a84c6       _fgets                     004a94c6 f   LIBCMT:fgets.obj
 0001:000a8528       _getenv                    004a9528 f   LIBCMT:getenv.obj
 0001:000a8549       __getenv_lk                004a9549 f   LIBCMT:getenv.obj
 0001:000a85c6       _sscanf                    004a95c6 f   LIBCMT:sscanf.obj
 0001:000a85fa       __snprintf                 004a95fa f   LIBCMT:snprintf.obj
 0001:000a864b       _abort                     004a964b f   LIBCMT:abort.obj
 0001:000a8662       _fflush                    004a9662 f   LIBCMT:fflush.obj
 0001:000a8691       __fflush_lk                004a9691 f   LIBCMT:fflush.obj
 0001:000a86bf       __flush                    004a96bf f   LIBCMT:fflush.obj
 0001:000a871b       __flushall                 004a971b f   LIBCMT:fflush.obj
 0001:000a87c8       _fprintf                   004a97c8 f   LIBCMT:fprintf.obj
 0001:000a8804       ___initstdio               004a9804 f   LIBCMT:_file.obj
 0001:000a88ac       ___endstdio                004a98ac f   LIBCMT:_file.obj
 0001:000a88c0       __lock_file                004a98c0 f   LIBCMT:_file.obj
 0001:000a88ef       __lock_file2               004a98ef f   LIBCMT:_file.obj
 0001:000a8912       __unlock_file              004a9912 f   LIBCMT:_file.obj
 0001:000a8941       __unlock_file2             004a9941 f   LIBCMT:_file.obj
 0001:000a8964       __vsnprintf                004a9964 f   LIBCMT:vsnprint.obj
 0001:000a89b4       _vfprintf                  004a99b4 f   LIBCMT:vfprintf.obj
 0001:000a89ef       _qsort                     004a99ef f   LIBCMT:qsort.obj
 0001:000a8bbd       __dosmaperr                004a9bbd f   LIBCMT:dosmap.obj
 0001:000a8c30       __errno                    004a9c30 f   LIBCMT:dosmap.obj
 0001:000a8c39       ___doserrno                004a9c39 f   LIBCMT:dosmap.obj
 0001:000a8c42       _printf                    004a9c42 f   LIBCMT:printf.obj
 0001:000a8c83       __ftime                    004a9c83 f   LIBCMT:ftime.obj
 0001:000a8d68       __Getdays                  004a9d68 f   LIBCMT:strftime.obj
 0001:000a8df7       __Getmonths                004a9df7 f   LIBCMT:strftime.obj
 0001:000a8e8c       __Gettnames                004a9e8c f   LIBCMT:strftime.obj
 0001:000a90be       _strftime                  004aa0be f   LIBCMT:strftime.obj
 0001:000a90d9       __Strftime                 004aa0d9 f   LIBCMT:strftime.obj
 0001:000a9970       _strncmp                   004aa970 f   LIBCMT:strncmp.obj
 0001:000a99a8       __getcwd                   004aa9a8 f   LIBCMT:getcwd.obj
 0001:000a99a8       _getcwd                    004aa9a8 f   LIBCMT:getcwd.obj
 0001:000a99cf       __getdcwd                  004aa9cf f   LIBCMT:getcwd.obj
 0001:000a99f8       __getdcwd_lk               004aa9f8 f   LIBCMT:getcwd.obj
 0001:000a9acd       __validdrive               004aaacd f   LIBCMT:getcwd.obj
 0001:000a9b04       _ctime                     004aab04 f   LIBCMT:ctime.obj
 0001:000a9b20       __aullshr                  004aab20 f   LIBCMT:ullshr.obj
 0001:000a9b40       __allmul                   004aab40 f   LIBCMT:llmul.obj
 0001:000a9b74       _fgetc                     004aab74 f   LIBCMT:fgetc.obj
 0001:000a9ba5       _getc                      004aaba5 f   LIBCMT:fgetc.obj
 0001:000a9bb0       _strrchr                   004aabb0 f   LIBCMT:strrchr.obj
 0001:000a9bd7       ??0exception@@QAE@XZ       004aabd7 f   LIBCMT:stdexcpt.obj
 0001:000a9be8       ??_Gexception@@UAEPAXI@Z   004aabe8 f i LIBCMT:stdexcpt.obj
 0001:000a9be8       ??_Eexception@@UAEPAXI@Z   004aabe8 f i LIBCMT:stdexcpt.obj
 0001:000a9c04       ??0exception@@QAE@ABQBD@Z  004aac04 f   LIBCMT:stdexcpt.obj
 0001:000a9c41       ??0exception@@QAE@ABV0@@Z  004aac41 f   LIBCMT:stdexcpt.obj
 0001:000a9c8b       ??4exception@@QAEAAV0@ABV0@@Z 004aac8b f   LIBCMT:stdexcpt.obj
 0001:000a9caa       ??1exception@@UAE@XZ       004aacaa f   LIBCMT:stdexcpt.obj
 0001:000a9cc0       ?what@exception@@UBEPBDXZ  004aacc0 f   LIBCMT:stdexcpt.obj
 0001:000a9cd0       _strlen                    004aacd0 f   LIBCMT:strlen.obj
 0001:000a9d4c       __EH_prolog                004aad4c f   LIBCMT:ehprolog.obj
 0001:000a9d70       _memcpy                    004aad70 f   LIBCMT:memcpy.obj
 0001:000aa0a5       ___InternalCxxFrameHandler 004ab0a5 f   LIBCMT:frame.obj
 0001:000aa3fa       ___FrameUnwindToState      004ab3fa f   LIBCMT:frame.obj
 0001:000aa832       ?_DestructExceptionObject@@YAXPAUEHExceptionRecord@@E@Z 004ab832 f   LIBCMT:frame.obj
 0001:000aa8c0       __CallSettingFrame@12      004ab8c0 f   LIBCMT:lowhelpr.obj
 0001:000aa8e7       __NLG_Return               004ab8e7 f   LIBCMT:lowhelpr.obj
 0001:000aa90c       __mtinit                   004ab90c f   LIBCMT:tidtable.obj
 0001:000aa960       __mtterm                   004ab960 f   LIBCMT:tidtable.obj
 0001:000aa97e       __initptd                  004ab97e f   LIBCMT:tidtable.obj
 0001:000aa991       __getptd                   004ab991 f   LIBCMT:tidtable.obj
 0001:000aa9f8       __freeptd                  004ab9f8 f   LIBCMT:tidtable.obj
 0001:000aaa98       ___threadid                004aba98 f   LIBCMT:tidtable.obj
 0001:000aaa9e       ___threadhandle            004aba9e f   LIBCMT:tidtable.obj
 0001:000aaaa4       ?terminate@@YAXXZ          004abaa4 f   LIBCMT:hooks.obj
 0001:000aab05       ?unexpected@@YAXXZ         004abb05 f   LIBCMT:hooks.obj
 0001:000aab1d       ?_inconsistency@@YAXXZ     004abb1d f   LIBCMT:hooks.obj
 0001:000aab73       __mtinitlocks              004abb73 f   LIBCMT:mlock.obj
 0001:000aab9c       __mtdeletelocks            004abb9c f   LIBCMT:mlock.obj
 0001:000aac08       __lock                     004abc08 f   LIBCMT:mlock.obj
 0001:000aac69       __unlock                   004abc69 f   LIBCMT:mlock.obj
 0001:000aac7e       __lockerr_exit             004abc7e f   LIBCMT:mlock.obj
 0001:000aac96       __setmbcp                  004abc96 f   LIBCMT:mbctype.obj
 0001:000ab06e       __getmbcp                  004ac06e f   LIBCMT:mbctype.obj
 0001:000ab07e       ___initmbctable            004ac07e f   LIBCMT:mbctype.obj
 0001:000ab0a0       _strcmp                    004ac0a0 f   LIBCMT:strcmp.obj
 0001:000ab130       __aulldiv                  004ac130 f   LIBCMT:ulldiv.obj
 0001:000ab1a0       __aullrem                  004ac1a0 f   LIBCMT:ullrem.obj
 0001:000ab215       __cinit                    004ac215 f   LIBCMT:crt0dat.obj
 0001:000ab242       _exit                      004ac242 f   LIBCMT:crt0dat.obj
 0001:000ab253       __exit                     004ac253 f   LIBCMT:crt0dat.obj
 0001:000ab264       __cexit                    004ac264 f   LIBCMT:crt0dat.obj
 0001:000ab273       __c_exit                   004ac273 f   LIBCMT:crt0dat.obj
 0001:000ab327       __lockexit                 004ac327 f   LIBCMT:crt0dat.obj
 0001:000ab330       __unlockexit               004ac330 f   LIBCMT:crt0dat.obj
 0001:000ab353       __flsbuf                   004ac353 f   LIBCMT:_flsbuf.obj
 0001:000ab46b       __output                   004ac46b f   LIBCMT:output.obj
 0001:000abc75       __openfile                 004acc75 f   LIBCMT:_open.obj
 0001:000abde5       __getstream                004acde5 f   LIBCMT:stream.obj
 0001:000abeb0       _strcpy                    004aceb0 f   LIBCMT:strcat.obj
 0001:000abec0       _strcat                    004acec0 f   LIBCMT:strcat.obj
 0001:000abfa0       ___loctotime_t             004acfa0 f   LIBCMT:dtoxtime.obj
 0001:000ac062       _close                     004ad062 f   LIBCMT:close.obj
 0001:000ac062       __close                    004ad062 f   LIBCMT:close.obj
 0001:000ac0bf       __close_lk                 004ad0bf f   LIBCMT:close.obj
 0001:000ac142       __freebuf                  004ad142 f   LIBCMT:_freebuf.obj
 0001:000ac16d       __lseek                    004ad16d f   LIBCMT:lseek.obj
 0001:000ac1d2       __lseek_lk                 004ad1d2 f   LIBCMT:lseek.obj
 0001:000ac245       __write                    004ad245 f   LIBCMT:write.obj
 0001:000ac2aa       __write_lk                 004ad2aa f   LIBCMT:write.obj
 0001:000ac435       __ioinit                   004ad435 f   LIBCMT:ioinit.obj
 0001:000ac5f1       __ioterm                   004ad5f1 f   LIBCMT:ioinit.obj
 0001:000ac645       __filbuf                   004ad645 f   LIBCMT:_filbuf.obj
 0001:000ac721       __read                     004ad721 f   LIBCMT:read.obj
 0001:000ac786       __read_lk                  004ad786 f   LIBCMT:read.obj
 0001:000ac95f       __setdefaultprecision      004ad95f f   LIBCMT:fp8.obj
 0001:000ac971       __ms_p5_test_fdiv          004ad971 f   LIBCMT:testfdiv.obj
 0001:000ac9af       __ms_p5_mp_test_fdiv       004ad9af f   LIBCMT:testfdiv.obj
 0001:000ac9d8       __forcdecpt                004ad9d8 f   LIBCMT:cvt.obj
 0001:000aca32       __cropzeros                004ada32 f   LIBCMT:cvt.obj
 0001:000aca80       __positive                 004ada80 f   LIBCMT:cvt.obj
 0001:000aca98       __fassign                  004ada98 f   LIBCMT:cvt.obj
 0001:000acad6       __cftoe                    004adad6 f   LIBCMT:cvt.obj
 0001:000acbf9       __cftof                    004adbf9 f   LIBCMT:cvt.obj
 0001:000accf5       __cftog                    004adcf5 f   LIBCMT:cvt.obj
 0001:000acd88       __cfltcvt                  004add88 f   LIBCMT:cvt.obj
 0001:000acdfe       __heap_init                004addfe f   LIBCMT:heapinit.obj
 0001:000ace3a       __heap_term                004ade3a f   LIBCMT:heapinit.obj
 0001:000aceaf       __get_sbh_threshold        004adeaf f   LIBCMT:sbheap.obj
 0001:000aceb5       __set_sbh_threshold        004adeb5 f   LIBCMT:sbheap.obj
 0001:000acecc       ___sbh_heap_init           004adecc f   LIBCMT:sbheap.obj
 0001:000acf0a       ___sbh_find_block          004adf0a f   LIBCMT:sbheap.obj
 0001:000acf35       ___sbh_free_block          004adf35 f   LIBCMT:sbheap.obj
 0001:000ad260       ___sbh_alloc_block         004ae260 f   LIBCMT:sbheap.obj
 0001:000ad569       ___sbh_alloc_new_region    004ae569 f   LIBCMT:sbheap.obj
 0001:000ad61a       ___sbh_alloc_new_group     004ae61a f   LIBCMT:sbheap.obj
 0001:000ad715       ___sbh_resize_block        004ae715 f   LIBCMT:sbheap.obj
 0001:000ada0b       ___sbh_heapmin             004aea0b f   LIBCMT:sbheap.obj
 0001:000adadc       ___sbh_heap_check          004aeadc f   LIBCMT:sbheap.obj
 0001:000ade0b       ?_set_new_handler@@YAP6AHI@ZP6AHI@Z@Z 004aee0b f   LIBCMT:handler.obj
 0001:000ade2f       ?_query_new_handler@@YAP6AHI@ZXZ 004aee2f f   LIBCMT:handler.obj
 0001:000ade35       __callnewh                 004aee35 f   LIBCMT:handler.obj
 0001:000ade50       ___crtLCMapStringA         004aee50 f   LIBCMT:a_map.obj
 0001:000ae0a0       __strcmpi                  004af0a0 f   LIBCMT:stricmp.obj
 0001:000ae0a0       __stricmp                  004af0a0 f   LIBCMT:stricmp.obj
 0001:000ae170       _calloc                    004af170 f   LIBCMT:calloc.obj
 0001:000ae1fd       __XcptFilter               004af1fd f   LIBCMT:winxfltr.obj
 0001:000ae380       __except_handler3          004af380 f   LIBCMT:exsup3.obj
 0001:000ae43d       __seh_longjmp_unwind@4     004af43d f   LIBCMT:exsup3.obj
 0001:000ae458       ?__CxxUnhandledExceptionFilter@@YGJPAU_EXCEPTION_POINTERS@@@Z 004af458 f   LIBCMT:unhandld.obj
 0001:000ae49e       ?__CxxSetUnhandledExceptionFilter@@YAXXZ 004af49e f   LIBCMT:unhandld.obj
 0001:000ae4af       ?__CxxRestoreUnhandledExceptionFilter@@YAXXZ 004af4af f   LIBCMT:unhandld.obj
 0001:000ae4bc       ___tzset                   004af4bc f   LIBCMT:tzset.obj
 0001:000ae4ea       __tzset                    004af4ea f   LIBCMT:tzset.obj
 0001:000ae787       __isindst                  004af787 f   LIBCMT:tzset.obj
 0001:000aea94       _gmtime                    004afa94 f   LIBCMT:gmtime.obj
 0001:000aeb9e       __wincmdln                 004afb9e f   LIBCMT:wincmdln.obj
 0001:000aebf6       __setenvp                  004afbf6 f   LIBCMT:stdenvp.obj
 0001:000aecaf       __setargv                  004afcaf f   LIBCMT:stdargv.obj
 0001:000aeefc       ___crtGetEnvironmentStringsA 004afefc f   LIBCMT:a_env.obj
 0001:000af02e       __FF_MSGBANNER             004b002e f   LIBCMT:crt0msg.obj
 0001:000af067       __NMSG_WRITE               004b0067 f   LIBCMT:crt0msg.obj
 0001:000af1ba       __GET_RTERRMSG             004b01ba f   LIBCMT:crt0msg.obj
 0001:000af1eb       ___crtGetStringTypeA       004b01eb f   LIBCMT:a_str.obj
 0001:000af334       __mbsnbicoll               004b0334 f   LIBCMT:mbsnbico.obj
 0001:000af373       ___wtomb_environ           004b0373 f   LIBCMT:wtombenv.obj
 0001:000af3e1       __input                    004b03e1 f   LIBCMT:input.obj
 0001:000afe92       _signal                    004b0e92 f   LIBCMT:winsig.obj
 0001:000b0076       _raise                     004b1076 f   LIBCMT:winsig.obj
 0001:000b0235       ___fpecode                 004b1235 f   LIBCMT:winsig.obj
 0001:000b023e       ___pxcptinfoptrs           004b123e f   LIBCMT:winsig.obj
 0001:000b0247       __commit                   004b1247 f   LIBCMT:commit.obj
 0001:000b02da       __stbuf                    004b12da f   LIBCMT:_sftbuf.obj
 0001:000b0367       __ftbuf                    004b1367 f   LIBCMT:_sftbuf.obj
 0001:000b0391       __fcloseall                004b1391 f   LIBCMT:closeall.obj
 0001:000b0412       _setlocale                 004b1412 f   LIBCMT:setlocal.obj
 0001:000b082c       __expandlocale             004b182c f   LIBCMT:setlocal.obj
 0001:000b0944       ___init_dummy              004b1944 f   LIBCMT:setlocal.obj
 0001:000b0947       __strcats                  004b1947 f   LIBCMT:setlocal.obj
 0001:000b096c       ___lc_strtolc              004b196c f   LIBCMT:setlocal.obj
 0001:000b0a38       ___lc_lctostr              004b1a38 f   LIBCMT:setlocal.obj
 0001:000b0a8b       _asctime                   004b1a8b f   LIBCMT:asctime.obj
 0001:000b0b7d       ?_ValidateRead@@YAHPBXI@Z  004b1b7d f   LIBCMT:validate.obj
 0001:000b0b99       ?_ValidateWrite@@YAHPAXI@Z 004b1b99 f   LIBCMT:validate.obj
 0001:000b0bb5       ?_ValidateExecute@@YAHP6GHXZ@Z 004b1bb5 f   LIBCMT:validate.obj
 0001:000b0bcd       __getbuf                   004b1bcd f   LIBCMT:_getbuf.obj
 0001:000b0c11       __isatty                   004b1c11 f   LIBCMT:isatty.obj
 0001:000b0c3a       _wctomb                    004b1c3a f   LIBCMT:wctomb.obj
 0001:000b0c93       __wctomb_lk                004b1c93 f   LIBCMT:wctomb.obj
 0001:000b0cfc       _open                      004b1cfc f   LIBCMT:open.obj
 0001:000b0cfc       __open                     004b1cfc f   LIBCMT:open.obj
 0001:000b0d13       __sopen                    004b1d13 f   LIBCMT:open.obj
 0001:000b0fe2       __alloc_osfhnd             004b1fe2 f   LIBCMT:osfinfo.obj
 0001:000b1105       __set_osfhnd               004b2105 f   LIBCMT:osfinfo.obj
 0001:000b1181       __free_osfhnd              004b2181 f   LIBCMT:osfinfo.obj
 0001:000b1200       __get_osfhandle            004b2200 f   LIBCMT:osfinfo.obj
 0001:000b1242       __open_osfhandle           004b2242 f   LIBCMT:osfinfo.obj
 0001:000b12e9       __lock_fhandle             004b22e9 f   LIBCMT:osfinfo.obj
 0001:000b1348       __unlock_fhandle           004b2348 f   LIBCMT:osfinfo.obj
 0001:000b136a       __statusfp                 004b236a f   LIBCMT:ieee87.obj
 0001:000b137d       __clearfp                  004b237d f   LIBCMT:ieee87.obj
 0001:000b1391       __control87                004b2391 f   LIBCMT:ieee87.obj
 0001:000b13c6       __controlfp                004b23c6 f   LIBCMT:ieee87.obj
 0001:000b13dc       __fpreset                  004b23dc f   LIBCMT:ieee87.obj
 0001:000b1557       __tolower                  004b2557 f   LIBCMT:tolower.obj
 0001:000b155f       _tolower                   004b255f f   LIBCMT:tolower.obj
 0001:000b15ce       __tolower_lk               004b25ce f   LIBCMT:tolower.obj
 0001:000b1699       __ZeroTail                 004b2699 f   LIBCMT:intrncvt.obj
 0001:000b16e2       __IncMan                   004b26e2 f   LIBCMT:intrncvt.obj
 0001:000b1738       __RoundMan                 004b2738 f   LIBCMT:intrncvt.obj
 0001:000b17c4       __CopyMan                  004b27c4 f   LIBCMT:intrncvt.obj
 0001:000b17df       __FillZeroMan              004b27df f   LIBCMT:intrncvt.obj
 0001:000b17eb       __IsZeroMan                004b27eb f   LIBCMT:intrncvt.obj
 0001:000b1806       __ShrMan                   004b2806 f   LIBCMT:intrncvt.obj
 0001:000b1893       __ld12cvt                  004b2893 f   LIBCMT:intrncvt.obj
 0001:000b19ff       __ld12tod                  004b29ff f   LIBCMT:intrncvt.obj
 0001:000b1a15       __ld12tof                  004b2a15 f   LIBCMT:intrncvt.obj
 0001:000b1a2b       __ld12told                 004b2a2b f   LIBCMT:intrncvt.obj
 0001:000b1aa5       __atodbl                   004b2aa5 f   LIBCMT:intrncvt.obj
 0001:000b1ad2       __atoldbl                  004b2ad2 f   LIBCMT:intrncvt.obj
 0001:000b1b00       __atoflt                   004b2b00 f   LIBCMT:intrncvt.obj
 0001:000b1b2d       __fptostr                  004b2b2d f   LIBCMT:_fptostr.obj
 0001:000b1ba4       __fltout2                  004b2ba4 f   LIBCMT:cfout.obj
 0001:000b1c00       ___dtold                   004b2c00 f   LIBCMT:cfout.obj
 0001:000b1cc0       _memset                    004b2cc0 f   LIBCMT:memset.obj
 0001:000b1d18       __fptrap                   004b2d18 f   LIBCMT:crt0fp.obj
 0001:000b1d21       __ismbbkalnum              004b2d21 f   LIBCMT:ismbbyte.obj
 0001:000b1d32       __ismbbkprint              004b2d32 f   LIBCMT:ismbbyte.obj
 0001:000b1d43       __ismbbkpunct              004b2d43 f   LIBCMT:ismbbyte.obj
 0001:000b1d54       __ismbbalnum               004b2d54 f   LIBCMT:ismbbyte.obj
 0001:000b1d68       __ismbbalpha               004b2d68 f   LIBCMT:ismbbyte.obj
 0001:000b1d7c       __ismbbgraph               004b2d7c f   LIBCMT:ismbbyte.obj
 0001:000b1d90       __ismbbprint               004b2d90 f   LIBCMT:ismbbyte.obj
 0001:000b1da4       __ismbbpunct               004b2da4 f   LIBCMT:ismbbyte.obj
 0001:000b1db5       __ismbblead                004b2db5 f   LIBCMT:ismbbyte.obj
 0001:000b1dc6       __ismbbtrail               004b2dc6 f   LIBCMT:ismbbyte.obj
 0001:000b1dd7       __ismbbkana                004b2dd7 f   LIBCMT:ismbbyte.obj
 0001:000b1e2f       ___crtMessageBoxA          004b2e2f f   LIBCMT:crtmbox.obj
 0001:000b1eb8       ___crtCompareStringA       004b2eb8 f   LIBCMT:a_cmp.obj
 0001:000b2160       ___crtsetenv               004b3160 f   LIBCMT:setenv.obj
 0001:000b23a6       _mbtowc                    004b33a6 f   LIBCMT:mbtowc.obj
 0001:000b2403       __mbtowc_lk                004b3403 f   LIBCMT:mbtowc.obj
 0001:000b24cc       _isalpha                   004b34cc f   LIBCMT:_ctype.obj
 0001:000b24fa       _isupper                   004b34fa f   LIBCMT:_ctype.obj
 0001:000b2522       _islower                   004b3522 f   LIBCMT:_ctype.obj
 0001:000b254a       _isdigit                   004b354a f   LIBCMT:_ctype.obj
 0001:000b2572       _isxdigit                  004b3572 f   LIBCMT:_ctype.obj
 0001:000b259f       _isspace                   004b359f f   LIBCMT:_ctype.obj
 0001:000b25c7       _ispunct                   004b35c7 f   LIBCMT:_ctype.obj
 0001:000b25ef       _isalnum                   004b35ef f   LIBCMT:_ctype.obj
 0001:000b261d       _isprint                   004b361d f   LIBCMT:_ctype.obj
 0001:000b264b       _isgraph                   004b364b f   LIBCMT:_ctype.obj
 0001:000b2679       _iscntrl                   004b3679 f   LIBCMT:_ctype.obj
 0001:000b26a1       ___isascii                 004b36a1 f   LIBCMT:_ctype.obj
 0001:000b26ae       ___toascii                 004b36ae f   LIBCMT:_ctype.obj
 0001:000b26b6       ___iscsymf                 004b36b6 f   LIBCMT:_ctype.obj
 0001:000b26f3       ___iscsym                  004b36f3 f   LIBCMT:_ctype.obj
 0001:000b2730       __allshl                   004b3730 f   LIBCMT:llshl.obj
 0001:000b274f       _ungetc                    004b374f f   LIBCMT:ungetc.obj
 0001:000b2778       __ungetc_lk                004b3778 f   LIBCMT:ungetc.obj
 0001:000b27e6       ___init_time               004b37e6 f   LIBCMT:inittime.obj
 0001:000b2d55       ___init_numeric            004b3d55 f   LIBCMT:initnum.obj
 0001:000b2f61       ___init_monetary           004b3f61 f   LIBCMT:initmon.obj
 0001:000b31d3       ___init_ctype              004b41d3 f   LIBCMT:initctyp.obj
 0001:000b3418       ___init_collate            004b4418 f   LIBCMT:initcoll.obj
 0001:000b3420       _strcspn                   004b4420 f   LIBCMT:strcspn.obj
 0001:000b3460       _strpbrk                   004b4460 f   LIBCMT:strpbrk.obj
 0001:000b349a       ___get_qualified_locale    004b449a f   LIBCMT:getqloc.obj
 0001:000b3d41       __chsize                   004b4d41 f   LIBCMT:chsize.obj
 0001:000b3d9a       __chsize_lk                004b4d9a f   LIBCMT:chsize.obj
 0001:000b3ebf       ___addl                    004b4ebf f   LIBCMT:mantold.obj
 0001:000b3ee0       ___add_12                  004b4ee0 f   LIBCMT:mantold.obj
 0001:000b3f3e       ___shl_12                  004b4f3e f   LIBCMT:mantold.obj
 0001:000b3f6c       ___shr_12                  004b4f6c f   LIBCMT:mantold.obj
 0001:000b3f99       ___mtold12                 004b4f99 f   LIBCMT:mantold.obj
 0001:000b4060       ___strgtold12              004b5060 f   LIBCMT:strgtold.obj
 0001:000b4531       ___STRINGTOLD              004b5531 f   LIBCMT:strgtold.obj
 0001:000b456d       _$I10_OUTPUT               004b556d f   LIBCMT:x10fout.obj
 0001:000b4800       __mbschr                   004b5800 f   LIBCMT:mbschr.obj
 0001:000b4897       __strdup                   004b5897 f   LIBCMT:strdup.obj
 0001:000b48c2       ___getlocaleinfo           004b58c2 f   LIBCMT:inithelp.obj
 0001:000b49fa       _localeconv                004b59fa f   LIBCMT:lconv.obj
 0001:000b4a00       ___crtGetStringTypeW       004b5a00 f   LIBCMT:w_str.obj
 0001:000b4bd0       __strnicmp                 004b5bd0 f   LIBCMT:strnicmp.obj
 0001:000b4cd1       __setmode                  004b5cd1 f   LIBCMT:setmode.obj
 0001:000b4d2a       __setmode_lk               004b5d2a f   LIBCMT:setmode.obj
 0001:000b4d8b       ___ld12mul                 004b5d8b f   LIBCMT:tenpow.obj
 0001:000b4fab       ___multtenpow12            004b5fab f   LIBCMT:tenpow.obj
 0001:000b5027       ___crtGetLocaleInfoW       004b6027 f   LIBCMT:w_loc.obj
 0001:000b513a       ___crtGetLocaleInfoA       004b613a f   LIBCMT:a_loc.obj
 0001:000b5260       _GetLastError@0            004b6260 f   kernel32:KERNEL32.dll
 0001:000b5266       _InterlockedDecrement@4    004b6266 f   kernel32:KERNEL32.dll
 0001:000b526c       _InterlockedIncrement@4    004b626c f   kernel32:KERNEL32.dll
 0001:000b5272       _InterlockedExchange@8     004b6272 f   kernel32:KERNEL32.dll
 0001:000b5278       _PulseEvent@4              004b6278 f   kernel32:KERNEL32.dll
 0001:000b527e       _GetTempPathA@8            004b627e f   kernel32:KERNEL32.dll
 0001:000b5284       _GetFileInformationByHandle@8 004b6284 f   kernel32:KERNEL32.dll
 0001:000b528a       _FlushFileBuffers@4        004b628a f   kernel32:KERNEL32.dll
 0001:000b5290       _SetEndOfFile@4            004b6290 f   kernel32:KERNEL32.dll
 0001:000b5296       _SetFilePointer@16         004b6296 f   kernel32:KERNEL32.dll
 0001:000b529c       _GetDiskFreeSpaceA@20      004b629c f   kernel32:KERNEL32.dll
 0001:000b52a2       _ReadFile@20               004b62a2 f   kernel32:KERNEL32.dll
 0001:000b52a8       _GetSystemInfo@4           004b62a8 f   kernel32:KERNEL32.dll
 0001:000b52ae       _DeleteFileA@4             004b62ae f   kernel32:KERNEL32.dll
 0001:000b52b4       _MoveFileExA@12            004b62b4 f   kernel32:KERNEL32.dll
 0001:000b52ba       _MoveFileA@8               004b62ba f   kernel32:KERNEL32.dll
 0001:000b52c0       _UnmapViewOfFile@4         004b62c0 f   kernel32:KERNEL32.dll
 0001:000b52c6       _MapViewOfFile@20          004b62c6 f   kernel32:KERNEL32.dll
 0001:000b52cc       _CreateFileMappingA@24     004b62cc f   kernel32:KERNEL32.dll
 0001:000b52d2       _OpenFileMappingA@12       004b62d2 f   kernel32:KERNEL32.dll
 0001:000b52d8       _GetSystemTime@4           004b62d8 f   kernel32:KERNEL32.dll
 0001:000b52de       _GetVersion@0              004b62de f   kernel32:KERNEL32.dll
 0001:000b52e4       _RtlUnwind@16              004b62e4 f   kernel32:KERNEL32.dll
 0001:000b52ea       _FindFirstFileA@8          004b62ea f   kernel32:KERNEL32.dll
 0001:000b52f0       _FindNextFileA@8           004b62f0 f   kernel32:KERNEL32.dll
 0001:000b52f6       _FindClose@4               004b62f6 f   kernel32:KERNEL32.dll
 0001:000b52fc       _FileTimeToSystemTime@8    004b62fc f   kernel32:KERNEL32.dll
 0001:000b5302       _FileTimeToLocalFileTime@8 004b6302 f   kernel32:KERNEL32.dll
 0001:000b5308       _HeapFree@12               004b6308 f   kernel32:KERNEL32.dll
 0001:000b530e       _HeapAlloc@12              004b630e f   kernel32:KERNEL32.dll
 0001:000b5314       _CreateThread@24           004b6314 f   kernel32:KERNEL32.dll
 0001:000b531a       _GetCurrentThreadId@0      004b631a f   kernel32:KERNEL32.dll
 0001:000b5320       _TlsSetValue@8             004b6320 f   kernel32:KERNEL32.dll
 0001:000b5326       _ExitThread@4              004b6326 f   kernel32:KERNEL32.dll
 0001:000b532c       _RaiseException@16         004b632c f   kernel32:KERNEL32.dll
 0001:000b5332       _HeapSize@12               004b6332 f   kernel32:KERNEL32.dll
 0001:000b5338       _GetTimeZoneInformation@4  004b6338 f   kernel32:KERNEL32.dll
 0001:000b533e       _GetModuleHandleA@4        004b633e f   kernel32:KERNEL32.dll
 0001:000b5344       _GetStartupInfoA@4         004b6344 f   kernel32:KERNEL32.dll
 0001:000b534a       _GetCommandLineA@0         004b634a f   kernel32:KERNEL32.dll
 0001:000b5350       _ExitProcess@4             004b6350 f   kernel32:KERNEL32.dll
 0001:000b5356       _HeapReAlloc@16            004b6356 f   kernel32:KERNEL32.dll
 0001:000b535c       _GetSystemTimeAsFileTime@4 004b635c f   kernel32:KERNEL32.dll
 0001:000b5362       _GetCurrentDirectoryA@8    004b6362 f   kernel32:KERNEL32.dll
 0001:000b5368       _GetFullPathNameA@16       004b6368 f   kernel32:KERNEL32.dll
 0001:000b536e       _GetDriveTypeA@4           004b636e f   kernel32:KERNEL32.dll
 0001:000b5374       _TlsAlloc@0                004b6374 f   kernel32:KERNEL32.dll
 0001:000b537a       _TlsFree@4                 004b637a f   kernel32:KERNEL32.dll
 0001:000b5380       _SetLastError@4            004b6380 f   kernel32:KERNEL32.dll
 0001:000b5386       _TlsGetValue@4             004b6386 f   kernel32:KERNEL32.dll
 0001:000b538c       _GetCurrentThread@0        004b638c f   kernel32:KERNEL32.dll
 0001:000b5392       _FatalAppExitA@8           004b6392 f   kernel32:KERNEL32.dll
 0001:000b5398       _GetCPInfo@8               004b6398 f   kernel32:KERNEL32.dll
 0001:000b539e       _GetACP@0                  004b639e f   kernel32:KERNEL32.dll
 0001:000b53a4       _GetOEMCP@0                004b63a4 f   kernel32:KERNEL32.dll
 0001:000b53aa       _TerminateProcess@8        004b63aa f   kernel32:KERNEL32.dll
 0001:000b53b0       _GetCurrentProcess@0       004b63b0 f   kernel32:KERNEL32.dll
 0001:000b53b6       _SetHandleCount@4          004b63b6 f   kernel32:KERNEL32.dll
 0001:000b53bc       _GetStdHandle@4            004b63bc f   kernel32:KERNEL32.dll
 0001:000b53c2       _GetFileType@4             004b63c2 f   kernel32:KERNEL32.dll
 0001:000b53c8       _HeapDestroy@4             004b63c8 f   kernel32:KERNEL32.dll
 0001:000b53ce       _HeapCreate@12             004b63ce f   kernel32:KERNEL32.dll
 0001:000b53d4       _VirtualFree@12            004b63d4 f   kernel32:KERNEL32.dll
 0001:000b53da       _VirtualAlloc@16           004b63da f   kernel32:KERNEL32.dll
 0001:000b53e0       _IsBadWritePtr@8           004b63e0 f   kernel32:KERNEL32.dll
 0001:000b53e6       _WideCharToMultiByte@32    004b63e6 f   kernel32:KERNEL32.dll
 0001:000b53ec       _MultiByteToWideChar@24    004b63ec f   kernel32:KERNEL32.dll
 0001:000b53f2       _LCMapStringA@24           004b63f2 f   kernel32:KERNEL32.dll
 0001:000b53f8       _LCMapStringW@24           004b63f8 f   kernel32:KERNEL32.dll
 0001:000b53fe       _UnhandledExceptionFilter@4 004b63fe f   kernel32:KERNEL32.dll
 0001:000b5404       _SetUnhandledExceptionFilter@4 004b6404 f   kernel32:KERNEL32.dll
 0001:000b540a       _FreeEnvironmentStringsA@4 004b640a f   kernel32:KERNEL32.dll
 0001:000b5410       _FreeEnvironmentStringsW@4 004b6410 f   kernel32:KERNEL32.dll
 0001:000b5416       _GetEnvironmentStrings@0   004b6416 f   kernel32:KERNEL32.dll
 0001:000b541c       _GetEnvironmentStringsW@0  004b641c f   kernel32:KERNEL32.dll
 0001:000b5422       _GetStringTypeA@20         004b6422 f   kernel32:KERNEL32.dll
 0001:000b5428       _GetStringTypeW@16         004b6428 f   kernel32:KERNEL32.dll
 0001:000b542e       _SetConsoleCtrlHandler@8   004b642e f   kernel32:KERNEL32.dll
 0001:000b5434       _IsBadReadPtr@8            004b6434 f   kernel32:KERNEL32.dll
 0001:000b543a       _IsBadCodePtr@4            004b643a f   kernel32:KERNEL32.dll
 0001:000b5440       _SetStdHandle@8            004b6440 f   kernel32:KERNEL32.dll
 0001:000b5446       _CompareStringA@24         004b6446 f   kernel32:KERNEL32.dll
 0001:000b544c       _CompareStringW@24         004b644c f   kernel32:KERNEL32.dll
 0001:000b5452       _SetEnvironmentVariableA@8 004b6452 f   kernel32:KERNEL32.dll
 0001:000b5458       _IsValidLocale@8           004b6458 f   kernel32:KERNEL32.dll
 0001:000b545e       _IsValidCodePage@4         004b645e f   kernel32:KERNEL32.dll
 0001:000b5464       _GetLocaleInfoA@16         004b6464 f   kernel32:KERNEL32.dll
 0001:000b546a       _EnumSystemLocalesA@8      004b646a f   kernel32:KERNEL32.dll
 0001:000b5470       _GetUserDefaultLCID@0      004b6470 f   kernel32:KERNEL32.dll
 0001:000b5476       _GetVersionExA@4           004b6476 f   kernel32:KERNEL32.dll
 0001:000b547c       _GetLocaleInfoW@16         004b647c f   kernel32:KERNEL32.dll
 0001:000b5482       __mkdir                    004b6482 f   LIBCMT:mkdir.obj
 0001:000b5482       _mkdir                     004b6482 f   LIBCMT:mkdir.obj
 0001:000b54ae       __getpid                   004b64ae f   LIBCMT:getpid.obj
 0001:000b54ae       _getpid                    004b64ae f   LIBCMT:getpid.obj
 0001:000b54b4       _remove                    004b64b4 f   LIBCMT:unlink.obj
 0001:000b54de       __unlink                   004b64de f   LIBCMT:unlink.obj
 0001:000b54de       _unlink                    004b64de f   LIBCMT:unlink.obj
 0001:000b54ea       _GetCurrentProcessId@0     004b64ea f   kernel32:KERNEL32.dll
 0002:00000000       __imp_?LoadBuffer@KLuaScript@@QAEHPAEK@Z 004ba000     engine:Engine.dll
 0002:00000004       __imp_?ExecuteCode@KLuaScript@@QAEHXZ 004ba004     engine:Engine.dll
 0002:00000008       __imp_?Init@KLuaScript@@UAEHXZ 004ba008     engine:Engine.dll
 0002:0000000c       __imp_?RegisterFunctions@KLuaScript@@QAEHQAUTLua_Funcs@@H@Z 004ba00c     engine:Engine.dll
 0002:00000010       __imp_??1KLuaScript@@UAE@XZ 004ba010     engine:Engine.dll
 0002:00000014       __imp_??0KLuaScript@@QAE@XZ 004ba014     engine:Engine.dll
 0002:00000018       __imp_?KSG_StringToMD5String@@YAHQADQBD@Z 004ba018     engine:Engine.dll
 0002:0000001c       \177Engine_NULL_THUNK_DATA 004ba01c     engine:Engine.dll
 0002:00000020       __imp__LoadLibraryA@4      004ba020     kernel32:KERNEL32.dll
 0002:00000024       __imp__Sleep@4             004ba024     kernel32:KERNEL32.dll
 0002:00000028       __imp__CreateEventA@16     004ba028     kernel32:KERNEL32.dll
 0002:0000002c       __imp__CloseHandle@4       004ba02c     kernel32:KERNEL32.dll
 0002:00000030       __imp__TerminateThread@8   004ba030     kernel32:KERNEL32.dll
 0002:00000034       __imp__WaitForSingleObject@8 004ba034     kernel32:KERNEL32.dll
 0002:00000038       __imp__SetEvent@4          004ba038     kernel32:KERNEL32.dll
 0002:0000003c       __imp__InitializeCriticalSection@4 004ba03c     kernel32:KERNEL32.dll
 0002:00000040       __imp__DeleteCriticalSection@4 004ba040     kernel32:KERNEL32.dll
 0002:00000044       __imp__EnterCriticalSection@4 004ba044     kernel32:KERNEL32.dll
 0002:00000048       __imp__LeaveCriticalSection@4 004ba048     kernel32:KERNEL32.dll
 0002:0000004c       __imp__ResetEvent@4        004ba04c     kernel32:KERNEL32.dll
 0002:00000050       __imp__GetFileAttributesA@4 004ba050     kernel32:KERNEL32.dll
 0002:00000054       __imp__WriteFile@20        004ba054     kernel32:KERNEL32.dll
 0002:00000058       __imp__GetLocalTime@4      004ba058     kernel32:KERNEL32.dll
 0002:0000005c       __imp__GetFileSize@8       004ba05c     kernel32:KERNEL32.dll
 0002:00000060       __imp__CreateDirectoryA@8  004ba060     kernel32:KERNEL32.dll
 0002:00000064       __imp__CreateFileA@28      004ba064     kernel32:KERNEL32.dll
 0002:00000068       __imp__GetLocaleInfoW@16   004ba068     kernel32:KERNEL32.dll
 0002:0000006c       __imp__GetVersionExA@4     004ba06c     kernel32:KERNEL32.dll
 0002:00000070       __imp__GetUserDefaultLCID@0 004ba070     kernel32:KERNEL32.dll
 0002:00000074       __imp__EnumSystemLocalesA@8 004ba074     kernel32:KERNEL32.dll
 0002:00000078       __imp__GetLocaleInfoA@16   004ba078     kernel32:KERNEL32.dll
 0002:0000007c       __imp__IsValidCodePage@4   004ba07c     kernel32:KERNEL32.dll
 0002:00000080       __imp__IsValidLocale@8     004ba080     kernel32:KERNEL32.dll
 0002:00000084       __imp__SetEnvironmentVariableA@8 004ba084     kernel32:KERNEL32.dll
 0002:00000088       __imp__GetProcAddress@8    004ba088     kernel32:KERNEL32.dll
 0002:0000008c       __imp__CompareStringA@24   004ba08c     kernel32:KERNEL32.dll
 0002:00000090       __imp__SetStdHandle@8      004ba090     kernel32:KERNEL32.dll
 0002:00000094       __imp__IsBadCodePtr@4      004ba094     kernel32:KERNEL32.dll
 0002:00000098       __imp__IsBadReadPtr@8      004ba098     kernel32:KERNEL32.dll
 0002:0000009c       __imp__SetConsoleCtrlHandler@8 004ba09c     kernel32:KERNEL32.dll
 0002:000000a0       __imp__GetStringTypeW@16   004ba0a0     kernel32:KERNEL32.dll
 0002:000000a4       __imp__GetStringTypeA@20   004ba0a4     kernel32:KERNEL32.dll
 0002:000000a8       __imp__GetEnvironmentStringsW@0 004ba0a8     kernel32:KERNEL32.dll
 0002:000000ac       __imp__GetEnvironmentStrings@0 004ba0ac     kernel32:KERNEL32.dll
 0002:000000b0       __imp__FreeEnvironmentStringsW@4 004ba0b0     kernel32:KERNEL32.dll
 0002:000000b4       __imp__FreeEnvironmentStringsA@4 004ba0b4     kernel32:KERNEL32.dll
 0002:000000b8       __imp__SetUnhandledExceptionFilter@4 004ba0b8     kernel32:KERNEL32.dll
 0002:000000bc       __imp__UnhandledExceptionFilter@4 004ba0bc     kernel32:KERNEL32.dll
 0002:000000c0       __imp__LCMapStringW@24     004ba0c0     kernel32:KERNEL32.dll
 0002:000000c4       __imp__LCMapStringA@24     004ba0c4     kernel32:KERNEL32.dll
 0002:000000c8       __imp__MultiByteToWideChar@24 004ba0c8     kernel32:KERNEL32.dll
 0002:000000cc       __imp__WideCharToMultiByte@32 004ba0cc     kernel32:KERNEL32.dll
 0002:000000d0       __imp__IsBadWritePtr@8     004ba0d0     kernel32:KERNEL32.dll
 0002:000000d4       __imp__VirtualAlloc@16     004ba0d4     kernel32:KERNEL32.dll
 0002:000000d8       __imp__VirtualFree@12      004ba0d8     kernel32:KERNEL32.dll
 0002:000000dc       __imp__HeapCreate@12       004ba0dc     kernel32:KERNEL32.dll
 0002:000000e0       __imp__HeapDestroy@4       004ba0e0     kernel32:KERNEL32.dll
 0002:000000e4       __imp__GetFileType@4       004ba0e4     kernel32:KERNEL32.dll
 0002:000000e8       __imp__GetStdHandle@4      004ba0e8     kernel32:KERNEL32.dll
 0002:000000ec       __imp__SetHandleCount@4    004ba0ec     kernel32:KERNEL32.dll
 0002:000000f0       __imp__GetCurrentProcess@0 004ba0f0     kernel32:KERNEL32.dll
 0002:000000f4       __imp__TerminateProcess@8  004ba0f4     kernel32:KERNEL32.dll
 0002:000000f8       __imp__FreeLibrary@4       004ba0f8     kernel32:KERNEL32.dll
 0002:000000fc       __imp__GetPrivateProfileSectionNamesA@12 004ba0fc     kernel32:KERNEL32.dll
 0002:00000100       __imp__GetPrivateProfileSectionA@16 004ba100     kernel32:KERNEL32.dll
 0002:00000104       __imp__GetPrivateProfileIntA@16 004ba104     kernel32:KERNEL32.dll
 0002:00000108       __imp__GetPrivateProfileStringA@24 004ba108     kernel32:KERNEL32.dll
 0002:0000010c       __imp__GetModuleFileNameA@12 004ba10c     kernel32:KERNEL32.dll
 0002:00000110       __imp__CompareStringW@24   004ba110     kernel32:KERNEL32.dll
 0002:00000114       __imp__GetTickCount@0      004ba114     kernel32:KERNEL32.dll
 0002:00000118       __imp__GetLastError@0      004ba118     kernel32:KERNEL32.dll
 0002:0000011c       __imp__InterlockedDecrement@4 004ba11c     kernel32:KERNEL32.dll
 0002:00000120       __imp__InterlockedIncrement@4 004ba120     kernel32:KERNEL32.dll
 0002:00000124       __imp__InterlockedExchange@8 004ba124     kernel32:KERNEL32.dll
 0002:00000128       __imp__PulseEvent@4        004ba128     kernel32:KERNEL32.dll
 0002:0000012c       __imp__GetTempPathA@8      004ba12c     kernel32:KERNEL32.dll
 0002:00000130       __imp__GetFileInformationByHandle@8 004ba130     kernel32:KERNEL32.dll
 0002:00000134       __imp__FlushFileBuffers@4  004ba134     kernel32:KERNEL32.dll
 0002:00000138       __imp__SetEndOfFile@4      004ba138     kernel32:KERNEL32.dll
 0002:0000013c       __imp__SetFilePointer@16   004ba13c     kernel32:KERNEL32.dll
 0002:00000140       __imp__GetDiskFreeSpaceA@20 004ba140     kernel32:KERNEL32.dll
 0002:00000144       __imp__ReadFile@20         004ba144     kernel32:KERNEL32.dll
 0002:00000148       __imp__GetSystemInfo@4     004ba148     kernel32:KERNEL32.dll
 0002:0000014c       __imp__DeleteFileA@4       004ba14c     kernel32:KERNEL32.dll
 0002:00000150       __imp__MoveFileExA@12      004ba150     kernel32:KERNEL32.dll
 0002:00000154       __imp__MoveFileA@8         004ba154     kernel32:KERNEL32.dll
 0002:00000158       __imp__UnmapViewOfFile@4   004ba158     kernel32:KERNEL32.dll
 0002:0000015c       __imp__MapViewOfFile@20    004ba15c     kernel32:KERNEL32.dll
 0002:00000160       __imp__CreateFileMappingA@24 004ba160     kernel32:KERNEL32.dll
 0002:00000164       __imp__OpenFileMappingA@12 004ba164     kernel32:KERNEL32.dll
 0002:00000168       __imp__GetSystemTime@4     004ba168     kernel32:KERNEL32.dll
 0002:0000016c       __imp__GetVersion@0        004ba16c     kernel32:KERNEL32.dll
 0002:00000170       __imp__RtlUnwind@16        004ba170     kernel32:KERNEL32.dll
 0002:00000174       __imp__FindFirstFileA@8    004ba174     kernel32:KERNEL32.dll
 0002:00000178       __imp__FindNextFileA@8     004ba178     kernel32:KERNEL32.dll
 0002:0000017c       __imp__FindClose@4         004ba17c     kernel32:KERNEL32.dll
 0002:00000180       __imp__FileTimeToSystemTime@8 004ba180     kernel32:KERNEL32.dll
 0002:00000184       __imp__FileTimeToLocalFileTime@8 004ba184     kernel32:KERNEL32.dll
 0002:00000188       __imp__HeapFree@12         004ba188     kernel32:KERNEL32.dll
 0002:0000018c       __imp__HeapAlloc@12        004ba18c     kernel32:KERNEL32.dll
 0002:00000190       __imp__CreateThread@24     004ba190     kernel32:KERNEL32.dll
 0002:00000194       __imp__GetCurrentThreadId@0 004ba194     kernel32:KERNEL32.dll
 0002:00000198       __imp__TlsSetValue@8       004ba198     kernel32:KERNEL32.dll
 0002:0000019c       __imp__ExitThread@4        004ba19c     kernel32:KERNEL32.dll
 0002:000001a0       __imp__RaiseException@16   004ba1a0     kernel32:KERNEL32.dll
 0002:000001a4       __imp__HeapSize@12         004ba1a4     kernel32:KERNEL32.dll
 0002:000001a8       __imp__GetTimeZoneInformation@4 004ba1a8     kernel32:KERNEL32.dll
 0002:000001ac       __imp__GetModuleHandleA@4  004ba1ac     kernel32:KERNEL32.dll
 0002:000001b0       __imp__GetStartupInfoA@4   004ba1b0     kernel32:KERNEL32.dll
 0002:000001b4       __imp__GetCommandLineA@0   004ba1b4     kernel32:KERNEL32.dll
 0002:000001b8       __imp__ExitProcess@4       004ba1b8     kernel32:KERNEL32.dll
 0002:000001bc       __imp__HeapReAlloc@16      004ba1bc     kernel32:KERNEL32.dll
 0002:000001c0       __imp__GetSystemTimeAsFileTime@4 004ba1c0     kernel32:KERNEL32.dll
 0002:000001c4       __imp__GetCurrentDirectoryA@8 004ba1c4     kernel32:KERNEL32.dll
 0002:000001c8       __imp__GetFullPathNameA@16 004ba1c8     kernel32:KERNEL32.dll
 0002:000001cc       __imp__GetDriveTypeA@4     004ba1cc     kernel32:KERNEL32.dll
 0002:000001d0       __imp__TlsAlloc@0          004ba1d0     kernel32:KERNEL32.dll
 0002:000001d4       __imp__TlsFree@4           004ba1d4     kernel32:KERNEL32.dll
 0002:000001d8       __imp__SetLastError@4      004ba1d8     kernel32:KERNEL32.dll
 0002:000001dc       __imp__TlsGetValue@4       004ba1dc     kernel32:KERNEL32.dll
 0002:000001e0       __imp__GetCurrentThread@0  004ba1e0     kernel32:KERNEL32.dll
 0002:000001e4       __imp__FatalAppExitA@8     004ba1e4     kernel32:KERNEL32.dll
 0002:000001e8       __imp__GetCPInfo@8         004ba1e8     kernel32:KERNEL32.dll
 0002:000001ec       __imp__GetACP@0            004ba1ec     kernel32:KERNEL32.dll
 0002:000001f0       __imp__GetOEMCP@0          004ba1f0     kernel32:KERNEL32.dll
 0002:000001f4       __imp__GetCurrentProcessId@0 004ba1f4     kernel32:KERNEL32.dll
 0002:000001f8       \177KERNEL32_NULL_THUNK_DATA 004ba1f8     kernel32:KERNEL32.dll
 0002:000001fc       __imp__lua_pushstring      004ba1fc     lualibdll:LuaLibDll.dll
 0002:00000200       __imp__lua_tonumber        004ba200     lualibdll:LuaLibDll.dll
 0002:00000204       __imp__lua_gettop          004ba204     lualibdll:LuaLibDll.dll
 0002:00000208       __imp__lua_tostring        004ba208     lualibdll:LuaLibDll.dll
 0002:0000020c       \177LuaLibDll_NULL_THUNK_DATA 004ba20c     lualibdll:LuaLibDll.dll
 0002:00000210       __imp__SendMessageA@16     004ba210     user32:USER32.dll
 0002:00000214       __imp__KillTimer@8         004ba214     user32:USER32.dll
 0002:00000218       __imp__GetDlgItemTextA@16  004ba218     user32:USER32.dll
 0002:0000021c       __imp__EndDialog@8         004ba21c     user32:USER32.dll
 0002:00000220       __imp__BeginPaint@8        004ba220     user32:USER32.dll
 0002:00000224       __imp__EndPaint@8          004ba224     user32:USER32.dll
 0002:00000228       __imp__MoveWindow@24       004ba228     user32:USER32.dll
 0002:0000022c       __imp__PostQuitMessage@4   004ba22c     user32:USER32.dll
 0002:00000230       __imp__DestroyWindow@4     004ba230     user32:USER32.dll
 0002:00000234       __imp__DefWindowProcA@16   004ba234     user32:USER32.dll
 0002:00000238       __imp__CreateWindowExA@48  004ba238     user32:USER32.dll
 0002:0000023c       __imp__SetTimer@16         004ba23c     user32:USER32.dll
 0002:00000240       __imp__ShowWindow@8        004ba240     user32:USER32.dll
 0002:00000244       __imp__UpdateWindow@4      004ba244     user32:USER32.dll
 0002:00000248       __imp__GetClientRect@8     004ba248     user32:USER32.dll
 0002:0000024c       __imp__LoadIconA@8         004ba24c     user32:USER32.dll
 0002:00000250       __imp__LoadCursorA@8       004ba250     user32:USER32.dll
 0002:00000254       __imp__RegisterClassExA@4  004ba254     user32:USER32.dll
 0002:00000258       __imp__DialogBoxParamA@20  004ba258     user32:USER32.dll
 0002:0000025c       __imp__LoadStringA@16      004ba25c     user32:USER32.dll
 0002:00000260       __imp__LoadAcceleratorsA@8 004ba260     user32:USER32.dll
 0002:00000264       __imp__GetMessageA@16      004ba264     user32:USER32.dll
 0002:00000268       __imp__TranslateAcceleratorA@12 004ba268     user32:USER32.dll
 0002:0000026c       __imp__TranslateMessage@4  004ba26c     user32:USER32.dll
 0002:00000270       __imp__DispatchMessageA@4  004ba270     user32:USER32.dll
 0002:00000274       __imp__MessageBoxA@16      004ba274     user32:USER32.dll
 0002:00000278       __imp__PostMessageA@16     004ba278     user32:USER32.dll
 0002:0000027c       \177USER32_NULL_THUNK_DATA 004ba27c     user32:USER32.dll
 0002:00000280       __imp__inet_ntoa@4         004ba280     Ws2_32:WS2_32.dll
 0002:00000284       __imp__inet_addr@4         004ba284     Ws2_32:WS2_32.dll
 0002:00000288       \177WS2_32_NULL_THUNK_DATA 004ba288     Ws2_32:WS2_32.dll
 0002:00000360       ??_7CChannelMgr@@6B@       004ba360     ChannelMgr.obj
 0002:00000364       ?_C@?1??_Nullstr@?$basic_string@DU?$char_traits@D@std@@V?$allocator@D@2@@std@@CAPBDXZ@4DB 004ba364     ChannelMgr.obj
 0002:00000368       ?npos@?$basic_string@DU?$char_traits@D@std@@V?$allocator@D@2@@std@@2IB 004ba368     ChannelMgr.obj
 0002:0000036c       ??_7CNetConnectDup@@6B@    004ba36c     ChannelMgr.obj
 0002:00000370       ??_7CChatConnect@@6BIMessageProcess@@@ 004ba370     ChatConnect.obj
 0002:00000374       ??_7CChatConnect@@6BKThread@@@ 004ba374     ChatConnect.obj
 0002:0000039c       ??_7CChatServer@@6B@       004ba39c     ChatServer.obj
 0002:000003b8       ??_7CDBCenter@@6B@         004ba3b8     DBConnect.obj
 0002:000003cc       ??_7CDBClient@@6B@         004ba3cc     DBConnect.obj
 0002:00000400       ??_7CDBDump@@6B@           004ba400     DBDumpLoad.obj
 0002:00000404       ??_7CDBLoad@@6B@           004ba404     DBDumpLoad.obj
 0002:00000408       ??_7ZDBTable@@6B@          004ba408     DBTable.obj
 0002:0000040c       ??_7CDBTableReadOnly@@6B@  004ba40c     DBTable.obj
 0002:00000410       ??_7CNetClientDup@@6B@     004ba410     DealRelay.obj
 0002:00000468       ??_7CFriendMgr@@6B@        004ba468     FriendMgr.obj
 0002:0000046c       ??_7CGatewayCenter@@6B@    004ba46c     GatewayCenter.obj
 0002:00000480       ??_7CGatewayClient@@6B@    004ba480     GatewayClient.obj
 0002:00000548       ??_7CHeavenLib@@6B@        004ba548     HeavenLib.obj
 0002:0000054c       ??_7CHostConnect@@6BIMessageProcess@@@ 004ba54c     HostConnect.obj
 0002:00000550       ??_7CHostConnect@@6BKThread@@@ 004ba550     HostConnect.obj
 0002:00000580       ??_7CHostServer@@6B@       004ba580     HostServer.obj
 0002:0000059c       ??_7KThread@@6B@           004ba59c     KThread.obj
 0002:000005b0       ??_7CLockSRSW@@6B@         004ba5b0     Lock.obj
 0002:000005c4       ??_7ALock@@6B@             004ba5c4     Lock.obj
 0002:000005d8       ??_7CLockMRSW@@6B@         004ba5d8     Lock.obj
 0002:000005f8       ??_7CLogFile@@6B@          004ba5f8     LogFile.obj
 0002:000005fc       ??_7CMemory@@6B@           004ba5fc     Memory.obj
 0002:00000600       ??_7CNetCenter@@6B@        004ba600     NetCenter.obj
 0002:00000614       ??_7CNetClient@@6B@        004ba614     NetClient.obj
 0002:00000648       ??_7CNetConnect@@6BIMessageProcess@@@ 004ba648     NetConnect.obj
 0002:0000064c       ??_7CNetConnect@@6BKThread@@@ 004ba64c     NetConnect.obj
 0002:00000674       ??_7IMessageProcess@@6B@   004ba674     NetConnect.obj
 0002:00000678       ??_7CNetServer@@6B@        004ba678     NetServer.obj
 0002:00000694       ??_7CNetSockDupEx@@6B@     004ba694     NetSockDupEx.obj
 0002:00000698       ??_7CRainbowLib@@6B@       004ba698     RainbowLib.obj
 0002:0000069c       ??_7CRelayCenter@@6B@      004ba69c     RelayCenter.obj
 0002:000006b0       ??_7CRelayClient@@6B@      004ba6b0     RelayClient.obj
 0002:000006e4       ??_7CRelayConnect@@6BIMessageProcess@@@ 004ba6e4     RelayConnect.obj
 0002:000006e8       ??_7CRelayConnect@@6BKThread@@@ 004ba6e8     RelayConnect.obj
 0002:00000710       ??_7CRelayServer@@6B@      004ba710     RelayServer.obj
 0002:0000072c       ??_7CRootCenter@@6B@       004ba72c     RootCenter.obj
 0002:00000740       ??_7CRootClient@@6B@       004ba740     RootClient.obj
 0002:00000778       _IID_IIOCPServer           004ba778     S3Relay.obj
 0002:00000788       _IID_IServerFactory        004ba788     S3Relay.obj
 0002:00000798       _IID_IESClient             004ba798     S3Relay.obj
 0002:000007a8       _IID_IClientFactory        004ba7a8     S3Relay.obj
 0002:000007c4       ??_7CSockThread@@6B@       004ba7c4     SockThread.obj
 0002:000007e8       ??_7CTongConnect@@6BIMessageProcess@@@ 004ba7e8     TongConnect.obj
 0002:000007ec       ??_7CTongConnect@@6BKThread@@@ 004ba7ec     TongConnect.obj
 0002:00000814       ??_7CTongServer@@6B@       004ba814     TongServer.obj
 0002:00000830       ??_7CTongControl@@6B@      004ba830     KTongControl.obj
 0002:00000834       ??_7CTongSet@@6B@          004ba834     KTongSet.obj
 0002:00000838       ??_7CTongDB@@6B@           004ba838     TONGDB.OBJ
 0002:000015c8       __real@8@c0048400000000000000 004bb5c8     libdb41s:env_recover.obj
 0002:000015d0       __real@8@00000000000000000000 004bb5d0     libdb41s:env_recover.obj
 0002:000015d8       __real@8@40048400000000000000 004bb5d8     libdb41s:env_recover.obj
 0002:00002a60       __real@8@3fff8000000000000000 004bca60     libdb41s:bt_stat.obj
 0002:00002ecc       ??_7length_error@std@@6B@  004bcecc     libcpmt:string.obj
 0002:00002ed8       ??_C@_0BA@HHMB@string?5too?5long?$AA@ 004bced8     libcpmt:string.obj
 0002:00002eec       ??_7logic_error@std@@6B@   004bceec     libcpmt:string.obj
 0002:00002efc       ??_7out_of_range@std@@6B@  004bcefc     libcpmt:string.obj
 0002:00002f08       ??_C@_0BI@EEBE@invalid?5string?5position?$AA@ 004bcf08     libcpmt:string.obj
 0002:00002f30       ??_7type_info@@6B@         004bcf30     LIBCMT:typinfo.obj
 0002:00002f64       ??_C@_07CJME@H?3mm?3ss?$AA@ 004bcf64     LIBCMT:strftime.obj
 0002:00002f6c       ??_C@_0BE@MHI@dddd?0?5MMMM?5dd?0?5yyyy?$AA@ 004bcf6c     LIBCMT:strftime.obj
 0002:00002f80       ??_C@_06HCAD@M?1d?1yy?$AA@ 004bcf80     LIBCMT:strftime.obj
 0002:00002f88       ??_C@_02DBLP@PM?$AA@       004bcf88     LIBCMT:strftime.obj
 0002:00002f8c       ??_C@_02ENLM@AM?$AA@       004bcf8c     LIBCMT:strftime.obj
 0002:00002f90       ??_C@_08LIDF@December?$AA@ 004bcf90     LIBCMT:strftime.obj
 0002:00002f9c       ??_C@_08NJLI@November?$AA@ 004bcf9c     LIBCMT:strftime.obj
 0002:00002fa8       ??_C@_07IAMM@October?$AA@  004bcfa8     LIBCMT:strftime.obj
 0002:00002fb0       ??_C@_09MKGD@September?$AA@ 004bcfb0     LIBCMT:strftime.obj
 0002:00002fbc       ??_C@_06PADP@August?$AA@   004bcfbc     LIBCMT:strftime.obj
 0002:00002fc4       ??_C@_04PIJO@July?$AA@     004bcfc4     LIBCMT:strftime.obj
 0002:00002fcc       ??_C@_04ICFP@June?$AA@     004bcfcc     LIBCMT:strftime.obj
 0002:00002fd4       ??_C@_05JFGC@April?$AA@    004bcfd4     LIBCMT:strftime.obj
 0002:00002fdc       ??_C@_05FGPD@March?$AA@    004bcfdc     LIBCMT:strftime.obj
 0002:00002fe4       ??_C@_08PGBA@February?$AA@ 004bcfe4     LIBCMT:strftime.obj
 0002:00002ff0       ??_C@_07BPKJ@January?$AA@  004bcff0     LIBCMT:strftime.obj
 0002:00002ff8       ??_C@_03PGJO@Dec?$AA@      004bcff8     LIBCMT:strftime.obj
 0002:00002ffc       ??_C@_03PDLM@Nov?$AA@      004bcffc     LIBCMT:strftime.obj
 0002:00003000       ??_C@_03BLHK@Oct?$AA@      004bd000     LIBCMT:strftime.obj
 0002:00003004       ??_C@_03DPFM@Sep?$AA@      004bd004     LIBCMT:strftime.obj
 0002:00003008       ??_C@_03CMCH@Aug?$AA@      004bd008     LIBCMT:strftime.obj
 0002:0000300c       ??_C@_03OBKI@Jul?$AA@      004bd00c     LIBCMT:strftime.obj
 0002:00003010       ??_C@_03LEIG@Jun?$AA@      004bd010     LIBCMT:strftime.obj
 0002:00003014       ??_C@_03MGHB@May?$AA@      004bd014     LIBCMT:strftime.obj
 0002:00003018       ??_C@_03MJJM@Apr?$AA@      004bd018     LIBCMT:strftime.obj
 0002:0000301c       ??_C@_03GNHA@Mar?$AA@      004bd01c     LIBCMT:strftime.obj
 0002:00003020       ??_C@_03PICE@Feb?$AA@      004bd020     LIBCMT:strftime.obj
 0002:00003024       ??_C@_03IEIF@Jan?$AA@      004bd024     LIBCMT:strftime.obj
 0002:00003028       ??_C@_08FAKH@Saturday?$AA@ 004bd028     LIBCMT:strftime.obj
 0002:00003034       ??_C@_06ONCK@Friday?$AA@   004bd034     LIBCMT:strftime.obj
 0002:0000303c       ??_C@_08CCFO@Thursday?$AA@ 004bd03c     LIBCMT:strftime.obj
 0002:00003048       ??_C@_09PBIN@Wednesday?$AA@ 004bd048     LIBCMT:strftime.obj
 0002:00003054       ??_C@_07BMBC@Tuesday?$AA@  004bd054     LIBCMT:strftime.obj
 0002:0000305c       ??_C@_06CHLK@Monday?$AA@   004bd05c     LIBCMT:strftime.obj
 0002:00003064       ??_C@_06OOEM@Sunday?$AA@   004bd064     LIBCMT:strftime.obj
 0002:0000306c       ??_C@_03MPKK@Sat?$AA@      004bd06c     LIBCMT:strftime.obj
 0002:00003070       ??_C@_03FINJ@Fri?$AA@      004bd070     LIBCMT:strftime.obj
 0002:00003074       ??_C@_03HIKC@Thu?$AA@      004bd074     LIBCMT:strftime.obj
 0002:00003078       ??_C@_03HECK@Wed?$AA@      004bd078     LIBCMT:strftime.obj
 0002:0000307c       ??_C@_03ECCP@Tue?$AA@      004bd07c     LIBCMT:strftime.obj
 0002:00003080       ??_C@_03PIEP@Mon?$AA@      004bd080     LIBCMT:strftime.obj
 0002:00003084       ??_C@_03FHEP@Sun?$AA@      004bd084     LIBCMT:strftime.obj
 0002:00003088       ??_C@_03MKGK@a?1p?$AA@     004bd088     LIBCMT:strftime.obj
 0002:0000308c       ??_C@_05BDJK@am?1pm?$AA@   004bd08c     LIBCMT:strftime.obj
 0002:00003098       ??_7exception@@6B@         004bd098     LIBCMT:stdexcpt.obj
 0002:000030a0       ??_C@_0BC@OIDF@Unknown?5exception?$AA@ 004bd0a0     LIBCMT:stdexcpt.obj
 0002:00003130       ___lookuptable             004bd130     LIBCMT:output.obj
 0002:0000318c       ??_C@_1O@POHA@?$AA?$CI?$AAn?$AAu?$AAl?$AAl?$AA?$CJ?$AA?$AA@ 004bd18c     LIBCMT:output.obj
 0002:0000319c       ??_C@_06ONKE@?$CInull?$CJ?$AA@ 004bd19c     LIBCMT:output.obj
 0002:000031a8       __real@8@4015800bf60000000000 004bd1a8     LIBCMT:testfdiv.obj
 0002:000031b0       __real@8@4014bffffc0000000000 004bd1b0     LIBCMT:testfdiv.obj
 0002:000031b8       ??_C@_0BK@JEGK@IsProcessorFeaturePresent?$AA@ 004bd1b8     LIBCMT:testfdiv.obj
 0002:000031d4       ??_C@_08OBID@KERNEL32?$AA@ 004bd1d4     LIBCMT:testfdiv.obj
 0002:000031e0       ??_C@_05OFLO@e?$CL000?$AA@ 004bd1e0     LIBCMT:cvt.obj
 0002:000031e8       ??_C@_13A@?$AA?$AA?$AA?$AA@ 004bd1e8     LIBCMT:a_map.obj
 0002:00003208       ___dnames                  004bd208     LIBCMT:timeset.obj
 0002:00003220       ___mnames                  004bd220     LIBCMT:timeset.obj
 0002:00003248       ??_C@_02JHIA@TZ?$AA@       004bd248     LIBCMT:tzset.obj
 0002:0000324c       ??_C@_0P@GGKG@runtime?5error?5?$AA@ 004bd24c     LIBCMT:crt0msg.obj
 0002:0000325c       ??_C@_0O@DELO@TLOSS?5error?$AN?6?$AA@ 004bd25c     LIBCMT:crt0msg.obj
 0002:0000326c       ??_C@_0N@OMLL@SING?5error?$AN?6?$AA@ 004bd26c     LIBCMT:crt0msg.obj
 0002:0000327c       ??_C@_0P@OJAK@DOMAIN?5error?$AN?6?$AA@ 004bd27c     LIBCMT:crt0msg.obj
 0002:0000328c       ??_C@_0CF@EANP@R6028?$AN?6?9?5unable?5to?5initialize?5he@ 004bd28c     LIBCMT:crt0msg.obj
 0002:000032b4       ??_C@_0DF@ECGN@R6027?$AN?6?9?5not?5enough?5space?5for?5lo@ 004bd2b4     LIBCMT:crt0msg.obj
 0002:000032ec       ??_C@_0DF@FKAC@R6026?$AN?6?9?5not?5enough?5space?5for?5st@ 004bd2ec     LIBCMT:crt0msg.obj
 0002:00003324       ??_C@_0CG@DPMN@R6025?$AN?6?9?5pure?5virtual?5function?5c@ 004bd324     LIBCMT:crt0msg.obj
 0002:0000334c       ??_C@_0DF@CKIP@R6024?$AN?6?9?5not?5enough?5space?5for?5_o@ 004bd34c     LIBCMT:crt0msg.obj
 0002:00003384       ??_C@_0CJ@GGOE@R6019?$AN?6?9?5unable?5to?5open?5console?5@ 004bd384     LIBCMT:crt0msg.obj
 0002:000033b0       ??_C@_0CB@LBOB@R6018?$AN?6?9?5unexpected?5heap?5error?$AN?6@ 004bd3b0     LIBCMT:crt0msg.obj
 0002:000033d4       ??_C@_0CN@FPEG@R6017?$AN?6?9?5unexpected?5multithread?5@ 004bd3d4     LIBCMT:crt0msg.obj
 0002:00003404       ??_C@_0CM@OBIC@R6016?$AN?6?9?5not?5enough?5space?5for?5th@ 004bd404     LIBCMT:crt0msg.obj
 0002:00003430       ??_C@_0CB@HPAL@?$AN?6abnormal?5program?5termination?$AN?6@ 004bd430     LIBCMT:crt0msg.obj
 0002:00003454       ??_C@_0CM@JOOB@R6009?$AN?6?9?5not?5enough?5space?5for?5en@ 004bd454     LIBCMT:crt0msg.obj
 0002:00003480       ??_C@_0CK@OIBL@R6008?$AN?6?9?5not?5enough?5space?5for?5ar@ 004bd480     LIBCMT:crt0msg.obj
 0002:000034ac       ??_C@_0CF@LKPB@R6002?$AN?6?9?5floating?5point?5not?5load@ 004bd4ac     LIBCMT:crt0msg.obj
 0002:000034d4       ??_C@_0CF@JPDF@Microsoft?5Visual?5C?$CL?$CL?5Runtime?5Lib@ 004bd4d4     LIBCMT:crt0msg.obj
 0002:000034fc       ??_C@_02JJJH@?6?6?$AA@     004bd4fc     LIBCMT:crt0msg.obj
 0002:00003500       ??_C@_0BK@DEOK@Runtime?5Error?$CB?6?6Program?3?5?$AA@ 004bd500     LIBCMT:crt0msg.obj
 0002:0000351c       ??_C@_0BH@NNCD@?$DMprogram?5name?5unknown?$DO?$AA@ 004bd51c     LIBCMT:crt0msg.obj
 0002:00003534       ??_C@_0BG@JPLP@Illegal?5byte?5sequence?$AA@ 004bd534     LIBCMT:syserr.obj
 0002:0000354c       ??_C@_0BE@FLBN@Directory?5not?5empty?$AA@ 004bd54c     LIBCMT:syserr.obj
 0002:00003560       ??_C@_0BJ@KAFL@Function?5not?5implemented?$AA@ 004bd560     LIBCMT:syserr.obj
 0002:0000357c       ??_C@_0BD@CEML@No?5locks?5available?$AA@ 004bd57c     LIBCMT:syserr.obj
 0002:00003590       ??_C@_0BC@GADJ@Filename?5too?5long?$AA@ 004bd590     LIBCMT:syserr.obj
 0002:000035a4       ??_C@_0BK@FNFN@Resource?5deadlock?5avoided?$AA@ 004bd5a4     LIBCMT:syserr.obj
 0002:000035c0       ??_C@_0BB@EALI@Result?5too?5large?$AA@ 004bd5c0     LIBCMT:syserr.obj
 0002:000035d4       ??_C@_0N@FIAN@Domain?5error?$AA@ 004bd5d4     LIBCMT:syserr.obj
 0002:000035e4       ??_C@_0M@CLKF@Broken?5pipe?$AA@ 004bd5e4     LIBCMT:syserr.obj
 0002:000035f0       ??_C@_0P@OFDM@Too?5many?5links?$AA@ 004bd5f0     LIBCMT:syserr.obj
 0002:00003600       ??_C@_0BG@OHDM@Read?9only?5file?5system?$AA@ 004bd600     LIBCMT:syserr.obj
 0002:00003618       ??_C@_0N@NGPA@Invalid?5seek?$AA@ 004bd618     LIBCMT:syserr.obj
 0002:00003628       ??_C@_0BI@DMFE@No?5space?5left?5on?5device?$AA@ 004bd628     LIBCMT:syserr.obj
 0002:00003640       ??_C@_0P@OPNK@File?5too?5large?$AA@ 004bd640     LIBCMT:syserr.obj
 0002:00003650       ??_C@_0CE@BADJ@Inappropriate?5I?1O?5control?5operat@ 004bd650     LIBCMT:syserr.obj
 0002:00003674       ??_C@_0BE@COOK@Too?5many?5open?5files?$AA@ 004bd674     LIBCMT:syserr.obj
 0002:00003688       ??_C@_0BO@ELHF@Too?5many?5open?5files?5in?5system?$AA@ 004bd688     LIBCMT:syserr.obj
 0002:000036a8       ??_C@_0BB@IHAB@Invalid?5argument?$AA@ 004bd6a8     LIBCMT:syserr.obj
 0002:000036bc       ??_C@_0P@NDNC@Is?5a?5directory?$AA@ 004bd6bc     LIBCMT:syserr.obj
 0002:000036cc       ??_C@_0BA@JMMO@Not?5a?5directory?$AA@ 004bd6cc     LIBCMT:syserr.obj
 0002:000036dc       ??_C@_0P@GFAI@No?5such?5device?$AA@ 004bd6dc     LIBCMT:syserr.obj
 0002:000036ec       ??_C@_0O@KHHM@Improper?5link?$AA@ 004bd6ec     LIBCMT:syserr.obj
 0002:000036fc       ??_C@_0M@EPHJ@File?5exists?$AA@ 004bd6fc     LIBCMT:syserr.obj
 0002:00003708       ??_C@_0BA@LPOH@Resource?5device?$AA@ 004bd708     LIBCMT:syserr.obj
 0002:00003718       ??_C@_0O@NOFB@Unknown?5error?$AA@ 004bd718     LIBCMT:syserr.obj
 0002:00003728       ??_C@_0M@MLJM@Bad?5address?$AA@ 004bd728     LIBCMT:syserr.obj
 0002:00003734       ??_C@_0BC@DJON@Permission?5denied?$AA@ 004bd734     LIBCMT:syserr.obj
 0002:00003748       ??_C@_0BB@KDDC@Not?5enough?5space?$AA@ 004bd748     LIBCMT:syserr.obj
 0002:0000375c       ??_C@_0CB@BBBH@Resource?5temporarily?5unavailable@ 004bd75c     LIBCMT:syserr.obj
 0002:00003780       ??_C@_0BD@ODIH@No?5child?5processes?$AA@ 004bd780     LIBCMT:syserr.obj
 0002:00003794       ??_C@_0BE@CDDH@Bad?5file?5descriptor?$AA@ 004bd794     LIBCMT:syserr.obj
 0002:000037a8       ??_C@_0BC@BICL@Exec?5format?5error?$AA@ 004bd7a8     LIBCMT:syserr.obj
 0002:000037bc       ??_C@_0BC@IGMC@Arg?5list?5too?5long?$AA@ 004bd7bc     LIBCMT:syserr.obj
 0002:000037d0       ??_C@_0BK@HLB@No?5such?5device?5or?5address?$AA@ 004bd7d0     LIBCMT:syserr.obj
 0002:000037ec       ??_C@_0BD@MPKK@Input?1output?5error?$AA@ 004bd7ec     LIBCMT:syserr.obj
 0002:00003800       ??_C@_0BK@ODCM@Interrupted?5function?5call?$AA@ 004bd800     LIBCMT:syserr.obj
 0002:0000381c       ??_C@_0BA@BPKN@No?5such?5process?$AA@ 004bd81c     LIBCMT:syserr.obj
 0002:0000382c       ??_C@_0BK@IEMO@No?5such?5file?5or?5directory?$AA@ 004bd82c     LIBCMT:syserr.obj
 0002:00003848       ??_C@_0BI@IIAE@Operation?5not?5permitted?$AA@ 004bd848     LIBCMT:syserr.obj
 0002:00003860       ??_C@_08KKBH@No?5error?$AA@ 004bd860     LIBCMT:syserr.obj
 0002:0000387c       ??_C@_07PCLE@LC_TIME?$AA@  004bd87c     LIBCMT:setlocal.obj
 0002:00003884       ??_C@_0L@NKG@LC_NUMERIC?$AA@ 004bd884     LIBCMT:setlocal.obj
 0002:00003890       ??_C@_0M@CBIH@LC_MONETARY?$AA@ 004bd890     LIBCMT:setlocal.obj
 0002:0000389c       ??_C@_08LFGE@LC_CTYPE?$AA@ 004bd89c     LIBCMT:setlocal.obj
 0002:000038a8       ??_C@_0L@CFLC@LC_COLLATE?$AA@ 004bd8a8     LIBCMT:setlocal.obj
 0002:000038b4       ??_C@_06GCPK@LC_ALL?$AA@   004bd8b4     LIBCMT:setlocal.obj
 0002:000038bc       ??_C@_01FAJB@?$DL?$AA@     004bd8bc     LIBCMT:setlocal.obj
 0002:000038c0       ??_C@_02BGDO@?$DN?$DL?$AA@ 004bd8c0     LIBCMT:setlocal.obj
 0002:000038c4       ??_C@_01KPOD@?$DN?$AA@     004bd8c4     LIBCMT:setlocal.obj
 0002:000038c8       ??_C@_03DBOJ@_?4?0?$AA@    004bd8c8     LIBCMT:setlocal.obj
 0002:000038cc       ??_C@_01NON@_?$AA@         004bd8cc     LIBCMT:setlocal.obj
 0002:000038d0       ??_C@_0BD@NJFP@GetLastActivePopup?$AA@ 004bd8d0     LIBCMT:crtmbox.obj
 0002:000038e4       ??_C@_0BA@GILI@GetActiveWindow?$AA@ 004bd8e4     LIBCMT:crtmbox.obj
 0002:000038f4       ??_C@_0M@PKCK@MessageBoxA?$AA@ 004bd8f4     LIBCMT:crtmbox.obj
 0002:00003900       ??_C@_0L@HKL@user32?4dll?$AA@ 004bd900     LIBCMT:crtmbox.obj
 0002:00003928       ??_C@_08OBJD@Paraguay?$AA@ 004bd928     LIBCMT:getqloc.obj
 0002:00003934       ??_C@_07GLKH@Uruguay?$AA@  004bd934     LIBCMT:getqloc.obj
 0002:0000393c       ??_C@_05FPFC@Chile?$AA@    004bd93c     LIBCMT:getqloc.obj
 0002:00003944       ??_C@_07IIGF@Ecuador?$AA@  004bd944     LIBCMT:getqloc.obj
 0002:0000394c       ??_C@_09PKAL@Argentina?$AA@ 004bd94c     LIBCMT:getqloc.obj
 0002:00003958       ??_C@_04LKAH@Peru?$AA@     004bd958     LIBCMT:getqloc.obj
 0002:00003960       ??_C@_08NEEM@Colombia?$AA@ 004bd960     LIBCMT:getqloc.obj
 0002:0000396c       ??_C@_09ODEB@Venezuela?$AA@ 004bd96c     LIBCMT:getqloc.obj
 0002:00003978       ??_C@_0BD@CLEL@Dominican?5Republic?$AA@ 004bd978     LIBCMT:getqloc.obj
 0002:0000398c       ??_C@_0N@MDGL@South?5Africa?$AA@ 004bd98c     LIBCMT:getqloc.obj
 0002:0000399c       ??_C@_06NKBG@Panama?$AA@   004bd99c     LIBCMT:getqloc.obj
 0002:000039a4       ??_C@_0L@BMHO@Luxembourg?$AA@ 004bd9a4     LIBCMT:getqloc.obj
 0002:000039b0       ??_C@_0L@IMDK@Costa?5Rica?$AA@ 004bd9b0     LIBCMT:getqloc.obj
 0002:000039bc       ??_C@_0M@BLJF@Switzerland?$AA@ 004bd9bc     LIBCMT:getqloc.obj
 0002:000039c8       ??_C@_09KBOL@Guatemala?$AA@ 004bd9c8     LIBCMT:getqloc.obj
 0002:000039d4       ??_C@_06JNAK@Canada?$AA@   004bd9d4     LIBCMT:getqloc.obj
 0002:000039dc       ??_C@_0BG@OLLP@Spanish?5?9?5Modern?5Sort?$AA@ 004bd9dc     LIBCMT:getqloc.obj
 0002:000039f4       ??_C@_09IDKE@Australia?$AA@ 004bd9f4     LIBCMT:getqloc.obj
 0002:00003a00       ??_C@_07JJJJ@English?$AA@  004bda00     LIBCMT:getqloc.obj
 0002:00003a08       ??_C@_07NMDO@Austria?$AA@  004bda08     LIBCMT:getqloc.obj
 0002:00003a10       ??_C@_06DEFE@German?$AA@   004bda10     LIBCMT:getqloc.obj
 0002:00003a18       ??_C@_07JAIH@Belgium?$AA@  004bda18     LIBCMT:getqloc.obj
 0002:00003a20       ??_C@_06BNLJ@Mexico?$AA@   004bda20     LIBCMT:getqloc.obj
 0002:00003a28       ??_C@_07JHAG@Spanish?$AA@  004bda28     LIBCMT:getqloc.obj
 0002:00003a30       ??_C@_06DADE@Basque?$AA@   004bda30     LIBCMT:getqloc.obj
 0002:00003a38       ??_C@_06ENFP@Sweden?$AA@   004bda38     LIBCMT:getqloc.obj
 0002:00003a40       ??_C@_07JPMH@Swedish?$AA@  004bda40     LIBCMT:getqloc.obj
 0002:00003a48       ??_C@_07IEKF@Iceland?$AA@  004bda48     LIBCMT:getqloc.obj
 0002:00003a50       ??_C@_09KNEA@Icelandic?$AA@ 004bda50     LIBCMT:getqloc.obj
 0002:00003a5c       ??_C@_06IJOD@France?$AA@   004bda5c     LIBCMT:getqloc.obj
 0002:00003a64       ??_C@_06EINI@French?$AA@   004bda64     LIBCMT:getqloc.obj
 0002:00003a6c       ??_C@_07FOOE@Finland?$AA@  004bda6c     LIBCMT:getqloc.obj
 0002:00003a74       ??_C@_07OJOM@Finnish?$AA@  004bda74     LIBCMT:getqloc.obj
 0002:00003a7c       ??_C@_05FFAC@Spain?$AA@    004bda7c     LIBCMT:getqloc.obj
 0002:00003a84       ??_C@_0BL@BIHM@Spanish?5?9?5Traditional?5Sort?$AA@ 004bda84     LIBCMT:getqloc.obj
 0002:00003aa0       ??_C@_0O@GLHB@united?9states?$AA@ 004bdaa0     LIBCMT:getqloc.obj
 0002:00003ab0       ??_C@_0P@IIKK@united?9kingdom?$AA@ 004bdab0     LIBCMT:getqloc.obj
 0002:00003ac0       ??_C@_0BC@FHBO@trinidad?5?$CG?5tobago?$AA@ 004bdac0     LIBCMT:getqloc.obj
 0002:00003ad4       ??_C@_0M@BDFM@south?9korea?$AA@ 004bdad4     LIBCMT:getqloc.obj
 0002:00003ae0       ??_C@_0N@CKFA@south?9africa?$AA@ 004bdae0     LIBCMT:getqloc.obj
 0002:00003af0       ??_C@_0M@HNHN@south?5korea?$AA@ 004bdaf0     LIBCMT:getqloc.obj
 0002:00003afc       ??_C@_0N@MKDO@south?5africa?$AA@ 004bdafc     LIBCMT:getqloc.obj
 0002:00003b0c       ??_C@_06KFFJ@slovak?$AA@   004bdb0c     LIBCMT:getqloc.obj
 0002:00003b14       ??_C@_0M@NMAC@puerto?9rico?$AA@ 004bdb14     LIBCMT:getqloc.obj
 0002:00003b20       ??_C@_08EJOH@pr?9china?$AA@ 004bdb20     LIBCMT:getqloc.obj
 0002:00003b2c       ??_C@_08CHMG@pr?5china?$AA@ 004bdb2c     LIBCMT:getqloc.obj
 0002:00003b38       ??_C@_02OCJK@nz?$AA@       004bdb38     LIBCMT:getqloc.obj
 0002:00003b3c       ??_C@_0M@MMKA@new?9zealand?$AA@ 004bdb3c     LIBCMT:getqloc.obj
 0002:00003b48       ??_C@_09MGEH@hong?9kong?$AA@ 004bdb48     LIBCMT:getqloc.obj
 0002:00003b54       ??_C@_07CCAK@holland?$AA@  004bdb54     LIBCMT:getqloc.obj
 0002:00003b5c       ??_C@_0O@MEPL@great?5britain?$AA@ 004bdb5c     LIBCMT:getqloc.obj
 0002:00003b6c       ??_C@_07LGIB@england?$AA@  004bdb6c     LIBCMT:getqloc.obj
 0002:00003b74       ??_C@_05BMOA@czech?$AA@    004bdb74     LIBCMT:getqloc.obj
 0002:00003b7c       ??_C@_05NMPB@china?$AA@    004bdb7c     LIBCMT:getqloc.obj
 0002:00003b84       ??_C@_07GN@britain?$AA@    004bdb84     LIBCMT:getqloc.obj
 0002:00003b8c       ??_C@_07DLAK@america?$AA@  004bdb8c     LIBCMT:getqloc.obj
 0002:00003b94       ??_C@_03IPEP@usa?$AA@      004bdb94     LIBCMT:getqloc.obj
 0002:00003b98       ??_C@_02PILH@us?$AA@       004bdb98     LIBCMT:getqloc.obj
 0002:00003b9c       ??_C@_02FHP@uk?$AA@        004bdb9c     LIBCMT:getqloc.obj
 0002:00003ba0       ??_C@_05DEAI@swiss?$AA@    004bdba0     LIBCMT:getqloc.obj
 0002:00003ba8       ??_C@_0BA@LIAF@swedish?9finland?$AA@ 004bdba8     LIBCMT:getqloc.obj
 0002:00003bb8       ??_C@_0BC@FMEG@spanish?9venezuela?$AA@ 004bdbb8     LIBCMT:getqloc.obj
 0002:00003bcc       ??_C@_0BA@BNMG@spanish?9uruguay?$AA@ 004bdbcc     LIBCMT:getqloc.obj
 0002:00003bdc       ??_C@_0BE@BKDJ@spanish?9puerto?5rico?$AA@ 004bdbdc     LIBCMT:getqloc.obj
 0002:00003bf0       ??_C@_0N@JIBL@spanish?9peru?$AA@ 004bdbf0     LIBCMT:getqloc.obj
 0002:00003c00       ??_C@_0BB@OGOF@spanish?9paraguay?$AA@ 004bdc00     LIBCMT:getqloc.obj
 0002:00003c14       ??_C@_0P@LLFA@spanish?9panama?$AA@ 004bdc14     LIBCMT:getqloc.obj
 0002:00003c24       ??_C@_0BC@BBJM@spanish?9nicaragua?$AA@ 004bdc24     LIBCMT:getqloc.obj
 0002:00003c38       ??_C@_0P@NJBN@spanish?9modern?$AA@ 004bdc38     LIBCMT:getqloc.obj
 0002:00003c48       ??_C@_0BA@NHDN@spanish?9mexican?$AA@ 004bdc48     LIBCMT:getqloc.obj
 0002:00003c58       ??_C@_0BB@JHOJ@spanish?9honduras?$AA@ 004bdc58     LIBCMT:getqloc.obj
 0002:00003c6c       ??_C@_0BC@BOOM@spanish?9guatemala?$AA@ 004bdc6c     LIBCMT:getqloc.obj
 0002:00003c80       ??_C@_0BE@EELI@spanish?9el?5salvador?$AA@ 004bdc80     LIBCMT:getqloc.obj
 0002:00003c94       ??_C@_0BA@POAE@spanish?9ecuador?$AA@ 004bdc94     LIBCMT:getqloc.obj
 0002:00003ca4       ??_C@_0BL@LDKN@spanish?9dominican?5republic?$AA@ 004bdca4     LIBCMT:getqloc.obj
 0002:00003cc0       ??_C@_0BD@HPMH@spanish?9costa?5rica?$AA@ 004bdcc0     LIBCMT:getqloc.obj
 0002:00003cd4       ??_C@_0BB@NDDK@spanish?9colombia?$AA@ 004bdcd4     LIBCMT:getqloc.obj
 0002:00003ce8       ??_C@_0O@BJHA@spanish?9chile?$AA@ 004bdce8     LIBCMT:getqloc.obj
 0002:00003cf8       ??_C@_0BA@OBNG@spanish?9bolivia?$AA@ 004bdcf8     LIBCMT:getqloc.obj
 0002:00003d08       ??_C@_0BC@EFAM@spanish?9argentina?$AA@ 004bdd08     LIBCMT:getqloc.obj
 0002:00003d1c       ??_C@_0BF@KMMM@portuguese?9brazilian?$AA@ 004bdd1c     LIBCMT:getqloc.obj
 0002:00003d34       ??_C@_0BC@BAAE@norwegian?9nynorsk?$AA@ 004bdd34     LIBCMT:getqloc.obj
 0002:00003d48       ??_C@_0BB@PBHK@norwegian?9bokmal?$AA@ 004bdd48     LIBCMT:getqloc.obj
 0002:00003d5c       ??_C@_09EHKL@norwegian?$AA@ 004bdd5c     LIBCMT:getqloc.obj
 0002:00003d68       ??_C@_0O@BEAN@italian?9swiss?$AA@ 004bdd68     LIBCMT:getqloc.obj
 0002:00003d78       ??_C@_0O@OIFK@irish?9english?$AA@ 004bdd78     LIBCMT:getqloc.obj
 0002:00003d88       ??_C@_0N@NBPL@german?9swiss?$AA@ 004bdd88     LIBCMT:getqloc.obj
 0002:00003d98       ??_C@_0BC@ICFJ@german?9luxembourg?$AA@ 004bdd98     LIBCMT:getqloc.obj
 0002:00003dac       ??_C@_0BE@GGPC@german?9lichtenstein?$AA@ 004bddac     LIBCMT:getqloc.obj
 0002:00003dc0       ??_C@_0BA@MKDC@german?9austrian?$AA@ 004bddc0     LIBCMT:getqloc.obj
 0002:00003dd0       ??_C@_0N@ODNB@french?9swiss?$AA@ 004bddd0     LIBCMT:getqloc.obj
 0002:00003de0       ??_C@_0BC@MGCM@french?9luxembourg?$AA@ 004bdde0     LIBCMT:getqloc.obj
 0002:00003df4       ??_C@_0BA@NABK@french?9canadian?$AA@ 004bddf4     LIBCMT:getqloc.obj
 0002:00003e04       ??_C@_0P@CJNO@french?9belgian?$AA@ 004bde04     LIBCMT:getqloc.obj
 0002:00003e14       ??_C@_0M@LJOL@english?9usa?$AA@ 004bde14     LIBCMT:getqloc.obj
 0002:00003e20       ??_C@_0L@FMNC@english?9us?$AA@ 004bde20     LIBCMT:getqloc.obj
 0002:00003e2c       ??_C@_0L@KBBK@english?9uk?$AA@ 004bde2c     LIBCMT:getqloc.obj
 0002:00003e38       ??_C@_0BK@NDDE@english?9trinidad?5y?5tobago?$AA@ 004bde38     LIBCMT:getqloc.obj
 0002:00003e54       ??_C@_0BF@LKML@english?9south?5africa?$AA@ 004bde54     LIBCMT:getqloc.obj
 0002:00003e6c       ??_C@_0L@EGPP@english?9nz?$AA@ 004bde6c     LIBCMT:getqloc.obj
 0002:00003e78       ??_C@_0BA@HLH@english?9jamaica?$AA@ 004bde78     LIBCMT:getqloc.obj
 0002:00003e88       ??_C@_0M@PMJI@english?9ire?$AA@ 004bde88     LIBCMT:getqloc.obj
 0002:00003e94       ??_C@_0BC@HINE@english?9caribbean?$AA@ 004bde94     LIBCMT:getqloc.obj
 0002:00003ea8       ??_C@_0M@DCFH@english?9can?$AA@ 004bdea8     LIBCMT:getqloc.obj
 0002:00003eb4       ??_C@_0P@DGHK@english?9belize?$AA@ 004bdeb4     LIBCMT:getqloc.obj
 0002:00003ec4       ??_C@_0M@FLHK@english?9aus?$AA@ 004bdec4     LIBCMT:getqloc.obj
 0002:00003ed0       ??_C@_0BB@HNCK@english?9american?$AA@ 004bded0     LIBCMT:getqloc.obj
 0002:00003ee4       ??_C@_0O@PAMI@dutch?9belgian?$AA@ 004bdee4     LIBCMT:getqloc.obj
 0002:00003ef4       ??_C@_0BE@FPEJ@chinese?9traditional?$AA@ 004bdef4     LIBCMT:getqloc.obj
 0002:00003f08       ??_C@_0BC@CHFL@chinese?9singapore?$AA@ 004bdf08     LIBCMT:getqloc.obj
 0002:00003f1c       ??_C@_0BD@DCMH@chinese?9simplified?$AA@ 004bdf1c     LIBCMT:getqloc.obj
 0002:00003f30       ??_C@_0BB@JMOE@chinese?9hongkong?$AA@ 004bdf30     LIBCMT:getqloc.obj
 0002:00003f44       ??_C@_07NGFN@chinese?$AA@  004bdf44     LIBCMT:getqloc.obj
 0002:00003f4c       ??_C@_03PCOI@chi?$AA@      004bdf4c     LIBCMT:getqloc.obj
 0002:00003f50       ??_C@_03FIHP@chh?$AA@      004bdf50     LIBCMT:getqloc.obj
 0002:00003f54       ??_C@_08HFLO@canadian?$AA@ 004bdf54     LIBCMT:getqloc.obj
 0002:00003f60       ??_C@_07INIJ@belgian?$AA@  004bdf60     LIBCMT:getqloc.obj
 0002:00003f68       ??_C@_0L@LCCA@australian?$AA@ 004bdf68     LIBCMT:getqloc.obj
 0002:00003f74       ??_C@_0BB@BJIO@american?9english?$AA@ 004bdf74     LIBCMT:getqloc.obj
 0002:00003f88       ??_C@_0BB@DAGO@american?5english?$AA@ 004bdf88     LIBCMT:getqloc.obj
 0002:00003f9c       ??_C@_08HENB@american?$AA@ 004bdf9c     LIBCMT:getqloc.obj
 0002:00003fa8       ??_C@_03DGJE@OCP?$AA@      004bdfa8     LIBCMT:getqloc.obj
 0002:00003fac       ??_C@_03EKFG@ACP?$AA@      004bdfac     LIBCMT:getqloc.obj
 0002:00003fb0       ??_C@_06PAPI@1?$CDQNAN?$AA@ 004bdfb0     LIBCMT:x10fout.obj
 0002:00003fb8       ??_C@_05BGNL@1?$CDINF?$AA@ 004bdfb8     LIBCMT:x10fout.obj
 0002:00003fc0       ??_C@_05EDPF@1?$CDIND?$AA@ 004bdfc0     LIBCMT:x10fout.obj
 0002:00003fc8       ??_C@_06LKFM@1?$CDSNAN?$AA@ 004bdfc8     LIBCMT:x10fout.obj
 0002:00004008       ??_R1A@?0A@A@exception@@8  004be008     libcpmt:string.obj
 0002:00004020       ??_R1A@?0A@A@logic_error@std@@8 004be020     libcpmt:string.obj
 0002:00004038       ??_R1A@?0A@A@length_error@std@@8 004be038     libcpmt:string.obj
 0002:00004050       ??_R2length_error@std@@8   004be050     libcpmt:string.obj
 0002:00004060       ??_R3length_error@std@@8   004be060     libcpmt:string.obj
 0002:00004070       ??_R4length_error@std@@6B@ 004be070     libcpmt:string.obj
 0002:00004088       ??_R2logic_error@std@@8    004be088     libcpmt:string.obj
 0002:00004098       ??_R3logic_error@std@@8    004be098     libcpmt:string.obj
 0002:000040a8       ??_R4logic_error@std@@6B@  004be0a8     libcpmt:string.obj
 0002:000040c0       ??_R1A@?0A@A@out_of_range@std@@8 004be0c0     libcpmt:string.obj
 0002:000040d8       ??_R2out_of_range@std@@8   004be0d8     libcpmt:string.obj
 0002:000040e8       ??_R3out_of_range@std@@8   004be0e8     libcpmt:string.obj
 0002:000040f8       ??_R4out_of_range@std@@6B@ 004be0f8     libcpmt:string.obj
 0002:00004110       ??_R1A@?0A@A@type_info@@8  004be110     LIBCMT:typinfo.obj
 0002:00004128       ??_R2type_info@@8          004be128     LIBCMT:typinfo.obj
 0002:00004130       ??_R3type_info@@8          004be130     LIBCMT:typinfo.obj
 0002:00004140       ??_R4type_info@@6B@        004be140     LIBCMT:typinfo.obj
 0002:00004154       ??_R2exception@@8          004be154     LIBCMT:stdexcpt.obj
 0002:00004160       ??_R3exception@@8          004be160     LIBCMT:stdexcpt.obj
 0002:00004170       ??_R4exception@@6B@        004be170     LIBCMT:stdexcpt.obj
 0002:00006fd0       __CT??_R0H@84              004c0fd0     KThread.obj
 0002:00006ff0       __CTA1H                    004c0ff0     KThread.obj
 0002:00006ff8       __TI1H                     004c0ff8     KThread.obj
 0002:00008590       __CT??_R0?AVexception@@@8??0exception@@QAE@ABV0@@Z12 004c2590     libcpmt:string.obj
 0002:000085b0       __CT??_R0?AVlogic_error@std@@@8??0logic_error@std@@QAE@ABV01@@Z28 004c25b0     libcpmt:string.obj
 0002:000085d0       __CT??_R0?AVlength_error@std@@@8??0length_error@std@@QAE@ABV01@@Z28 004c25d0     libcpmt:string.obj
 0002:000085f0       __CTA3?AVlength_error@std@@ 004c25f0     libcpmt:string.obj
 0002:00008600       __TI3?AVlength_error@std@@ 004c2600     libcpmt:string.obj
 0002:00008660       __CTA2?AVlogic_error@std@@ 004c2660     libcpmt:string.obj
 0002:00008670       __TI2?AVlogic_error@std@@  004c2670     libcpmt:string.obj
 0002:000086f8       __CT??_R0?AVout_of_range@std@@@8??0out_of_range@std@@QAE@ABV01@@Z28 004c26f8     libcpmt:string.obj
 0002:00008718       __CTA3?AVout_of_range@std@@ 004c2718     libcpmt:string.obj
 0002:00008728       __TI3?AVout_of_range@std@@ 004c2728     libcpmt:string.obj
 0002:00008788       __IMPORT_DESCRIPTOR_KERNEL32 004c2788     kernel32:KERNEL32.dll
 0002:0000879c       __IMPORT_DESCRIPTOR_USER32 004c279c     user32:USER32.dll
 0002:000087b0       __IMPORT_DESCRIPTOR_WS2_32 004c27b0     Ws2_32:WS2_32.dll
 0002:000087c4       __IMPORT_DESCRIPTOR_LuaLibDll 004c27c4     lualibdll:LuaLibDll.dll
 0002:000087d8       __IMPORT_DESCRIPTOR_Engine 004c27d8     engine:Engine.dll
 0002:000087ec       __NULL_IMPORT_DESCRIPTOR   004c27ec     kernel32:KERNEL32.dll
 0003:00000000       ___xc_a                    004c4000     LIBCMT:crt0init.obj
 0003:00000114       ___xc_z                    004c4114     LIBCMT:crt0init.obj
 0003:00000118       ___xi_a                    004c4118     LIBCMT:crt0init.obj
 0003:0000012c       ___xi_z                    004c412c     LIBCMT:crt0init.obj
 0003:00000130       ___xp_a                    004c4130     LIBCMT:crt0init.obj
 0003:00000138       ___xp_z                    004c4138     LIBCMT:crt0init.obj
 0003:0000013c       ___xt_a                    004c413c     LIBCMT:crt0init.obj
 0003:00000144       ___xt_z                    004c4144     LIBCMT:crt0init.obj
 0003:00000150       ??_C@_0CC@IGPM@Create?5Channel?3?5?$FLStock?$FN?5?$DM?$CF08X?$DO?5?$CF@ 004c4150     ChannelMgr.obj
 0003:00000174       ??_C@_0CG@CBKL@Create?5Channel?3?5?$FLStock?0?5GM?$FN?5?$DM?$CF08@ 004c4174     ChannelMgr.obj
 0003:0000019c       ??_C@_0BN@LLPJ@GM?5Create?5Channel?3?5?$DM?$CF08X?$DO?5?$CFs?$AA@ 004c419c     ChannelMgr.obj
 0003:000001bc       ??_C@_0BO@KDGM@GM?5Destroy?5Channel?3?5?$DM?$CF08X?$DO?5?$CFs?$AA@ 004c41bc     ChannelMgr.obj
 0003:000001dc       ??_C@_0BK@GOHM@Create?5Channel?3?5?$DM?$CF08X?$DO?5?$CFs?$AA@ 004c41dc     ChannelMgr.obj
 0003:000001f8       ??_C@_0CG@LONH@Query?5ChannelID?3?5?$CFs?5from?5?$CI?$CF08X?0?5@ 004c41f8     ChannelMgr.obj
 0003:00000220       ??_C@_0CH@GEGC@Subscribe?5Channel?3?5?$CF08X?5by?5?$CI?$CF08X@ 004c4220     ChannelMgr.obj
 0003:00000248       ??_C@_0CM@DGJG@Subscribe?5Channel?3?5GM?5?$DM?$CF08X?$DO?5by?5@ 004c4248     ChannelMgr.obj
 0003:00000274       ??_C@_0CJ@KLDP@Unsubscribe?5Channel?3?5?$CF08X?5by?5?$CI?$CF0@ 004c4274     ChannelMgr.obj
 0003:000002a0       ??_C@_0BL@EKLJ@Destroy?5Channel?3?5?$DM?$CF08X?$DO?5?$CFs?$AA@ 004c42a0     ChannelMgr.obj
 0003:000002bc       ??_C@_0CJ@JKBC@Free?5ChannelID?3?5?$DM?$CF08X?$DO?5from?5?$CI?$CF08@ 004c42bc     ChannelMgr.obj
 0003:000002e8       ??_C@_0BI@IGA@chat?5connect?5create?3?5?$CFs?$AA@ 004c42e8     ChatConnect.obj
 0003:00000300       ??_C@_0BH@HLLE@chat?5connect?5close?3?5?$CFs?$AA@ 004c4300     ChatConnect.obj
 0003:00000318       ??_C@_0BE@LGAL@chat?5server?5startup?$AA@ 004c4318     ChatServer.obj
 0003:0000032c       ??_C@_0BF@DNCG@chat?5server?5shutdown?$AA@ 004c432c     ChatServer.obj
 0003:00000344       ??_C@_04CLEA@?$CF08X?$AA@  004c4344     ChatServer.obj
 0003:0000034c       ??_C@_02GIEM@?0?5?$AA@     004c434c     ChatServer.obj
 0003:00000350       ??_C@_0P@PEOM@?$DMtotal?3?5?$CFd?$DO?5?3?5?$AA@ 004c4350     ChatServer.obj
 0003:00000360       ??_C@_0BH@IBGE@message?3?5?$FLChatServer?$FN?5?$AA@ 004c4360     ChatServer.obj
 0003:00000378       ??_C@_0BJ@OCGD@message?3?5?$FLDBRoleCenter?$FN?5?$AA@ 004c4378     DBConnect.obj
 0003:00000394       ??_C@_0BJ@BKEK@DBRole?5client?5create?3?5?$CFs?$AA@ 004c4394     DBConnect.obj
 0003:000003b0       ??_C@_0BI@FBPN@DBRole?5client?5close?3?5?$CFs?$AA@ 004c43b0     DBConnect.obj
 0003:000003c8       ??_C@_02NGAF@wb?$AA@       004c43c8     DBDumpLoad.obj
 0003:000003cc       ??_C@_02JKAF@rb?$AA@       004c43cc     DBDumpLoad.obj
 0003:000003d0       ??_C@_08MIND@index_db?$AA@ 004c43d0     DBTable.obj
 0003:000003dc       ??_C@_01PCFE@?2?$AA@       004c43dc     DBTable.obj
 0003:000003e0       ??_C@_05BKDD@?$CFs?4?$CFd?$AA@ 004c43e0     DBTable.obj
 0003:000003e8       ?GameScriptFuns@@3PAUTLua_Funcs@@A 004c43e8     DoScript.obj
 0003:00000408       ??_C@_05IMNH@GetIP?$AA@    004c4408     DoScript.obj
 0003:00000410       ??_C@_06CPOM@Msg2IP?$AA@   004c4410     DoScript.obj
 0003:00000418       ??_C@_0M@DHBO@GameExecute?$AA@ 004c4418     DoScript.obj
 0003:00000424       ??_C@_0O@ECJC@GlobalExecute?$AA@ 004c4424     DoScript.obj
 0003:00000434       ??_C@_02DKED@GM?$AA@       004c4434     DoScript.obj
 0003:00000438       ??_C@_07IJDM@0?40?40?40?$AA@ 004c4438     DoScript.obj
 0003:00000454       ??_C@_0BK@JFP@sync?5friend?5list?3?5?$CFs?5?$CI?$CFs?$CJ?$AA@ 004c4454     FriendMgr.obj
 0003:00000470       ??_C@_04PCII@part?$AA@     004c4470     FriendMgr.obj
 0003:00000478       ??_C@_04EELP@full?$AA@     004c4478     FriendMgr.obj
 0003:00000480       ??_C@_0BL@CLN@Player?5Add?5Friend?3?5?$CFs?5?$FL?$CFs?$FN?$AA@ 004c4480     FriendMgr.obj
 0003:0000049c       ??_C@_0BL@LAAF@Player?5Del?5Friend?3?5?$CFs?5?$FL?$CFs?$FN?$AA@ 004c449c     FriendMgr.obj
 0003:000004b8       ??_C@_0CC@LJNJ@Player?5Group?5Friend?3?5?$CFs?5?$FL?$CFs?$FN?5?$CI?$CFs@ 004c44b8     FriendMgr.obj
 0003:000004dc       ??_C@_0BO@NDGG@except?3?5load?5someone?5fail?3?5?$CFs?$AA@ 004c44dc     FriendMgr.obj
 0003:000004fc       ??_C@_0BB@IDJM@load?5someone?3?5?$CFs?$AA@ 004c44fc     FriendMgr.obj
 0003:00000510       ??_C@_0BJ@JFMF@error?3?5store?5someone?3?5?$CFs?$AA@ 004c4510     FriendMgr.obj
 0003:0000052c       ??_C@_0BC@PHBN@store?5someone?3?5?$CFs?$AA@ 004c452c     FriendMgr.obj
 0003:00000540       ??_C@_0CE@MAGK@except?3?5store?5someone?5outof?5mem?3@ 004c4540     FriendMgr.obj
 0003:00000564       ??_C@_0CA@EILE@error?3?5bkgrnp?5store?5someone?3?5?$CFs?$AA@ 004c4564     FriendMgr.obj
 0003:00000584       ??_C@_0CN@PPMK@Player?5Associate?3?5?$CFs?5?$FL?$CFs?$FN?5on?5?$DM?$CFs@ 004c4584     FriendMgr.obj
 0003:000005b4       ??_C@_0CC@GNK@Players?5AssociateBevy?3?5?$CFu?5on?5?$DM?$CFs@ 004c45b4     FriendMgr.obj
 0003:000005d8       ??_C@_0BK@IMKA@message?3?5?$FLGatewayCenter?$FN?5?$AA@ 004c45d8     GatewayCenter.obj
 0003:000005f4       ??_C@_0BK@LMON@gateway?5client?5create?3?5?$CFs?$AA@ 004c45f4     GatewayClient.obj
 0003:00000610       ??_C@_0BJ@PGBA@gateway?5client?5close?3?5?$CFs?$AA@ 004c4610     GatewayClient.obj
 0003:0000062c       ??_C@_0CC@JDBN@FAIL?3?5tong?5database?5open?5error?$CB?$CB@ 004c462c     Global.obj
 0003:00000650       ??_C@_0BM@BPEF@FAIL?3?5tongset?5init?5error?$CB?$CB?$CB?$AA@ 004c4650     Global.obj
 0003:0000066c       ??_C@_0BC@INOK@tongset?5init?5ok?5?$CB?$AA@ 004c466c     Global.obj
 0003:00000680       ??_C@_0BH@EHAF@tong?5database?5open?5ok?$CB?$AA@ 004c4680     Global.obj
 0003:00000698       ??_C@_0BC@DMPE@FAIL?3?5chat?5server?$AA@ 004c4698     Global.obj
 0003:000006ac       ??_C@_0BC@KJML@FAIL?3?5tong?5server?$AA@ 004c46ac     Global.obj
 0003:000006c0       ??_C@_0BC@FIEH@FAIL?3?5host?5server?$AA@ 004c46c0     Global.obj
 0003:000006d4       ??_C@_0BK@KDLB@FAIL?3?5gateway?5client?5?9?5?$CFs?$AA@ 004c46d4     Global.obj
 0003:000006f0       ??_C@_0BJ@DAOK@FAIL?3?5DBRole?5client?5?9?5?$CFs?$AA@ 004c46f0     Global.obj
 0003:0000070c       ??_C@_0BH@PBNN@FAIL?3?5root?5client?5?9?5?$CFs?$AA@ 004c470c     Global.obj
 0003:00000724       ??_C@_0BD@MEOP@FAIL?3?5relay?5server?$AA@ 004c4724     Global.obj
 0003:00000738       ??_C@_0BA@NLGN@GetAdaptersInfo?$AA@ 004c4738     Global.obj
 0003:00000748       ??_C@_0N@JPOB@iphlpapi?4dll?$AA@ 004c4748     Global.obj
 0003:00000758       ??_C@_0BH@LGJA@disable?5reclient?3?5root?$AA@ 004c4758     Global.obj
 0003:00000770       ??_C@_0BK@BGDA@disable?5reclient?3?5gateway?$AA@ 004c4770     Global.obj
 0003:0000078c       ??_C@_0BF@PDJC@disable?5reclient?3?5db?$AA@ 004c478c     Global.obj
 0003:000007a4       ??_C@_0BG@IFMO@enable?5reclient?3?5root?$AA@ 004c47a4     Global.obj
 0003:000007bc       ??_C@_0BL@PGJH@FAIL?3?5enable?5root?5reclient?$AA@ 004c47bc     Global.obj
 0003:000007d8       ??_C@_0BJ@IJMD@enable?5reclient?3?5gateway?$AA@ 004c47d8     Global.obj
 0003:000007f4       ??_C@_0BO@GNCJ@FAIL?3?5enable?5gateway?5reclient?$AA@ 004c47f4     Global.obj
 0003:00000814       ??_C@_0BE@MGBC@enable?5reclient?3?5db?$AA@ 004c4814     Global.obj
 0003:00000828       ??_C@_0BJ@BEHJ@FAIL?3?5enable?5db?5reclient?$AA@ 004c4828     Global.obj
 0003:00000844       ??_C@_0BJ@PMHE@FAIL?3?5reclient?5root?5?9?5?$CFs?$AA@ 004c4844     Global.obj
 0003:00000860       ??_C@_0BI@JGPE@try?5reclient?3?5root?5?9?5?$CFs?$AA@ 004c4860     Global.obj
 0003:00000878       ??_C@_0BM@FNMJ@FAIL?3?5reclient?5gateway?5?9?5?$CFs?$AA@ 004c4878     Global.obj
 0003:00000894       ??_C@_0BL@FFDD@try?5reclient?3?5gateway?5?9?5?$CFs?$AA@ 004c4894     Global.obj
 0003:000008b0       ??_C@_0BH@PHIH@FAIL?3?5reclient?5db?5?9?5?$CFs?$AA@ 004c48b0     Global.obj
 0003:000008c8       ??_C@_0BG@LELF@try?5reclient?3?5db?5?9?5?$CFs?$AA@ 004c48c8     Global.obj
 0003:000008e0       ??_C@_0BP@FEON@friend?5timing?5update?5db?3?5start?$AA@ 004c48e0     Global.obj
 0003:00000900       ??_C@_0CE@CLFO@FAIL?3?5start?5friend?5timing?5update@ 004c4900     Global.obj
 0003:00000924       ??_C@_0BO@HGLN@friend?5timing?5update?5db?3?5stop?$AA@ 004c4924     Global.obj
 0003:00000944       ??_C@_0BJ@MPPK@update?5friend?5DB?5succeed?$AA@ 004c4944     Global.obj
 0003:00000960       ??_C@_0BP@MAOM@warning?3?5update?5friend?5DB?5fail?$AA@ 004c4960     Global.obj
 0003:00000980       ??_C@_0BA@PKLD@CreateInterface?$AA@ 004c4980     HeavenLib.obj
 0003:00000990       ??_C@_0L@MDPN@heaven?4dll?$AA@ 004c4990     HeavenLib.obj
 0003:0000099c       ??_C@_0CD@GOM@player?5login?3?5?$CFs?5?$FL?$CFs?$FN?5?$CI?$CF08X?0?5?$CF08@ 004c499c     HostConnect.obj
 0003:000009c0       ??_C@_0BC@KFKB@player?5logout?3?5?$CFs?$AA@ 004c49c0     HostConnect.obj
 0003:000009d4       ??_C@_0BI@BDJC@host?5connect?5create?3?5?$CFs?$AA@ 004c49d4     HostConnect.obj
 0003:000009ec       ??_C@_0BH@IJFA@host?5connect?5close?3?5?$CFs?$AA@ 004c49ec     HostConnect.obj
 0003:00000a04       ??_C@_0BE@IHAJ@host?5server?5startup?$AA@ 004c4a04     HostServer.obj
 0003:00000a18       ??_C@_0BF@GIBH@host?5server?5shutdown?$AA@ 004c4a18     HostServer.obj
 0003:00000a30       ??_C@_0BH@COAA@message?3?5?$FLHostServer?$FN?5?$AA@ 004c4a30     HostServer.obj
 0003:00000a48       ??_C@_0N@OFPH@?5?$DMtotal?3?5?$CFd?$DO?$AA@ 004c4a48     HostServer.obj
 0003:00000a58       ??_C@_08GCI@?$CF08X?3?5?$CFd?$AA@ 004c4a58     HostServer.obj
 0003:00000a64       ??_C@_0BF@HIIA@message?3?5?$FLPlayer?$FN?5?3?5?$AA@ 004c4a64     HostServer.obj
 0003:00000a80       ??_R0H@8                   004c4a80     KThread.obj
 0003:00000a8c       ??_C@_0BF@MAEP@?2?$CF02d_?$CF02d_?$CF02d_?$CF03d?$AA@ 004c4a8c     LogFile.obj
 0003:00000aa4       ??_C@_0P@HECP@?$CF04d_?$CF02d_?$CF02d?$AA@ 004c4aa4     LogFile.obj
 0003:00000ab4       ??_C@_0CF@DFLO@warning?3?5unexpected?5repeated?5con@ 004c4ab4     NetServer.obj
 0003:00000adc       ??_C@_0BM@KIP@error?3?5connect?5initial?5fail?$AA@ 004c4adc     NetServer.obj
 0003:00000af8       ??_C@_0M@GJAN@rainbow?4dll?$AA@ 004c4af8     RainbowLib.obj
 0003:00000b04       ??_C@_0BI@JJFD@message?3?5?$FLRelayCenter?$FN?5?$AA@ 004c4b04     RelayCenter.obj
 0003:00000b1c       ??_C@_0BO@NGOD@relay?5client?5startup?5fail?3?5?$CFs?$AA@ 004c4b1c     RelayClient.obj
 0003:00000b3c       ??_C@_0BP@INLH@relay?5client?5shutdown?5fail?3?5?$CFs?$AA@ 004c4b3c     RelayClient.obj
 0003:00000b5c       ??_C@_0BI@FLKA@relay?5client?5create?3?5?$CFs?$AA@ 004c4b5c     RelayClient.obj
 0003:00000b74       ??_C@_0BH@LLGI@relay?5client?5close?3?5?$CFs?$AA@ 004c4b74     RelayClient.obj
 0003:00000b8c       ??_C@_0BJ@JGHP@relay?5connect?5create?3?5?$CFs?$AA@ 004c4b8c     RelayConnect.obj
 0003:00000ba8       ??_C@_0BI@GENN@relay?5connect?5close?3?5?$CFs?$AA@ 004c4ba8     RelayConnect.obj
 0003:00000bc0       ??_C@_0BF@HFCA@relay?5server?5startup?$AA@ 004c4bc0     RelayServer.obj
 0003:00000bd8       ??_C@_0BG@PEOF@relay?5server?5shutdown?$AA@ 004c4bd8     RelayServer.obj
 0003:00000bf0       ??_C@_0BI@PKHD@message?3?5?$FLRelayServer?$FN?5?$AA@ 004c4bf0     RelayServer.obj
 0003:00000c08       ??_C@_0BH@JKDG@message?3?5?$FLRootCenter?$FN?5?$AA@ 004c4c08     RootCenter.obj
 0003:00000c20       ??_C@_0BH@FBGC@root?5client?5create?3?5?$CFs?$AA@ 004c4c20     RootClient.obj
 0003:00000c38       ??_C@_0BG@HJPE@root?5client?5close?3?5?$CFs?$AA@ 004c4c38     RootClient.obj
 0003:00000c50       ??_C@_0BN@CKOJ@start?5autotimer?5for?5Ping?3?5?$CFs?$AA@ 004c4c50     RootClient.obj
 0003:00000c70       ??_C@_0BM@BECN@stop?5autotimer?5for?5Ping?3?5?$CFs?$AA@ 004c4c70     RootClient.obj
 0003:00000c8c       ??_C@_0BF@LPCG@root?5client?5ping?3?5?$CFs?$AA@ 004c4c8c     RootClient.obj
 0003:00000ca4       ??_C@_0CB@ILBN@warning?3?5root?5client?5timeout?3?5?$CFs@ 004c4ca4     RootClient.obj
 0003:00000cc8       ??_C@_0BO@OHKC@error?3?5relay?5client?5error?3?5?$CFs?$AA@ 004c4cc8     RootClient.obj
 0003:00000ce8       ??_C@_0BJ@MBBL@relay?5client?5attempt?3?5?$CFs?$AA@ 004c4ce8     RootClient.obj
 0003:00000d04       ??_C@_0CA@OMCL@warning?3?5relay?5client?5exist?3?5?$CFs?$AA@ 004c4d04     RootClient.obj
 0003:00000d24       ??_C@_06LMAA@GM?5get?$AA@  004c4d24     RootClient.obj
 0003:00000d2c       ??_C@_01FBAH@1?$AA@        004c4d2c     RootClient.obj
 0003:00000d30       ??_C@_0BA@FHKA@X?5state?5occur?5?$CB?$AA@ 004c4d30     S3Relay.obj
 0003:00000d40       ??_C@_0EM@HJDI@?$AN?6?$CK?$AN?6?$CK?$CK?$CK?$CK?$CK?5S3Relay?5Stop?5?$CI?$EA?5?$CF04d?1@ 004c4d40     S3Relay.obj
 0003:00000d8c       ??_C@_0EN@LEML@?$AN?6?$CK?$AN?6?$CK?$CK?$CK?$CK?$CK?5S3Relay?5Start?5?$CI?$EA?5?$CF04d@ 004c4d8c     S3Relay.obj
 0003:00000ddc       ??_C@_0BK@JAHP@Initializing?5LogFile?5fail?$AA@ 004c4ddc     S3Relay.obj
 0003:00000df8       ??_C@_05COLM@error?$AA@    004c4df8     S3Relay.obj
 0003:00000e00       ??_C@_06OGMH@?$CFd?5?9?9?5?$AA@ 004c4e00     S3Relay.obj
 0003:00000e08       ??_C@_0CC@MLH@?$FL?$CF04d?1?$CF02d?1?$CF02d?5?$CF02d?3?$CF02d?3?$CF02d?$FN?$CF@ 004c4e08     S3Relay.obj
 0003:00000e2c       ??_C@_02PIMC@?$AN?6?$AA@   004c4e2c     S3Relay.obj
 0003:00000e30       ??_C@_01FCOA@?5?$AA@       004c4e30     S3Relay.obj
 0003:00000e34       ??_C@_07NOMM@ListBox?$AA@  004c4e34     S3Relay.obj
 0003:00000e3c       ??_C@_03GCM@Out?$AA@       004c4e3c     S3Relay.obj
 0003:00000e40       ??_C@_0BJ@PFPE@message?3?5friend?5AFQS?3?5?$CFd?$AA@ 004c4e40     S3Relay.obj
 0003:00000e5c       ??_C@_0CB@LNIA@message?3?5friend?5player?5total?3?5?$CFd@ 004c4e5c     S3Relay.obj
 0003:00000e80       ??_C@_0CB@IDPJ@message?3?5online?5player?5total?3?5?$CFd@ 004c4e80     S3Relay.obj
 0003:00000ea4       ??_C@_0CF@MOK@message?3?5localMAC?3?5?$CFs?0?5globalMAC@ 004c4ea4     S3Relay.obj
 0003:00000ecc       ??_C@_04LDEB@?$CF02X?$AA@  004c4ecc     S3Relay.obj
 0003:00000ed4       ??_C@_0DP@HLJC@message?3?5?$FL2?$FN?5HostConnect?3?5?$CFd?0?5Ch@ 004c4ed4     S3Relay.obj
 0003:00000f14       ??_C@_0CP@BIGE@message?3?5?$FL1?$FN?5RelayClient?3?5?$CFd?0?5Re@ 004c4f14     S3Relay.obj
 0003:00000f44       ??_C@_0EB@GKID@message?3?5?$FL0?$FN?5RootClient?3?5?$CFd?0?5Gat@ 004c4f44     S3Relay.obj
 0003:00000f88       ??_C@_0DF@CEDK@message?3?5localIP?3?50x?$CF08X?5?$CI?$CFs?$CJ?0?5g@ 004c4f88     S3Relay.obj
 0003:00000fc0       ??_C@_0BH@BKD@error?3?5Initialize?5FAIL?$AA@ 004c4fc0     S3Relay.obj
 0003:00000fd8       ??_C@_0O@OANN@Initialize?5OK?$AA@ 004c4fd8     S3Relay.obj
 0003:00000fe8       ??_C@_0BB@FELB@Initializing?5?4?4?4?$AA@ 004c4fe8     S3Relay.obj
 0003:00000ffc       ??_C@_0BM@A@waring?3?5already?5Initialized?$AA@ 004c4ffc     S3Relay.obj
 0003:00001018       ??_C@_0BA@FKEK@Uninitialize?5OK?$AA@ 004c5018     S3Relay.obj
 0003:00001028       ??_C@_0BD@BJAJ@Uninitializing?5?4?4?4?$AA@ 004c5028     S3Relay.obj
 0003:0000103c       ??_C@_0BO@NIHK@waring?3?5already?5Uninitialized?$AA@ 004c503c     S3Relay.obj
 0003:0000105c       ??_C@_0CI@ILIP@message?3?5recvsum?3?5?$CFld?5B?0?5sendsum@ 004c505c     S3Relay.obj
 0003:00001084       ??_C@_0P@ILLO@Are?5you?5sure?5?$DP?$AA@ 004c5084     S3Relay.obj
 0003:00001094       ??_C@_07EANM@warning?$AA@  004c5094     S3Relay.obj
 0003:000010d0       ??_C@_05BKOF@Sleep?$AA@    004c50d0     SockThread.obj
 0003:000010d8       ??_C@_09JHBB@LeaveLoop?$AA@ 004c50d8     SockThread.obj
 0003:000010e4       ??_C@_0O@PGEI@UnprepareSock?$AA@ 004c50e4     SockThread.obj
 0003:000010f4       ??_C@_0L@LJBO@ChatServer?$AA@ 004c50f4     SockThread.obj
 0003:00001100       ??_C@_0L@IGNE@TongServer?$AA@ 004c5100     SockThread.obj
 0003:0000110c       ??_C@_0L@KAG@HostServer?$AA@ 004c510c     SockThread.obj
 0003:00001118       ??_C@_0O@FLPB@GatewayCenter?$AA@ 004c5118     SockThread.obj
 0003:00001128       ??_C@_0L@GAEF@RootCenter?$AA@ 004c5128     SockThread.obj
 0003:00001134       ??_C@_0M@FGIH@RelayServer?$AA@ 004c5134     SockThread.obj
 0003:00001140       ??_C@_0M@ECFB@RelayCenter?$AA@ 004c5140     SockThread.obj
 0003:0000114c       ??_C@_0M@DKBH@PrepareSock?$AA@ 004c514c     SockThread.obj
 0003:00001158       ??_C@_09CFML@EnterLoop?$AA@ 004c5158     SockThread.obj
 0003:00001164       ??_C@_04MHIC@NONE?$AA@     004c5164     SockThread.obj
 0003:0000116c       ??_C@_0BK@DLHD@fatal?3?5sock?5thread?5except?$AA@ 004c516c     SockThread.obj
 0003:00001188       ??_C@_0BJ@ODJO@SockThread?5start?5success?$AA@ 004c5188     SockThread.obj
 0003:000011a4       ??_C@_0BH@JHEO@FAIL?3?5SockThread?5start?$AA@ 004c51a4     SockThread.obj
 0003:000011bc       ??_C@_0BI@HFAJ@SockThread?5stop?5success?$AA@ 004c51bc     SockThread.obj
 0003:000011d4       ??_C@_0BG@NFEP@FAIL?3?5SockThread?5stop?$AA@ 004c51d4     SockThread.obj
 0003:000011ec       ??_C@_0DK@CEBK@message?3?5?$FLSockThread?$FN?5tickLoop?3?5@ 004c51ec     SockThread.obj
 0003:00001228       ?g_nTongPSSize@@3PAHA      004c5228     TongConnect.obj
 0003:00001624       ??_C@_0BI@BDAK@tong?5connect?5create?3?5?$CFs?$AA@ 004c5624     TongConnect.obj
 0003:0000163c       ??_C@_0BH@BBOB@tong?5connect?5close?3?5?$CFs?$AA@ 004c563c     TongConnect.obj
 0003:00001654       ??_C@_0BE@NHHH@tong?5server?5startup?$AA@ 004c5654     TongServer.obj
 0003:00001668       ??_C@_0BF@KLEH@tong?5server?5shutdown?$AA@ 004c5668     TongServer.obj
 0003:00001680       ??_C@_0BH@HIPB@message?3?5?$FLTongServer?$FN?5?$AA@ 004c5680     TongServer.obj
 0003:00001698       ??_C@_04GKJC@?$LJ?$KL?$LI?f?$AA@ 004c5698     KTongControl.obj
 0003:000016a0       ??_C@_0BF@MFKF@?$CFs?$LB?$LL?H?N?C?$PM?N?$KK?F?U?M?$KI?$LA?o?V?Z?$KD?$KB?$AA@ 004c56a0     KTongControl.obj
 0003:000016b8       ??_C@_0BB@MFNJ@?$CFs?$LB?$LL?H?N?C?$PM?N?$KK?$LG?S?$LD?$KE?$KD?$KB?$AA@ 004c56b8     KTongControl.obj
 0003:000016cc       ??_C@_0BB@MEJ@?$CFs?$LB?$LL?H?N?C?$PM?N?$KK?$LD?$KE?$MA?O?$KD?$KB?$AA@ 004c56cc     KTongControl.obj
 0003:000016e0       ??_C@_0P@DDGP@?$CFs?$LB?$LL?H?N?C?$PM?N?$KK?$CFs?$KD?$KB?$AA@ 004c56e0     KTongControl.obj
 0003:000016f0       ??_C@_04NCML@?2O?$CFu?$AA@ 004c56f0     KTongControl.obj
 0003:000016f8       ??_C@_0L@GPNP@Truong?5Lao?$AA@ 004c56f8     KTongControl.obj
 0003:00001704       ??_C@_09JJJL@Duong?5Chu?$AA@ 004c5704     KTongControl.obj
 0003:00001710       ??_C@_0P@LHNK@?$CFs?$LB?$LL?L?$NP?$LD?v?$LA?o?$LL?a?$KD?$KB?$AA@ 004c5710     KTongControl.obj
 0003:00001720       ??_C@_0N@EKGH@?$CFs?E?Q?$LD?v?$LB?$LO?$LA?o?$KD?$KB?$AA@ 004c5720     KTongControl.obj
 0003:00001730       ??_C@_0BH@BIBP@?$CFs?$LA?Q?$LA?o?V?w?V?$KO?N?$LL?$LE?$KL?$LI?x?A?K?$CFs?$KD?$KB?$AA@ 004c5730     KTongControl.obj
 0003:00001748       ??_C@_07LELJ@Nu?5Nhan?$AA@ 004c5748     KTongSet.obj
 0003:00001750       ??_C@_08NGHN@Nam?5Nhan?$AA@ 004c5750     KTongSet.obj
 0003:0000175c       ??_C@_08OOJC@Bang?5Chu?$AA@ 004c575c     KTongSet.obj
 0003:00001768       ??_C@_0N@NHHF@?$CFs?$LM?S?H?k?$LB?$LO?$LA?o?$KD?$KB?$AA@ 004c5768     KTongSet.obj
 0003:00001778       ??_C@_0N@NAAM@TongMemberDB?$AA@ 004c5778     TONGDB.OBJ
 0003:00001788       ??_C@_0M@IJMC@MemberTable?$AA@ 004c5788     TONGDB.OBJ
 0003:00001794       ??_C@_06HKOB@TongDB?$AA@   004c5794     TONGDB.OBJ
 0003:0000179c       ??_C@_09IMLD@TongTable?$AA@ 004c579c     TONGDB.OBJ
 0003:000017a8       ___db_global_values        004c57a8     libdb41s:env_method.obj
 0003:00001800       ??_C@_09NMDG@set_alloc?$AA@ 004c5800     libdb41s:env_method.obj
 0003:0000180c       ??_C@_0BB@KBEF@set_app_dispatch?$AA@ 004c580c     libdb41s:env_method.obj
 0003:00001820       ??_C@_0BK@JHFC@set_flags?3?5DB_REGION_INIT?$AA@ 004c5820     libdb41s:env_method.obj
 0003:0000183c       ??_C@_0CA@HCNE@set_flags?3?5DB_PANIC_ENVIRONMENT?$AA@ 004c583c     libdb41s:env_method.obj
 0003:0000185c       ??_C@_0BI@MOIJ@set_flags?3?5DB_CDB_ALLDB?$AA@ 004c585c     libdb41s:env_method.obj
 0003:00001874       ??_C@_0BC@MODP@DB_ENV?9?$DOset_flags?$AA@ 004c5874     libdb41s:env_method.obj
 0003:00001888       ??_C@_0M@EIIK@set_shm_key?$AA@ 004c5888     libdb41s:env_method.obj
 0003:00001894       ??_C@_0CP@OEBE@?$CFs?3?5method?5not?5permitted?5in?5shar@ 004c5894     libdb41s:env_method.obj
 0003:000018c4       ??_C@_0CB@CLKE@?$CFs?3?5method?5not?5permitted?5?$CFs?5open@ 004c58c4     libdb41s:env_method.obj
 0003:000018e8       ??_C@_06NNGD@before?$AA@   004c58e8     libdb41s:env_method.obj
 0003:000018f0       ??_C@_05BKDG@after?$AA@    004c58f0     libdb41s:env_method.obj
 0003:000018f8       ??_C@_0EF@GOMK@?$CFs?5interface?5requires?5an?5environ@ 004c58f8     libdb41s:env_method.obj
 0003:00001940       ??_C@_0M@HIHI@transaction?$AA@ 004c5940     libdb41s:env_method.obj
 0003:0000194c       ??_C@_0O@GGPP@?$DMunspecified?$DO?$AA@ 004c594c     libdb41s:env_method.obj
 0003:0000195c       ??_C@_0M@HCON@memory?5pool?$AA@ 004c595c     libdb41s:env_method.obj
 0003:00001968       ??_C@_07GMDO@locking?$AA@  004c5968     libdb41s:env_method.obj
 0003:00001970       ??_C@_07FDHD@logging?$AA@  004c5970     libdb41s:env_method.obj
 0003:00001978       ??_C@_0DL@NEBD@set_rpc_server?5method?5not?5permit@ 004c5978     libdb41s:env_method.obj
 0003:000019b4       ??_C@_0DM@CFE@XA?5applications?5may?5not?5specify?5@ 004c59b4     libdb41s:db_method.obj
 0003:000019f0       ??_C@_09PDNE@db_create?$AA@ 004c59f0     libdb41s:db_method.obj
 0003:000019fc       ??_C@_0EI@PKIF@call?5implies?5an?5access?5method?5wh@ 004c59fc     libdb41s:db_method.obj
 0003:00001a44       ??_C@_0BA@NOPK@get_byteswapped?$AA@ 004c5a44     libdb41s:db_method.obj
 0003:00001a54       ??_C@_08FHFC@get_type?$AA@ 004c5a54     libdb41s:db_method.obj
 0003:00001a60       ??_C@_09JMCA@key_range?$AA@ 004c5a60     libdb41s:db_method.obj
 0003:00001a6c       ??_C@_0BB@MCGJ@set_append_recno?$AA@ 004c5a6c     libdb41s:db_method.obj
 0003:00001a80       ??_C@_0O@JLOK@set_cachesize?$AA@ 004c5a80     libdb41s:db_method.obj
 0003:00001a90       ??_C@_0M@JDHL@dup_compare?$AA@ 004c5a90     libdb41s:db_method.obj
 0003:00001a9c       ??_C@_0M@DNMN@set_encrypt?$AA@ 004c5a9c     libdb41s:db_method.obj
 0003:00001aa8       ??_C@_0O@IKGO@DB?9?$DOset_flags?$AA@ 004c5aa8     libdb41s:db_method.obj
 0003:00001ab8       ??_C@_0DD@PDOD@Database?5environment?5not?5configu@ 004c5ab8     libdb41s:db_method.obj
 0003:00001aec       ??_C@_0L@DEMA@set_lorder?$AA@ 004c5aec     libdb41s:db_method.obj
 0003:00001af8       ??_C@_0CA@OLD@page?5sizes?5must?5be?5a?5power?9of?92?$AA@ 004c5af8     libdb41s:db_method.obj
 0003:00001b18       ??_C@_0CG@BBDF@page?5sizes?5may?5not?5be?5larger?5tha@ 004c5b18     libdb41s:db_method.obj
 0003:00001b40       ??_C@_0CH@GGKK@page?5sizes?5may?5not?5be?5smaller?5th@ 004c5b40     libdb41s:db_method.obj
 0003:00001b68       ??_C@_0N@EKJH@set_pagesize?$AA@ 004c5b68     libdb41s:db_method.obj
 0003:00001b78       ??_C@_08DJHN@DB?9?$DOstat?$AA@ 004c5b78     libdb41s:db_method.obj
 0003:00001b84       ??_C@_0BA@GIIH@malloc?3?5?$CFs?3?5?$CFlu?$AA@ 004c5b84     libdb41s:os_alloc.obj
 0003:00001b94       ??_C@_0CN@IPLH@User?9specified?5malloc?5function?5r@ 004c5b94     libdb41s:os_alloc.obj
 0003:00001bc4       ??_C@_0BB@GKNG@realloc?3?5?$CFs?3?5?$CFlu?$AA@ 004c5bc4     libdb41s:os_alloc.obj
 0003:00001bd8       ??_C@_0CO@OBLO@User?9specified?5realloc?5function?5@ 004c5bd8     libdb41s:os_alloc.obj
 0003:00001c08       ??_C@_0L@IDL@set_tx_max?$AA@ 004c5c08     libdb41s:txn_method.obj
 0003:00001c14       ??_C@_0BB@HADO@set_tx_timestamp?$AA@ 004c5c14     libdb41s:txn_method.obj
 0003:00001c28       ??_C@_0CJ@HOBJ@DB_ENV?9?$DOrep_start?5called?5with?5op@ 004c5c28     libdb41s:rep_method.obj
 0003:00001c54       ??_C@_0EC@BLFP@DB_ENV?9?$DOset_rep_transport?5must?5b@ 004c5c54     libdb41s:rep_method.obj
 0003:00001c98       ??_C@_0DG@EBGA@DB_ENV?9?$DOrep_start?3?5replication?5m@ 004c5c98     libdb41s:rep_method.obj
 0003:00001cd0       ??_C@_0BC@JIDJ@DB_ENV?9?$DOrep_start?$AA@ 004c5cd0     libdb41s:rep_method.obj
 0003:00001ce4       ??_C@_08OEAM@rep_stat?$AA@ 004c5ce4     libdb41s:rep_method.obj
 0003:00001cf0       ??_C@_09HMBH@rep_start?$AA@ 004c5cf0     libdb41s:rep_method.obj
 0003:00001cfc       ??_C@_0M@IIPF@__db?4rep?4db?$AA@ 004c5cfc     libdb41s:rep_method.obj
 0003:00001d08       ??_C@_0BL@KMAC@Final?5log?5record?5not?5found?$AA@ 004c5d08     libdb41s:rep_method.obj
 0003:00001d24       ??_C@_0CH@HKNC@Attempt?5to?5get?5first?5log?5record?5@ 004c5d24     libdb41s:rep_method.obj
 0003:00001d4c       ??_C@_0CL@NHCN@Checkpoint?5LSN?5record?5?$FL?$CFlu?$FN?$FL?$CFlu?$FN@ 004c5d4c     libdb41s:rep_method.obj
 0003:00001d78       ??_C@_0CI@DEEM@Invalid?5checkpoint?5record?5at?5?$FL?$CFl@ 004c5d78     libdb41s:rep_method.obj
 0003:00001da0       ??_C@_0CO@EKBK@Checkpoint?5record?5at?5LSN?5?$FL?$CFlu?$FN?$FL?$CF@ 004c5da0     libdb41s:rep_method.obj
 0003:00001dd0       ??_C@_0EF@NHPG@DB_ENV?9?$DOset_rep_limit?3?5database?5@ 004c5dd0     libdb41s:rep_method.obj
 0003:00001e18       ??_C@_0EH@BOOO@DB_ENV?9?$DOset_rep_request?3?5databas@ 004c5e18     libdb41s:rep_method.obj
 0003:00001e60       ??_C@_0EC@FKHE@DB_ENV?9?$DOset_rep_transport?3?5eid?5m@ 004c5e60     libdb41s:rep_method.obj
 0003:00001ea4       ??_C@_0DG@LEAM@DB_ENV?9?$DOset_rep_transport?3?5no?5se@ 004c5ea4     libdb41s:rep_method.obj
 0003:00001edc       ??_C@_0EJ@EDDG@DB_ENV?9?$DOset_rep_transport?3?5datab@ 004c5edc     libdb41s:rep_method.obj
 0003:00001f28       ??_C@_0DA@KEHK@DB_ENV?9?$DOrep_elect?3?5priority?5may?5@ 004c5f28     libdb41s:rep_method.obj
 0003:00001f58       ??_C@_0DB@EKBN@DB_ENV?9?$DOrep_elect?3?5nsites?5must?5b@ 004c5f58     libdb41s:rep_method.obj
 0003:00001f8c       ??_C@_09PFHF@rep_elect?$AA@ 004c5f8c     libdb41s:rep_method.obj
 0003:00001f98       ??_C@_0BB@MKGI@DB_ENV?9?$DOrep_stat?$AA@ 004c5f98     libdb41s:rep_method.obj
 0003:00001fac       ??_C@_0CA@NFCF@individual?5cache?5size?5too?5large?$AA@ 004c5fac     libdb41s:mp_method.obj
 0003:00001fcc       ??_C@_0BB@HOIA@set_lk_conflicts?$AA@ 004c5fcc     libdb41s:lock_method.obj
 0003:00001fe0       ??_C@_0EB@KNEN@DB_ENV?9?$DOset_lk_detect?3?5unknown?5d@ 004c5fe0     libdb41s:lock_method.obj
 0003:00002024       ??_C@_0O@PBAP@set_lk_detect?$AA@ 004c6024     libdb41s:lock_method.obj
 0003:00002034       ??_C@_0L@BNAC@set_lk_max?$AA@ 004c6034     libdb41s:lock_method.obj
 0003:00002040       ??_C@_0BB@KJCG@set_lk_max_locks?$AA@ 004c6040     libdb41s:lock_method.obj
 0003:00002054       ??_C@_0BD@NELH@set_lk_max_lockers?$AA@ 004c6054     libdb41s:lock_method.obj
 0003:00002068       ??_C@_0BD@GND@set_lk_max_objects?$AA@ 004c6068     libdb41s:lock_method.obj
 0003:0000207c       ??_C@_0BE@BHJP@DB_ENV?9?$DOset_timeout?$AA@ 004c607c     libdb41s:lock_method.obj
 0003:00002090       ??_C@_0M@PNBF@set_timeout?$AA@ 004c6090     libdb41s:lock_method.obj
 0003:0000209c       ??_C@_0CN@NFDF@log?5buffer?5size?5must?5be?5?$DM?$DN?5log?5f@ 004c609c     libdb41s:log_method.obj
 0003:000020cc       ??_C@_0N@GNDA@set_lg_bsize?$AA@ 004c60cc     libdb41s:log_method.obj
 0003:000020dc       ??_C@_0CN@HMFA@log?5file?5size?5must?5be?5?$DO?$DN?5log?5buf@ 004c60dc     libdb41s:log_method.obj
 0003:0000210c       ??_C@_0L@JMLN@set_lg_max?$AA@ 004c610c     libdb41s:log_method.obj
 0003:00002118       ??_C@_0BM@OEOA@log?5file?5size?5must?5be?5?$DO?$DN?5?$CFd?$AA@ 004c6118     libdb41s:log_method.obj
 0003:00002134       ??_C@_0BB@EDMA@set_lg_regionmax?$AA@ 004c6134     libdb41s:log_method.obj
 0003:00002148       ??_C@_0DM@DFKO@Sleepycat?5Software?3?5Berkeley?5DB?5@ 004c6148     libdb41s:env_open.obj
 0003:00002184       ??_C@_06FBLN@rwrw?9?9?$AA@ 004c6184     libdb41s:env_open.obj
 0003:0000218c       ??_C@_0N@NENJ@DB_ENV?9?$DOopen?$AA@ 004c618c     libdb41s:env_open.obj
 0003:0000219c       ??_C@_0P@MMKA@DB_ENV?9?$DOremove?$AA@ 004c619c     libdb41s:env_open.obj
 0003:000021ac       ??_C@_0BJ@NALJ@DB_CONFIG?3?5line?5too?5long?$AA@ 004c61ac     libdb41s:env_open.obj
 0003:000021c8       ??_C@_01LHO@r?$AA@         004c61c8     libdb41s:env_open.obj
 0003:000021cc       ??_C@_09HOJD@DB_CONFIG?$AA@ 004c61cc     libdb41s:env_open.obj
 0003:000021d8       ??_C@_0CP@GJNE@Database?5handles?5open?5during?5env@ 004c61d8     libdb41s:env_open.obj
 0003:00002208       ??_C@_03IHHK@?2?1?3?$AA@   004c6208     libdb41s:env_open.obj
 0003:0000220c       ??_C@_0CF@PMNK@illegal?5DB_HOME?5environment?5vari@ 004c620c     libdb41s:env_open.obj
 0003:00002234       ??_C@_07BFDH@DB_HOME?$AA@  004c6234     libdb41s:env_open.obj
 0003:0000223c       ??_C@_0CC@PEOC@mis?9formatted?5name?9value?5pair?3?5?$CF@ 004c623c     libdb41s:env_open.obj
 0003:00002260       ??_C@_0CB@HICC@unrecognized?5name?9value?5pair?3?5?$CFs@ 004c6260     libdb41s:env_open.obj
 0003:00002284       ??_C@_0CM@MEPL@incorrect?5arguments?5for?5name?9val@ 004c6284     libdb41s:env_open.obj
 0003:000022b0       ??_C@_0BB@CEIH@db_verb_waitsfor?$AA@ 004c62b0     libdb41s:env_open.obj
 0003:000022c4       ??_C@_0BB@ONMJ@db_verb_recovery?$AA@ 004c62c4     libdb41s:env_open.obj
 0003:000022d8       ??_C@_0BB@JEBC@db_verb_deadlock?$AA@ 004c62d8     libdb41s:env_open.obj
 0003:000022ec       ??_C@_0BB@FKMM@db_verb_chkpoint?$AA@ 004c62ec     libdb41s:env_open.obj
 0003:00002300       ??_C@_0M@LGJM@set_verbose?$AA@ 004c6300     libdb41s:env_open.obj
 0003:0000230c       ??_C@_0CG@EKBE@?$CFs?3?5?$CFlu?5larger?5than?5maximum?5valu@ 004c630c     libdb41s:env_open.obj
 0003:00002334       ??_C@_0BA@KJOJ@set_txn_timeout?$AA@ 004c6334     libdb41s:env_open.obj
 0003:00002344       ??_C@_0L@EIDC@db_tmp_dir?$AA@ 004c6344     libdb41s:env_open.obj
 0003:00002350       ??_C@_0M@LKG@set_tmp_dir?$AA@ 004c6350     libdb41s:env_open.obj
 0003:0000235c       ??_C@_0O@NENB@set_tas_spins?$AA@ 004c635c     libdb41s:env_open.obj
 0003:0000236c       ??_C@_0BA@CLOE@set_region_init?$AA@ 004c636c     libdb41s:env_open.obj
 0003:0000237c       ??_C@_0BA@PFKP@set_mp_mmapsize?$AA@ 004c637c     libdb41s:env_open.obj
 0003:0000238c       ??_C@_0BB@FFD@set_lock_timeout?$AA@ 004c638c     libdb41s:env_open.obj
 0003:000023a0       ??_C@_0BB@NAEN@db_lock_youngest?$AA@ 004c63a0     libdb41s:env_open.obj
 0003:000023b4       ??_C@_0P@CDFE@db_lock_random?$AA@ 004c63b4     libdb41s:env_open.obj
 0003:000023c4       ??_C@_0P@NGMH@db_lock_oldest?$AA@ 004c63c4     libdb41s:env_open.obj
 0003:000023d4       ??_C@_0BB@CALM@db_lock_minwrite?$AA@ 004c63d4     libdb41s:env_open.obj
 0003:000023e8       ??_C@_0BB@NADF@db_lock_minlocks?$AA@ 004c63e8     libdb41s:env_open.obj
 0003:000023fc       ??_C@_0BB@IDFK@db_lock_maxlocks?$AA@ 004c63fc     libdb41s:env_open.obj
 0003:00002410       ??_C@_0P@NPIN@db_lock_expire?$AA@ 004c6410     libdb41s:env_open.obj
 0003:00002420       ??_C@_0BA@IPOA@db_lock_default?$AA@ 004c6420     libdb41s:env_open.obj
 0003:00002430       ??_C@_0L@JMCK@db_log_dir?$AA@ 004c6430     libdb41s:env_open.obj
 0003:0000243c       ??_C@_0L@OKNM@set_lg_dir?$AA@ 004c643c     libdb41s:env_open.obj
 0003:00002448       ??_C@_06DDIH@?$CFlu?5?$CFc?$AA@ 004c6448     libdb41s:env_open.obj
 0003:00002450       ??_C@_0M@IOBK@db_yieldcpu?$AA@ 004c6450     libdb41s:env_open.obj
 0003:0000245c       ??_C@_0BE@PHPE@db_txn_write_nosync?$AA@ 004c645c     libdb41s:env_open.obj
 0003:00002470       ??_C@_0O@PIKD@db_txn_nosync?$AA@ 004c6470     libdb41s:env_open.obj
 0003:00002480       ??_C@_0P@OLPM@db_region_init?$AA@ 004c6480     libdb41s:env_open.obj
 0003:00002490       ??_C@_0L@JOMO@db_nopanic?$AA@ 004c6490     libdb41s:env_open.obj
 0003:0000249c       ??_C@_0N@ENOK@db_overwrite?$AA@ 004c649c     libdb41s:env_open.obj
 0003:000024ac       ??_C@_09MDFH@db_nommap?$AA@ 004c64ac     libdb41s:env_open.obj
 0003:000024b8       ??_C@_0N@BFKP@db_nolocking?$AA@ 004c64b8     libdb41s:env_open.obj
 0003:000024c8       ??_C@_0O@MHJ@db_direct_log?$AA@ 004c64c8     libdb41s:env_open.obj
 0003:000024d8       ??_C@_0N@FNFP@db_direct_db?$AA@ 004c64d8     libdb41s:env_open.obj
 0003:000024e8       ??_C@_0N@BACF@db_cdb_alldb?$AA@ 004c64e8     libdb41s:env_open.obj
 0003:000024f8       ??_C@_07OPAA@?$CF40s?5?$CFc?$AA@ 004c64f8     libdb41s:env_open.obj
 0003:00002500       ??_C@_09CKBB@set_flags?$AA@ 004c6500     libdb41s:env_open.obj
 0003:0000250c       ??_C@_0M@CHFA@db_data_dir?$AA@ 004c650c     libdb41s:env_open.obj
 0003:00002518       ??_C@_0N@LOBD@set_data_dir?$AA@ 004c6518     libdb41s:env_open.obj
 0003:00002528       ??_C@_0P@IMBA@?$CFlu?5?$CFlu?5?$CFlu?5?$CFc?$AA@ 004c6528     libdb41s:env_open.obj
 0003:00002538       ??_C@_0BB@GPBM@tmp_open?3?5?$CFs?3?5?$CFs?$AA@ 004c6538     libdb41s:env_open.obj
 0003:0000254c       ??_C@_06BAGP@rw?9?9?9?9?$AA@ 004c654c     libdb41s:env_open.obj
 0003:00002554       ??_C@_09GCPH@BDBXXXXXX?$AA@ 004c6554     libdb41s:env_open.obj
 0003:00002560       ??_C@_06HNNJ@?$CFs?3?5?$CFs?$AA@ 004c6560     libdb41s:env_open.obj
 0003:00002568       ??_C@_0L@DCJH@DB?9?$DOrename?$AA@ 004c6568     libdb41s:db_rename.obj
 0003:00002574       ??_C@_0BB@EFMF@DB_ENV?9?$DOdbrename?$AA@ 004c6574     libdb41s:db_rename.obj
 0003:00002588       ??_C@_0L@MFKB@DB?9?$DOremove?$AA@ 004c6588     libdb41s:db_remove.obj
 0003:00002594       ??_C@_0BB@LCPD@DB_ENV?9?$DOdbremove?$AA@ 004c6594     libdb41s:db_remove.obj
 0003:000025a8       ??_C@_0BC@PPHM@__db_subdb_remove?$AA@ 004c65a8     libdb41s:db_remove.obj
 0003:000025bc       ??_C@_0BP@JOHJ@illegal?5flag?5?$CFsspecified?5to?5?$CFs?$AA@ 004c65bc     libdb41s:db_err.obj
 0003:000025dc       ??_C@_0N@JCI@combination?5?$AA@ 004c65dc     libdb41s:db_err.obj
 0003:000025ec       ??_C@_0CD@FMMB@unable?5to?5create?1retrieve?5page?5?$CF@ 004c65ec     libdb41s:db_err.obj
 0003:00002610       ??_C@_0CG@HOL@page?5?$CFlu?3?5illegal?5page?5type?5or?5f@ 004c6610     libdb41s:db_err.obj
 0003:00002638       ??_C@_0BI@EBFM@operation?5not?5supported?$AA@ 004c6638     libdb41s:db_err.obj
 0003:00002650       ??_C@_0CK@BHCB@fatal?5region?5error?5detected?$DL?5run@ 004c6650     libdb41s:db_err.obj
 0003:0000267c       ??_C@_09JPBA@PANIC?3?5?$CFs?$AA@ 004c667c     libdb41s:db_err.obj
 0003:00002688       ??_C@_0BC@ONBK@Unknown?5error?3?5?$CFd?$AA@ 004c6688     libdb41s:db_err.obj
 0003:0000269c       ??_C@_0CM@POJO@DB_VERIFY_BAD?3?5Database?5verifica@ 004c669c     libdb41s:db_err.obj
 0003:000026c8       ??_C@_0DM@LNBO@DB_SECONDARY_BAD?3?5Secondary?5inde@ 004c66c8     libdb41s:db_err.obj
 0003:00002704       ??_C@_0DD@EDNB@DB_RUNRECOVERY?3?5Fatal?5error?0?5run@ 004c6704     libdb41s:db_err.obj
 0003:00002738       ??_C@_0CJ@GIJL@DB_REP_UNAVAIL?3?5Unable?5to?5elect?5@ 004c6738     libdb41s:db_err.obj
 0003:00002764       ??_C@_0DI@KGFJ@DB_REP_OUTDATED?3?5Insufficient?5lo@ 004c6764     libdb41s:db_err.obj
 0003:0000279c       ??_C@_0DC@POCA@DB_REP_NEWSITE?3?5A?5new?5site?5has?5e@ 004c679c     libdb41s:db_err.obj
 0003:000027d0       ??_C@_0DD@HCBD@DB_REP_NEWMASTER?3?5A?5new?5master?5h@ 004c67d0     libdb41s:db_err.obj
 0003:00002804       ??_C@_0CO@ODMF@DB_REP_HOLDELECTION?3?5Need?5to?5hol@ 004c6804     libdb41s:db_err.obj
 0003:00002834       ??_C@_0DA@NHPI@DB_REP_DUPMASTER?3?5A?5second?5maste@ 004c6834     libdb41s:db_err.obj
 0003:00002864       ??_C@_0CL@IHEA@DB_PAGE_NOTFOUND?3?5Requested?5page@ 004c6864     libdb41s:db_err.obj
 0003:00002890       ??_C@_0DD@PEDG@DB_OLDVERSION?3?5Database?5requires@ 004c6890     libdb41s:db_err.obj
 0003:000028c4       ??_C@_0CN@FKIA@DB_NOTFOUND?3?5No?5matching?5key?1dat@ 004c68c4     libdb41s:db_err.obj
 0003:000028f4       ??_C@_0DC@GMHJ@DB_NOSERVER_ID?3?5Identifier?5unrec@ 004c68f4     libdb41s:db_err.obj
 0003:00002928       ??_C@_0CO@IIFE@DB_NOSERVER_HOME?3?5Home?5unrecogni@ 004c6928     libdb41s:db_err.obj
 0003:00002958       ??_C@_0CE@PE@DB_NOSERVER?3?5Fatal?5error?0?5no?5ser@ 004c6958     libdb41s:db_err.obj
 0003:0000297c       ??_C@_0CF@LGLG@DB_LOCK_NOTGRANTED?3?5Lock?5not?5gra@ 004c697c     libdb41s:db_err.obj
 0003:000029a4       ??_C@_0DG@NJCF@DB_LOCK_DEADLOCK?3?5Locker?5killed?5@ 004c69a4     libdb41s:db_err.obj
 0003:000029dc       ??_C@_0CK@KGBE@DB_KEYEXIST?3?5Key?1data?5pair?5alrea@ 004c69dc     libdb41s:db_err.obj
 0003:00002a08       ??_C@_0CI@KDIJ@DB_KEYEMPTY?3?5Non?9existent?5key?1da@ 004c6a08     libdb41s:db_err.obj
 0003:00002a30       ??_C@_0DF@IAHI@DB_DONOTINDEX?3?5Secondary?5index?5c@ 004c6a30     libdb41s:db_err.obj
 0003:00002a68       ??_C@_0BF@KKFA@Successful?5return?3?50?$AA@ 004c6a68     libdb41s:db_err.obj
 0003:00002a80       ??_C@_0DH@IGJM@Berkeley?5DB?3?5error?5callback?5inte@ 004c6a80     libdb41s:db_err.obj
 0003:00002ab8       ??_C@_04OFDJ@?3?5?$CFs?$AA@ 004c6ab8     libdb41s:db_err.obj
 0003:00002ac0       ??_C@_01BJG@?6?$AA@        004c6ac0     libdb41s:db_err.obj
 0003:00002ac4       ??_C@_02DILL@?$CFs?$AA@    004c6ac4     libdb41s:db_err.obj
 0003:00002ac8       ??_C@_02HFBK@?3?5?$AA@     004c6ac8     libdb41s:db_err.obj
 0003:00002acc       ??_C@_04HPGM@?$CFs?3?5?$AA@ 004c6acc     libdb41s:db_err.obj
 0003:00002ad4       ??_C@_0BH@DLBO@?$CFs?3?5Unknown?5flag?3?50x?$CFx?$AA@ 004c6ad4     libdb41s:db_err.obj
 0003:00002aec       ??_C@_0BK@IOPK@?$CFs?3?5Unknown?5db?5type?3?50x?$CFx?$AA@ 004c6aec     libdb41s:db_err.obj
 0003:00002b08       ??_C@_0ED@HDLP@Transaction?5specified?5for?5a?5DB?5h@ 004c6b08     libdb41s:db_err.obj
 0003:00002b4c       ??_C@_0DG@CGAL@Transaction?5that?5opened?5the?5DB?5h@ 004c6b4c     libdb41s:db_err.obj
 0003:00002b84       ??_C@_0DL@IHOP@Operation?5forbidden?5while?5second@ 004c6b84     libdb41s:db_err.obj
 0003:00002bc0       ??_C@_0EF@PIHE@DB?5handle?5previously?5used?5in?5tra@ 004c6bc0     libdb41s:db_err.obj
 0003:00002c08       ??_C@_0CP@GIIG@DB?5environment?5not?5configured?5fo@ 004c6c08     libdb41s:db_err.obj
 0003:00002c38       ??_C@_0BP@FOLC@Extent?5size?5must?5be?5at?5least?51?$AA@ 004c6c38     libdb41s:qam_method.obj
 0003:00002c58       ??_C@_0P@NPMP@set_extentsize?$AA@ 004c6c58     libdb41s:qam_method.obj
 0003:00002c68       ??_C@_0BA@LKMF@?$CFs?$CFc__dbq?4?$CFs?4?$CFd?$AA@ 004c6c68     libdb41s:qam_method.obj
 0003:00002c78       ??_C@_0DD@IIH@Queue?5does?5not?5support?5multiple?5@ 004c6c78     libdb41s:qam_method.obj
 0003:00002cac       ??_C@_0O@FJMC@set_h_ffactor?$AA@ 004c6cac     libdb41s:hash_method.obj
 0003:00002cbc       ??_C@_0L@POFG@set_h_hash?$AA@ 004c6cbc     libdb41s:hash_method.obj
 0003:00002cc8       ??_C@_0M@GCNA@set_h_nelem?$AA@ 004c6cc8     libdb41s:hash_method.obj
 0003:00002cd4       ??_C@_0P@GMKE@set_bt_compare?$AA@ 004c6cd4     libdb41s:bt_method.obj
 0003:00002ce4       ??_C@_0BN@FOGA@minimum?5bt_maxkey?5value?5is?51?$AA@ 004c6ce4     libdb41s:bt_method.obj
 0003:00002d04       ??_C@_0O@NAI@set_bt_maxkey?$AA@ 004c6d04     libdb41s:bt_method.obj
 0003:00002d14       ??_C@_0BN@KAI@minimum?5bt_minkey?5value?5is?52?$AA@ 004c6d14     libdb41s:bt_method.obj
 0003:00002d34       ??_C@_0O@IGOP@set_bt_minkey?$AA@ 004c6d34     libdb41s:bt_method.obj
 0003:00002d44       ??_C@_0O@NLCK@set_bt_prefix?$AA@ 004c6d44     libdb41s:bt_method.obj
 0003:00002d54       ??_C@_0N@BGNB@set_re_delim?$AA@ 004c6d54     libdb41s:bt_method.obj
 0003:00002d64       ??_C@_0L@IIK@set_re_len?$AA@ 004c6d64     libdb41s:bt_method.obj
 0003:00002d70       ??_C@_0L@KKDD@set_re_pad?$AA@ 004c6d70     libdb41s:bt_method.obj
 0003:00002d7c       ??_C@_0O@PBFD@set_re_source?$AA@ 004c6d7c     libdb41s:bt_method.obj
 0003:00002d8c       ??_C@_0DO@HFHC@verify?5may?5not?5be?5used?5with?5tran@ 004c6d8c     libdb41s:db_vrfy.obj
 0003:00002dcc       ??_C@_0CJ@HCCC@DB_ORDERCHKONLY?5requires?5a?5datab@ 004c6dcc     libdb41s:db_vrfy.obj
 0003:00002df8       ??_C@_0M@DACN@__db_verify?$AA@ 004c6df8     libdb41s:db_vrfy.obj
 0003:00002e04       ??_C@_0L@MHGE@DB?9?$DOverify?$AA@ 004c6e04     libdb41s:db_vrfy.obj
 0003:00002e10       ??_C@_06JKGI@verify?$AA@   004c6e10     libdb41s:db_vrfy.obj
 0003:00002e18       ??_C@_0CF@EOKK@Metadata?5page?5?$CFlu?5cannot?5be?5read@ 004c6e18     libdb41s:db_vrfy.obj
 0003:00002e40       ??_C@_0BP@PBCB@Page?5?$CFlu?3?5bad?5magic?5number?5?$CFlu?$AA@ 004c6e40     libdb41s:db_vrfy.obj
 0003:00002e60       ??_C@_0BM@GFKP@Page?5?$CFlu?3?5bad?5page?5type?5?$CFlu?$AA@ 004c6e60     libdb41s:db_vrfy.obj
 0003:00002e7c       ??_C@_0BM@PCHN@Page?5?$CFlu?3?5bad?5page?5size?5?$CFlu?$AA@ 004c6e7c     libdb41s:db_vrfy.obj
 0003:00002e98       ??_C@_0ED@JJGK@Page?5?$CFlu?3?5unsupported?5DB?5version@ 004c6e98     libdb41s:db_vrfy.obj
 0003:00002edc       ??_C@_0CG@PNMK@Page?5?$CFlu?3?5pgno?5incorrectly?5set?5t@ 004c6edc     libdb41s:db_vrfy.obj
 0003:00002f04       ??_C@_0CI@EGOL@Page?5?$CFlu?3?5could?5not?5check?5metada@ 004c6f04     libdb41s:db_vrfy.obj
 0003:00002f2c       ??_C@_0DI@DDIJ@Page?5?$CFlu?3?5metadata?5page?5corrupte@ 004c6f2c     libdb41s:db_vrfy.obj
 0003:00002f64       ??_C@_0CD@NOJG@Page?5?$CFlu?3?5Incomplete?5metadata?5pa@ 004c6f64     libdb41s:db_vrfy.obj
 0003:00002f88       ??_C@_0CA@EKJP@Page?5?$CFlu?3?5unknown?5page?5type?5?$CFlu?$AA@ 004c6f88     libdb41s:db_vrfy.obj
 0003:00002fa8       ??_C@_0CD@MMOA@Page?5?$CFlu?3?5old?9style?5duplicate?5pa@ 004c6fa8     libdb41s:db_vrfy.obj
 0003:00002fcc       ??_C@_0BE@DCPJ@__db_vrfy_walkpages?$AA@ 004c6fcc     libdb41s:db_vrfy.obj
 0003:00002fe0       ??_C@_0BO@ICPH@Page?5?$CFlu?3?5totally?5zeroed?5page?$AA@ 004c6fe0     libdb41s:db_vrfy.obj
 0003:00003000       ??_C@_0BM@KAED@Page?5?$CFlu?3?5unreferenced?5page?$AA@ 004c7000     libdb41s:db_vrfy.obj
 0003:0000301c       ??_C@_0CL@MAJH@__db_vrfy_structure?5called?5with?5@ 004c701c     libdb41s:db_vrfy.obj
 0003:00003048       ??_C@_0BO@CMAM@Page?5?$CFlu?3?5bad?5page?5number?5?$CFlu?$AA@ 004c7048     libdb41s:db_vrfy.obj
 0003:00003068       ??_C@_0CA@DIEF@Page?5?$CFlu?3?5partially?5zeroed?5page?$AA@ 004c7068     libdb41s:db_vrfy.obj
 0003:00003088       ??_C@_0CA@OCOF@Page?5?$CFlu?3?5invalid?5next_pgno?5?$CFlu?$AA@ 004c7088     libdb41s:db_vrfy.obj
 0003:000030a8       ??_C@_0DC@LHNH@Page?5?$CFlu?3?5nonzero?5level?5?$CFlu?5in?5n@ 004c70a8     libdb41s:db_vrfy.obj
 0003:000030dc       ??_C@_0DC@LLAM@Page?5?$CFlu?3?5btree?5leaf?5page?5has?5in@ 004c70dc     libdb41s:db_vrfy.obj
 0003:00003110       ??_C@_0BO@MNFB@Page?5?$CFlu?3?5bad?5btree?5level?5?$CFlu?$AA@ 004c7110     libdb41s:db_vrfy.obj
 0003:00003130       ??_C@_0CA@BBAM@Page?5?$CFlu?3?5too?5many?5entries?3?5?$CFlu?$AA@ 004c7130     libdb41s:db_vrfy.obj
 0003:00003150       ??_C@_0CA@OELD@Page?5?$CFlu?3?5invalid?5prev_pgno?5?$CFlu?$AA@ 004c7150     libdb41s:db_vrfy.obj
 0003:00003170       ??_C@_0CJ@NGDE@Page?5?$CFlu?3?5nonsensical?5free?5list?5@ 004c7170     libdb41s:db_vrfy.obj
 0003:0000319c       ??_C@_0DK@KAMF@Page?5?$CFlu?3?5nonempty?5free?5list?5on?5@ 004c719c     libdb41s:db_vrfy.obj
 0003:000031d8       ??_C@_0BP@LK@Page?5?$CFlu?3?5invalid?5pagesize?5?$CFlu?$AA@ 004c71d8     libdb41s:db_vrfy.obj
 0003:000031f8       ??_C@_0EJ@DHKD@Page?5?$CFlu?3?5unsupported?5database?5v@ 004c71f8     libdb41s:db_vrfy.obj
 0003:00003244       ??_C@_0DE@FJBH@Page?5?$CFlu?3?5magic?5number?5does?5not?5@ 004c7244     libdb41s:db_vrfy.obj
 0003:00003278       ??_C@_0BP@NG@Page?5?$CFlu?3?5invalid?5magic?5number?$AA@ 004c7278     libdb41s:db_vrfy.obj
 0003:00003298       ??_C@_0DC@MGND@Page?5?$CFlu?3?5invalid?5next_pgno?5?$CFlu?5@ 004c7298     libdb41s:db_vrfy.obj
 0003:000032cc       ??_C@_0DK@JBIB@Page?5?$CFlu?3?5page?5?$CFlu?5encountered?5a@ 004c72cc     libdb41s:db_vrfy.obj
 0003:00003308       ??_C@_0CM@HOFK@Page?5?$CFlu?3?5non?9invalid?5page?5?$CFlu?5o@ 004c7308     libdb41s:db_vrfy.obj
 0003:00003334       ??_C@_0CO@BDNL@Subdatabase?5entry?5references?5inv@ 004c7334     libdb41s:db_vrfy.obj
 0003:00003364       ??_C@_0CH@EBGG@Subdatabase?5entry?5not?5page?9numbe@ 004c7364     libdb41s:db_vrfy.obj
 0003:0000338c       ??_C@_0DK@KCNE@Subdatabase?5entry?5references?5pag@ 004c738c     libdb41s:db_vrfy.obj
 0003:000033c8       ??_C@_0CP@NGNO@Page?5?$CFlu?3?5incorrect?5hash?5functio@ 004c73c8     libdb41s:db_vrfy.obj
 0003:000033f8       ??_C@_0M@EKNH@?$CF$sniglet?$FO?$CG?$AA@ 004c73f8     libdb41s:db_vrfy.obj
 0003:00003404       ??_C@_0CH@NABD@Page?5?$CFlu?3?5DB?9?$DOh_internal?5field?5i@ 004c7404     libdb41s:db_vrfy.obj
 0003:0000342c       ??_C@_0CM@IMLC@Page?5?$CFlu?3?5database?5metapage?5of?5b@ 004c742c     libdb41s:db_vrfy.obj
 0003:00003458       ??_C@_0CC@CGCB@Subdatabase?5entry?5of?5invalid?5siz@ 004c7458     libdb41s:db_vrfy.obj
 0003:0000347c       ??_C@_07CNPM@UNKNOWN?$AA@  004c747c     libdb41s:db_vrfy.obj
 0003:00003484       ??_C@_0CL@HFEB@Page?5?$CFlu?3?5bad?5offset?5?$CFlu?5at?5page@ 004c7484     libdb41s:db_vrfy.obj
 0003:000034b0       ??_C@_0CO@MIII@Page?5?$CFlu?3?5item?5?$CFlu?5extends?5past?5@ 004c74b0     libdb41s:db_vrfy.obj
 0003:000034e0       ??_C@_0CK@DOJM@Page?5?$CFlu?3?5item?5?$CFlu?5of?5unrecogniz@ 004c74e0     libdb41s:db_vrfy.obj
 0003:0000350c       ??_C@_0CM@KLEE@Page?5?$CFlu?3?5entries?5listing?5?$CFlu?5ov@ 004c750c     libdb41s:db_vrfy.obj
 0003:00003538       ??_C@_0DD@EPGH@Page?5?$CFlu?3?5duplicate?5page?5of?5inap@ 004c7538     libdb41s:db_vrfy.obj
 0003:0000356c       ??_C@_0CK@HFCE@Page?5?$CFlu?3?5?$CFs?5is?5of?5inappropriate@ 004c756c     libdb41s:db_vrfy.obj
 0003:00003598       ??_C@_0P@DEPG@duplicate?5page?$AA@ 004c7598     libdb41s:db_vrfy.obj
 0003:000035a8       ??_C@_0DI@IBMP@Page?5?$CFlu?3?5unsorted?5duplicate?5set@ 004c75a8     libdb41s:db_vrfy.obj
 0003:000035e0       ??_C@_0DI@DALB@Page?5?$CFlu?3?5sorted?5duplicate?5set?5i@ 004c75e0     libdb41s:db_vrfy.obj
 0003:00003618       ??_C@_0CD@FEKH@?$CFs?3?5unsupported?5queue?5version?3?5?$CF@ 004c7618     libdb41s:db_upg.obj
 0003:0000363c       ??_C@_0CD@BCLK@?$CFs?3?5unsupported?5btree?5version?3?5?$CF@ 004c763c     libdb41s:db_upg.obj
 0003:00003660       ??_C@_0CC@GJBD@?$CFs?3?5unsupported?5hash?5version?3?5?$CFl@ 004c7660     libdb41s:db_upg.obj
 0003:00003684       ??_C@_0DM@FPGL@?$CFs?3?5DB?9?$DOupgrade?5only?5supported?5o@ 004c7684     libdb41s:db_upg.obj
 0003:000036c0       ??_C@_0BL@NNEL@?$CFs?3?5unrecognized?5file?5type?$AA@ 004c76c0     libdb41s:db_upg.obj
 0003:000036dc       ??_C@_0M@EHIO@DB?9?$DOupgrade?$AA@ 004c76dc     libdb41s:db_upg.obj
 0003:000036e8       ??_C@_0CN@IBH@?$CFs?3?5file?5size?5not?5a?5multiple?5of?5@ 004c76e8     libdb41s:db_upg.obj
 0003:00003718       ??_C@_0L@EBBO@DB?9?$DOcursor?$AA@ 004c7718     libdb41s:db_am.obj
 0003:00003724       ??_C@_0N@GJFM@__db_icursor?$AA@ 004c7724     libdb41s:db_am.obj
 0003:00003734       ??_C@_0CF@NCMC@DB?5does?5not?5have?5a?5valid?5file?5ha@ 004c7734     libdb41s:db_am.obj
 0003:0000375c       ??_C@_06NFG@DB?9?$DOfd?$AA@ 004c775c     libdb41s:db_am.obj
 0003:00003764       ??_C@_07MNLN@DB?9?$DOget?$AA@ 004c7764     libdb41s:db_am.obj
 0003:0000376c       ??_C@_08JMHC@__db_put?$AA@ 004c776c     libdb41s:db_am.obj
 0003:00003778       ??_C@_07DIBP@DB?9?$DOput?$AA@ 004c7778     libdb41s:db_am.obj
 0003:00003780       ??_C@_07MGEO@DB?9?$DOdel?$AA@ 004c7780     libdb41s:db_am.obj
 0003:00003788       ??_C@_08JLBA@DB?9?$DOsync?$AA@ 004c7788     libdb41s:db_am.obj
 0003:00003794       ??_C@_0EC@OOAE@Databases?5may?5not?5become?5seconda@ 004c7794     libdb41s:db_am.obj
 0003:000037d8       ??_C@_08NLHA@DB?9?$DOpget?$AA@ 004c77d8     libdb41s:db_am.obj
 0003:000037e4       ??_C@_04DCMN@?$CFs?$CFs?$AA@ 004c77e4     libdb41s:db_am.obj
 0003:000037ec       ??_C@_0DA@CEDJ@Append?5results?5in?5a?5non?9unique?5s@ 004c77ec     libdb41s:db_am.obj
 0003:0000381c       ??_C@_0CP@BEJJ@?5an?5index?5not?5configured?5to?5supp@ 004c781c     libdb41s:db_am.obj
 0003:0000384c       ??_C@_0O@EELC@__db_truncate?$AA@ 004c784c     libdb41s:db_truncate.obj
 0003:0000385c       ??_C@_0N@CFOK@DB?9?$DOtruncate?$AA@ 004c785c     libdb41s:db_truncate.obj
 0003:0000386c       ??_C@_0CO@CIHJ@Different?5pagesize?5specified?5on?5@ 004c786c     libdb41s:db.obj
 0003:0000389c       ??_C@_0BL@LEON@rename?3?5database?5?$CFs?5exists?$AA@ 004c789c     libdb41s:db.obj
 0003:000038b8       ??_C@_0CM@HMEC@Different?5lorder?5specified?5on?5ex@ 004c78b8     libdb41s:db.obj
 0003:000038e4       ??_C@_0BB@HKGO@__db_dbenv_setup?$AA@ 004c78e4     libdb41s:db.obj
 0003:000038f8       ??_C@_09JAKB@DB?9?$DOclose?$AA@ 004c78f8     libdb41s:db.obj
 0003:00003904       ??_C@_0L@IAJH@?$CF?4?$CKs?$CFx?4?$CFx?4?$AA@ 004c7904     libdb41s:db.obj
 0003:00003910       ??_C@_09NKOJ@?$CF?4?$CKs?$CFs?$CFs?4?$AA@ 004c7910     libdb41s:db.obj
 0003:0000391c       ??_C@_07HGFJ@?$CFs?$CFx?4?$CFx?$AA@ 004c791c     libdb41s:db.obj
 0003:00003924       ??_C@_05GPBI@?$CFs?$CFs?4?$AA@ 004c7924     libdb41s:db.obj
 0003:0000392c       ??_C@_05JPPG@__db?4?$AA@   004c792c     libdb41s:db.obj
 0003:00003934       ??_C@_0EH@CGGL@Closing?5a?5primary?5DB?5while?5a?5sec@ 004c7934     libdb41s:db.obj
 0003:0000397c       ??_C@_0EB@JFPK@files?5containing?5multiple?5databa@ 004c797c     libdb41s:db_open.obj
 0003:000039c0       ??_C@_0M@MKJN@__db_dbopen?$AA@ 004c79c0     libdb41s:db_open.obj
 0003:000039cc       ??_C@_0CI@IJGD@DBTYPE?5of?5unknown?5without?5existi@ 004c79cc     libdb41s:db_open.obj
 0003:000039f4       ??_C@_0BO@DICH@?$CFs?3?5Invalid?5type?5?$CFd?5specified?$AA@ 004c79f4     libdb41s:db_open.obj
 0003:00003a14       ??_C@_0CG@LEA@Invalid?5subdatabase?5type?5?$CFd?5spec@ 004c7a14     libdb41s:db_open.obj
 0003:00003a3c       ??_C@_0CD@KNDD@?$CFs?3?5unexpected?5file?5type?5or?5form@ 004c7a3c     libdb41s:db_open.obj
 0003:00003a60       ??_C@_0CB@PDNC@?$CFs?3?5metadata?5page?5checksum?5error@ 004c7a60     libdb41s:db_open.obj
 0003:00003a84       ??_C@_0BC@OABO@unknown?5type?3?5?$CFlu?$AA@ 004c7a84     libdb41s:db_open.obj
 0003:00003a98       ??_C@_0CF@CNNE@Queue?5databases?5must?5be?5one?9per?9@ 004c7a98     libdb41s:db_open.obj
 0003:00003ac0       ??_C@_0CM@KHLL@DB_TRUNCATE?5illegal?5with?5multipl@ 004c7ac0     libdb41s:db_open.obj
 0003:00003aec       ??_C@_0DI@PAMM@multiple?5databases?5cannot?5be?5cre@ 004c7aec     libdb41s:db_open.obj
 0003:00003b24       ??_C@_0CP@EKNH@DB_TRUNCATE?5illegal?5with?5transac@ 004c7b24     libdb41s:db_open.obj
 0003:00003b54       ??_C@_0CI@IPGM@environment?5not?5created?5using?5DB@ 004c7b54     libdb41s:db_open.obj
 0003:00003b7c       ??_C@_0CK@IHGO@environment?5did?5not?5include?5a?5me@ 004c7b7c     libdb41s:db_open.obj
 0003:00003ba8       ??_C@_0BL@BOAI@environment?5not?5yet?5opened?$AA@ 004c7ba8     libdb41s:db_open.obj
 0003:00003bc4       ??_C@_0DM@HEP@?$CFs?3?5DB_UNKNOWN?5type?5specified?5wi@ 004c7bc4     libdb41s:db_open.obj
 0003:00003c00       ??_C@_08GJJC@DB?9?$DOopen?$AA@ 004c7c00     libdb41s:db_open.obj
 0003:00003c0c       ??_C@_0CK@LLCK@Allocation?5failed?5for?5join?5key?0?5@ 004c7c0c     libdb41s:db_join.obj
 0003:00003c38       ??_C@_0DN@NBCG@unsupported?5byte?5order?0?5only?5big@ 004c7c38     libdb41s:db_byteorder.obj
 0003:00003c78       ??_C@_09FCLE@txn_begin?$AA@ 004c7c78     libdb41s:txn.obj
 0003:00003c84       ??_C@_0DB@MBP@Unable?5to?5allocate?5memory?5for?5tr@ 004c7c84     libdb41s:txn.obj
 0003:00003cb8       ??_C@_0EG@JMGF@recovery?5of?5prepared?5but?5not?5yet@ 004c7cb8     libdb41s:txn.obj
 0003:00003d00       ??_C@_0CI@BEPD@operation?5not?5permitted?5during?5r@ 004c7d00     libdb41s:txn.obj
 0003:00003d28       ??_C@_0P@PDBJ@DB_TXN?9?$DOcommit?$AA@ 004c7d28     libdb41s:txn.obj
 0003:00003d38       ??_C@_0CF@JLOJ@DB_TXN?9?$DOprepare?3?5log_write?5faile@ 004c7d38     libdb41s:txn.obj
 0003:00003d60       ??_C@_0BE@IICO@DB_TXN?9?$DOset_timeout?$AA@ 004c7d60     libdb41s:txn.obj
 0003:00003d74       ??_C@_0BL@KAEO@not?5a?5restored?5transaction?$AA@ 004c7d74     libdb41s:txn.obj
 0003:00003d90       ??_C@_0BN@LFJE@transaction?5already?5prepared?$AA@ 004c7d90     libdb41s:txn.obj
 0003:00003db0       ??_C@_0BH@JFFE@transaction?5already?5?$CFs?$AA@ 004c7db0     libdb41s:txn.obj
 0003:00003dc8       ??_C@_07ODKM@aborted?$AA@  004c7dc8     libdb41s:txn.obj
 0003:00003dd0       ??_C@_09FNBJ@committed?$AA@ 004c7dd0     libdb41s:txn.obj
 0003:00003ddc       ??_C@_0CJ@KHAM@Prepare?5disallowed?5on?5child?5tran@ 004c7ddc     libdb41s:txn.obj
 0003:00003e08       ??_C@_0BP@JKJO@transaction?5has?5active?5cursors?$AA@ 004c7e08     libdb41s:txn.obj
 0003:00003e28       ??_C@_0DE@NLHE@DB_TXN?9?$DOabort?3?5Log?5undo?5failed?5f@ 004c7e28     libdb41s:txn.obj
 0003:00003e5c       ??_C@_0CP@JFGG@txn_checkpoint?3?5log?5failed?5at?5LS@ 004c7e5c     libdb41s:txn.obj
 0003:00003e8c       ??_C@_0DE@EIJJ@txn_checkpoint?3?5failed?5to?5flush?5@ 004c7e8c     libdb41s:txn.obj
 0003:00003ec0       ??_C@_0P@OOCG@txn_checkpoint?$AA@ 004c7ec0     libdb41s:txn.obj
 0003:00003ed0       ??_C@_0BM@PPDC@Child?5transaction?5is?5active?$AA@ 004c7ed0     libdb41s:txn.obj
 0003:00003eec       ??_C@_0BB@PJHI@DB_ENV?9?$DOtxn_stat?$AA@ 004c7eec     libdb41s:txn_stat.obj
 0003:00003f00       ??_C@_08NHBM@txn_stat?$AA@ 004c7f00     libdb41s:txn_stat.obj
 0003:00003f0c       ??_C@_0CK@OBHL@operation?5not?5permitted?5while?5in@ 004c7f0c     libdb41s:txn_recover.obj
 0003:00003f38       ??_C@_0M@CDDL@txn_recover?$AA@ 004c7f38     libdb41s:txn_recover.obj
 0003:00003f44       ??_C@_0P@LMFA@No?5log?5records?$AA@ 004c7f44     libdb41s:txn_recover.obj
 0003:00003f54       ??_C@_0EA@FJDG@DB_ENV?9?$DOrep_process_message?3?5con@ 004c7f54     libdb41s:rep_record.obj
 0003:00003f94       ??_C@_0ED@HFKD@DB_ENV?9?$DOrep_process_message?3?5unk@ 004c7f94     libdb41s:rep_record.obj
 0003:00003fd8       ??_C@_0CO@GDLP@unexpected?5log?5record?5version?5?$CFd@ 004c7fd8     libdb41s:rep_record.obj
 0003:00004008       ??_C@_0DH@KHKM@unexpected?5replication?5message?5v@ 004c8008     libdb41s:rep_record.obj
 0003:00004040       ??_C@_08DFDL@db?4m?$CF08x?$AA@ 004c8040     libdb41s:mut_win32.obj
 0003:0000404c       ??_C@_0O@LIHP@__db_dispatch?$AA@ 004c804c     libdb41s:db_dispatch.obj
 0003:0000405c       ??_C@_0BP@MMKK@Illegal?5record?5type?5?$CFlu?5in?5log?$AA@ 004c805c     libdb41s:db_dispatch.obj
 0003:0000407c       ??_C@_0CG@LHPJ@Fatal?5error?5in?5abort?5of?5an?5alloc@ 004c807c     libdb41s:db_dispatch.obj
 0003:000040a4       ??_C@_0BL@HPKE@Flushing?5free?5list?5to?5disk?$AA@ 004c80a4     libdb41s:db_dispatch.obj
 0003:000040c0       ??_C@_0BB@PIAK@?7timestamp?3?5?$CFld?6?$AA@ 004c80c0     libdb41s:txn_auto.obj
 0003:000040d4       ??_C@_0O@MLNA@?7opcode?3?5?$CFlu?6?$AA@ 004c80d4     libdb41s:txn_auto.obj
 0003:000040e4       ??_C@_0DO@JLNL@?$FL?$CFlu?$FN?$FL?$CFlu?$FN__txn_regop?3?5rec?3?5?$CFlu?5@ 004c80e4     libdb41s:txn_auto.obj
 0003:00004124       ??_C@_0BH@EOIA@?7last_ckp?3?5?$FL?$CFlu?$FN?$FL?$CFlu?$FN?6?$AA@ 004c8124     libdb41s:txn_auto.obj
 0003:0000413c       ??_C@_0BG@FKKH@?7ckp_lsn?3?5?$FL?$CFlu?$FN?$FL?$CFlu?$FN?6?$AA@ 004c813c     libdb41s:txn_auto.obj
 0003:00004154       ??_C@_0DM@KFOC@?$FL?$CFlu?$FN?$FL?$CFlu?$FN__txn_ckp?3?5rec?3?5?$CFlu?5tx@ 004c8154     libdb41s:txn_auto.obj
 0003:00004190       ??_C@_0BE@NGAI@?7c_lsn?3?5?$FL?$CFlu?$FN?$FL?$CFlu?$FN?6?$AA@ 004c8190     libdb41s:txn_auto.obj
 0003:000041a4       ??_C@_0P@JIGP@?7child?3?50x?$CFlx?6?$AA@ 004c81a4     libdb41s:txn_auto.obj
 0003:000041b4       ??_C@_0DO@GDPJ@?$FL?$CFlu?$FN?$FL?$CFlu?$FN__txn_child?3?5rec?3?5?$CFlu?5@ 004c81b4     libdb41s:txn_auto.obj
 0003:000041f4       ??_C@_0BI@EAAJ@?7begin_lsn?3?5?$FL?$CFlu?$FN?$FL?$CFlu?$FN?6?$AA@ 004c81f4     libdb41s:txn_auto.obj
 0003:0000420c       ??_C@_0M@ODCJ@?7bqual?3?5?$CFu?6?$AA@ 004c820c     libdb41s:txn_auto.obj
 0003:00004218       ??_C@_0M@LJOP@?7gtrid?3?5?$CFu?6?$AA@ 004c8218     libdb41s:txn_auto.obj
 0003:00004224       ??_C@_0BA@EGEJ@?7formatID?3?5?$CFld?6?$AA@ 004c8224     libdb41s:txn_auto.obj
 0003:00004234       ??_C@_02JBML@?$CFc?$AA@    004c8234     libdb41s:txn_auto.obj
 0003:00004238       ??_C@_04FMFM@?$CF?$CDx?5?$AA@ 004c8238     libdb41s:txn_auto.obj
 0003:00004240       ??_C@_06DNBK@?7xid?3?5?$AA@ 004c8240     libdb41s:txn_auto.obj
 0003:00004248       ??_C@_0EB@FLFJ@?$FL?$CFlu?$FN?$FL?$CFlu?$FN__txn_xa_regop?3?5rec?3?5?$CF@ 004c8248     libdb41s:txn_auto.obj
 0003:0000428c       ??_C@_09GIFF@?7max?3?5?$CFu?6?$AA@ 004c828c     libdb41s:txn_auto.obj
 0003:00004298       ??_C@_09DLDK@?7min?3?5?$CFu?6?$AA@ 004c8298     libdb41s:txn_auto.obj
 0003:000042a4       ??_C@_0EA@PDBN@?$FL?$CFlu?$FN?$FL?$CFlu?$FN__txn_recycle?3?5rec?3?5?$CFl@ 004c82a4     libdb41s:txn_auto.obj
 0003:000042e4       ??_C@_0DG@CBHH@txnid?5?$CFlx?5commit?5record?5found?0?5a@ 004c82e4     libdb41s:txn_rec.obj
 0003:0000431c       ??_C@_0BL@JIKP@Transaction?5not?5in?5list?5?$CFx?$AA@ 004c831c     libdb41s:txn_rec.obj
 0003:00004338       ??_C@_0N@LLGN@memp_trickle?$AA@ 004c8338     libdb41s:mp_trickle.obj
 0003:00004348       ??_C@_09EKML@memp_sync?$AA@ 004c8348     libdb41s:mp_sync.obj
 0003:00004354       ??_C@_0BO@IJPC@?$CFs?3?5unable?5to?5flush?5page?3?5?$CFlu?$AA@ 004c8354     libdb41s:mp_sync.obj
 0003:00004374       ??_C@_0BE@CPMK@?$CFs?3?5cannot?5sync?3?5?$CFs?$AA@ 004c8374     libdb41s:mp_sync.obj
 0003:00004388       ??_C@_05HGCM@trash?$AA@    004c8388     libdb41s:mp_stat.obj
 0003:00004390       ??_C@_06BFOJ@locked?$AA@   004c8390     libdb41s:mp_stat.obj
 0003:00004398       ??_C@_07KHMN@discard?$AA@  004c8398     libdb41s:mp_stat.obj
 0003:000043a0       ??_C@_07JPDC@created?$AA@  004c83a0     libdb41s:mp_stat.obj
 0003:000043a8       ??_C@_05NBNN@dirty?$AA@    004c83a8     libdb41s:mp_stat.obj
 0003:000043b0       ??_C@_08HGJL@callpgin?$AA@ 004c83b0     libdb41s:mp_stat.obj
 0003:000043bc       ??_C@_06CMJK@unlink?$AA@   004c83bc     libdb41s:mp_stat.obj
 0003:000043c4       ??_C@_09BID@temporary?$AA@ 004c83c4     libdb41s:mp_stat.obj
 0003:000043d0       ??_C@_06LLGB@extent?$AA@   004c83d0     libdb41s:mp_stat.obj
 0003:000043d8       ??_C@_09MLHN@no?5buffer?$AA@ 004c83d8     libdb41s:mp_stat.obj
 0003:000043e4       ??_C@_04ICJN@dead?$AA@     004c83e4     libdb41s:mp_stat.obj
 0003:000043ec       ??_C@_07KLDN@mmapped?$AA@  004c83ec     libdb41s:mp_stat.obj
 0003:000043f4       ??_C@_0BC@MII@DB_ENV?9?$DOmemp_stat?$AA@ 004c83f4     libdb41s:mp_stat.obj
 0003:00004408       ??_C@_09OIKG@memp_stat?$AA@ 004c8408     libdb41s:mp_stat.obj
 0003:00004414       ??_C@_0P@MFHE@?$CFs?6Cache?5?$CD?$CFd?3?6?$AA@ 004c8414     libdb41s:mp_stat.obj
 0003:00004424       ??_C@_0BP@KBPH@File?5?$CD?$CFd?3?5?$CFs?3?5per?9process?0?5?$CFs?6?$AA@ 004c8424     libdb41s:mp_stat.obj
 0003:00004444       ??_C@_0L@LCHL@read?1write?$AA@ 004c8444     libdb41s:mp_stat.obj
 0003:00004450       ??_C@_08JODI@readonly?$AA@ 004c8450     libdb41s:mp_stat.obj
 0003:0000445c       ??_C@_02JDLK@?$CFx?$AA@    004c845c     libdb41s:mp_stat.obj
 0003:00004460       ??_C@_08PHAJ@?6?7?5UID?3?5?$AA@ 004c8460     libdb41s:mp_stat.obj
 0003:0000446c       ??_C@_0CL@CDDH@?7?5type?5?$CFld?$DL?5ref?5?$CFlu?$DL?5blocks?5?$CFlu?$DL@ 004c846c     libdb41s:mp_stat.obj
 0003:00004498       ??_C@_0BM@GHHN@File?5?$CD?$CFd?3?5?$CFs?3?5pagesize?5?$CFlu?6?$AA@ 004c8498     libdb41s:mp_stat.obj
 0003:000044b4       ??_C@_0BN@FNOI@?$CFs?6Pool?5?$CIregion?5addr?50x?$CFlx?$CJ?6?$AA@ 004c84b4     libdb41s:mp_stat.obj
 0003:000044d4       ??_C@_0DC@MFOD@?$DN?9?$DN?9?$DN?9?$DN?9?$DN?9?$DN?9?$DN?9?$DN?9?$DN?9?$DN?9?$DN?9?$DN?9?$DN?9?$DN?9?$DN?9?$DN?9@ 004c84d4     libdb41s:mp_stat.obj
 0003:00004508       ??_C@_0BB@FGFB@memp_dump_region?$AA@ 004c8508     libdb41s:mp_stat.obj
 0003:0000451c       ??_C@_0L@DOKK@?$CFlu?5?$CI?$CFu?$CJ?3?6?$AA@ 004c851c     libdb41s:mp_stat.obj
 0003:00004528       ??_C@_0CM@DEAN@?7pageno?0?5file?0?5ref?0?5address?5?$FLLSN@ 004c8528     libdb41s:mp_stat.obj
 0003:00004554       ??_C@_0DG@LDCA@?$CFs?6BH?5hash?5table?5?$CI?$CFlu?5hash?5slots@ 004c8554     libdb41s:mp_stat.obj
 0003:0000458c       ??_C@_0CI@BFBD@?7?$CF5lu?0?5?5?5?$CD?$CFd?0?5?5?$CF2lu?0?5?$CF8lu?5?$FL?$CFlu?0?$CF@ 004c858c     libdb41s:mp_stat.obj
 0003:000045b4       ??_C@_0CF@PANC@?7?$CF5lu?0?5?$CFlu?0?5?$CF2lu?0?5?$CF8lu?5?$FL?$CFlu?0?$CFlu?$FN@ 004c85b4     libdb41s:mp_stat.obj
 0003:000045dc       ??_C@_0BG@DMNH@DB_ENV?9?$DOmemp_register?$AA@ 004c85dc     libdb41s:mp_register.obj
 0003:000045f4       ??_C@_0CL@FFJG@Unable?5to?5allocate?5memory?5for?5mp@ 004c85f4     libdb41s:mp_region.obj
 0003:00004620       ??_C@_0N@BHCH@memp_fcreate?$AA@ 004c8620     libdb41s:mp_fopen.obj
 0003:00004630       ??_C@_0O@BFAG@set_clear_len?$AA@ 004c8630     libdb41s:mp_fopen.obj
 0003:00004640       ??_C@_0L@DJOJ@set_fileid?$AA@ 004c8640     libdb41s:mp_fopen.obj
 0003:0000464c       ??_C@_09LJIB@set_ftype?$AA@ 004c864c     libdb41s:mp_fopen.obj
 0003:00004658       ??_C@_0P@KBBH@set_lsn_offset?$AA@ 004c8658     libdb41s:mp_fopen.obj
 0003:00004668       ??_C@_0N@KFII@set_pgcookie?$AA@ 004c8668     libdb41s:mp_fopen.obj
 0003:00004678       ??_C@_0BL@EPJH@Unknown?5priority?5value?3?5?$CFd?$AA@ 004c8678     libdb41s:mp_fopen.obj
 0003:00004694       ??_C@_0CM@ONJK@memp_fopen?3?5page?5sizes?5must?5be?5a@ 004c8694     libdb41s:mp_fopen.obj
 0003:000046c0       ??_C@_0CO@KHMA@memp_fopen?3?5temporary?5files?5can?8@ 004c86c0     libdb41s:mp_fopen.obj
 0003:000046f0       ??_C@_0CP@PBHL@memp_fopen?3?5clear?5length?5larger?5@ 004c86f0     libdb41s:mp_fopen.obj
 0003:00004720       ??_C@_0L@HCNP@memp_fopen?$AA@ 004c8720     libdb41s:mp_fopen.obj
 0003:0000472c       ??_C@_0DE@EMDE@?$CFs?3?5clear?5length?0?5page?5size?5or?5L@ 004c872c     libdb41s:mp_fopen.obj
 0003:00004760       ??_C@_0BE@ECLN@DB_MPOOLFILE?9?$DOclose?$AA@ 004c8760     libdb41s:mp_fopen.obj
 0003:00004774       ??_C@_0CC@PPJA@?$CFs?3?5close?3?5?$CFlu?5blocks?5left?5pinne@ 004c8774     libdb41s:mp_fopen.obj
 0003:00004798       ??_C@_0BA@BJEO@DB_ENV?9?$DOlock_id?$AA@ 004c8798     libdb41s:lock.obj
 0003:000047a8       ??_C@_0BH@EGBP@Locker?5still?5has?5locks?$AA@ 004c87a8     libdb41s:lock.obj
 0003:000047c0       ??_C@_0BF@OJHD@DB_ENV?9?$DOlock_id_free?$AA@ 004c87c0     libdb41s:lock.obj
 0003:000047d8       ??_C@_0BL@LII@Invalid?5lock?5operation?3?5?$CFd?$AA@ 004c87d8     libdb41s:lock.obj
 0003:000047f4       ??_C@_0BL@HGBJ@Parent?5locker?5is?5not?5valid?$AA@ 004c87f4     libdb41s:lock.obj
 0003:00004810       ??_C@_0BI@DEHK@Not?5a?5child?5transaction?$AA@ 004c8810     libdb41s:lock.obj
 0003:00004828       ??_C@_0BB@OFJE@DB_ENV?9?$DOlock_vec?$AA@ 004c8828     libdb41s:lock.obj
 0003:0000483c       ??_C@_0BB@GKHN@DB_ENV?9?$DOlock_get?$AA@ 004c883c     libdb41s:lock.obj
 0003:00004850       ??_C@_0BG@DPHE@Locker?5does?5not?5exist?$AA@ 004c8850     libdb41s:lock.obj
 0003:00004868       ??_C@_05MDFJ@locks?$AA@    004c8868     libdb41s:lock.obj
 0003:00004870       ??_C@_0CI@DBHB@DB_ENV?9?$DOlock_get?3?5invalid?5lock?5m@ 004c8870     libdb41s:lock.obj
 0003:00004898       ??_C@_0BC@LBPG@DB_LOCK?9?$DOlock_put?$AA@ 004c8898     libdb41s:lock.obj
 0003:000048ac       ??_C@_0P@BGAO@lock_downgrade?$AA@ 004c88ac     libdb41s:lock.obj
 0003:000048bc       ??_C@_0BK@FFCP@Freeing?5locker?5with?5locks?$AA@ 004c88bc     libdb41s:lock.obj
 0003:000048d8       ??_C@_0P@OOIJ@locker?5entries?$AA@ 004c88d8     libdb41s:lock.obj
 0003:000048e8       ??_C@_0CB@MDEC@No?5space?5for?5lock?5object?5storage@ 004c88e8     libdb41s:lock.obj
 0003:0000490c       ??_C@_0P@BFBC@object?5entries?$AA@ 004c890c     libdb41s:lock.obj
 0003:0000491c       ??_C@_0BC@MFNK@DB_ENV?9?$DOlock_stat?$AA@ 004c891c     libdb41s:lock_stat.obj
 0003:00004930       ??_C@_0BM@LKCJ@?$CFs?6Locks?5grouped?5by?5object?6?$AA@ 004c8930     libdb41s:lock_stat.obj
 0003:0000494c       ??_C@_0BN@GPFO@?$CFs?6Locks?5grouped?5by?5lockers?6?$AA@ 004c894c     libdb41s:lock_stat.obj
 0003:0000496c       ??_C@_04KCLJ@?$CFlu?7?$AA@ 004c896c     libdb41s:lock_stat.obj
 0003:00004974       ??_C@_0BF@GBHJ@?6?$CFs?6Conflict?5matrix?6?$AA@ 004c8974     libdb41s:lock_stat.obj
 0003:0000498c       ??_C@_0DP@MANA@?$CFs?3?5?$CFlu?0?5?$CFs?3?5?$CFlu?0?5?$CFs?3?5?$CFlu?0?6?$CFs?3?5?$CF@ 004c898c     libdb41s:lock_stat.obj
 0003:000049cc       ??_C@_0BC@LNLN@locker?5table?5size?$AA@ 004c89cc     libdb41s:lock_stat.obj
 0003:000049e0       ??_C@_0BC@JGNP@object?5table?5size?$AA@ 004c89e0     libdb41s:lock_stat.obj
 0003:000049f4       ??_C@_07EJDB@obj_off?$AA@  004c89f4     libdb41s:lock_stat.obj
 0003:000049fc       ??_C@_0L@FHFI@osynch_off?$AA@ 004c89fc     libdb41s:lock_stat.obj
 0003:00004a08       ??_C@_0L@BAL@locker_off?$AA@ 004c8a08     libdb41s:lock_stat.obj
 0003:00004a14       ??_C@_0L@MHBO@lsynch_off?$AA@ 004c8a14     libdb41s:lock_stat.obj
 0003:00004a20       ??_C@_07EPNF@need_dd?$AA@  004c8a20     libdb41s:lock_stat.obj
 0003:00004a28       ??_C@_0BL@NLKM@?$CFs?6Lock?5region?5parameters?6?$AA@ 004c8a28     libdb41s:lock_stat.obj
 0003:00004a44       ??_C@_0BB@EKLK@lock_dump_region?$AA@ 004c8a44     libdb41s:lock_stat.obj
 0003:00004a58       ??_C@_0BD@JOMH@?5lk?5expires?5?$CFs?4?$CFlu?$AA@ 004c8a58     libdb41s:lock_stat.obj
 0003:00004a6c       ??_C@_0P@PEOP@?5lk?5timeout?5?$CFu?$AA@ 004c8a6c     libdb41s:lock_stat.obj
 0003:00004a7c       ??_C@_0BA@PJCM@?5expires?5?$CFs?4?$CFlu?$AA@ 004c8a7c     libdb41s:lock_stat.obj
 0003:00004a8c       ??_C@_0P@HPBF@?$CFm?9?$CFd?9?$CFH?3?$CFM?3?$CFS?$AA@ 004c8a8c     libdb41s:lock_stat.obj
 0003:00004a9c       ??_C@_04IOJK@?5?$CFs?5?$AA@ 004c8a9c     libdb41s:lock_stat.obj
 0003:00004aa4       ??_C@_03MFGH@?5?5?5?$AA@   004c8aa4     libdb41s:lock_stat.obj
 0003:00004aa8       ??_C@_03IOKA@?$CID?$CJ?$AA@ 004c8aa8     libdb41s:lock_stat.obj
 0003:00004aac       ??_C@_0CO@BLMH@?$CF8lx?5dd?$DN?$CF2ld?5locks?5held?5?$CF?94d?5wri@ 004c8aac     libdb41s:lock_stat.obj
 0003:00004adc       ??_C@_0BN@KFJC@?$CF?98s?5?5?$CF?96s?5?5?$CF?96s?5?5?$CF?910s?5?5?$CFs?6?$AA@ 004c8adc     libdb41s:lock_stat.obj
 0003:00004afc       ??_C@_06PHOP@Locker?$AA@   004c8afc     libdb41s:lock_stat.obj
 0003:00004b04       ??_C@_04PFBC@Mode?$AA@     004c8b04     libdb41s:lock_stat.obj
 0003:00004b0c       ??_C@_05HCNL@Count?$AA@    004c8b0c     libdb41s:lock_stat.obj
 0003:00004b14       ??_C@_06IOLI@Status?$AA@   004c8b14     libdb41s:lock_stat.obj
 0003:00004b1c       ??_C@_0BO@COGJ@?9?9?9?9?9?9?9?9?9?9?9?5Object?5?9?9?9?9?9?9?9?9?9?9?$AA@ 004c8b1c     libdb41s:lock_stat.obj
 0003:00004b3c       ??_C@_06BHKF@0x?$CFlx?5?$AA@ 004c8b3c     libdb41s:lock_stat.obj
 0003:00004b44       ??_C@_0L@KHMK@?$CF?97s?5?5?$CFlu?6?$AA@ 004c8b44     libdb41s:lock_stat.obj
 0003:00004b50       ??_C@_06DPKL@handle?$AA@   004c8b50     libdb41s:lock_stat.obj
 0003:00004b58       ??_C@_06JNOM@record?$AA@   004c8b58     libdb41s:lock_stat.obj
 0003:00004b60       ??_C@_04NHMG@page?$AA@     004c8b60     libdb41s:lock_stat.obj
 0003:00004b68       ??_C@_05MNFC@?$CF?920s?$AA@ 004c8b68     libdb41s:lock_stat.obj
 0003:00004b70       ??_C@_0BG@FCOH@?$CI?$CFlx?5?$CFlx?5?$CFlx?5?$CFlx?5?$CFlx?$CJ?$AA@ 004c8b70     libdb41s:lock_stat.obj
 0003:00004b88       ??_C@_0BK@JCCB@?$CF8lx?5?5?$CF?96s?5?5?$CF6lu?5?5?$CF?910s?5?5?$AA@ 004c8b88     libdb41s:lock_stat.obj
 0003:00004ba4       ??_C@_07BHDD@EXPIRED?$AA@  004c8ba4     libdb41s:lock_stat.obj
 0003:00004bac       ??_C@_07DBFF@PENDING?$AA@  004c8bac     libdb41s:lock_stat.obj
 0003:00004bb4       ??_C@_04KLDE@HELD?$AA@     004c8bb4     libdb41s:lock_stat.obj
 0003:00004bbc       ??_C@_04MICK@FREE?$AA@     004c8bbc     libdb41s:lock_stat.obj
 0003:00004bc4       ??_C@_05EFDD@ERROR?$AA@    004c8bc4     libdb41s:lock_stat.obj
 0003:00004bcc       ??_C@_05FHJL@ABORT?$AA@    004c8bcc     libdb41s:lock_stat.obj
 0003:00004bd4       ??_C@_04IDBB@WAIT?$AA@     004c8bd4     libdb41s:lock_stat.obj
 0003:00004bdc       ??_C@_09KKED@WAS_WRITE?$AA@ 004c8bdc     libdb41s:lock_stat.obj
 0003:00004be8       ??_C@_05FIFP@WRITE?$AA@    004c8be8     libdb41s:lock_stat.obj
 0003:00004bf0       ??_C@_04GHHF@READ?$AA@     004c8bf0     libdb41s:lock_stat.obj
 0003:00004bf8       ??_C@_02JICL@NG?$AA@       004c8bf8     libdb41s:lock_stat.obj
 0003:00004bfc       ??_C@_06IPH@IWRITE?$AA@    004c8bfc     libdb41s:lock_stat.obj
 0003:00004c04       ??_C@_03LPMO@IWR?$AA@      004c8c04     libdb41s:lock_stat.obj
 0003:00004c08       ??_C@_05MPCO@IREAD?$AA@    004c8c08     libdb41s:lock_stat.obj
 0003:00004c10       ??_C@_0L@GFOC@DIRTY_READ?$AA@ 004c8c10     libdb41s:lock_stat.obj
 0003:00004c1c       ??_C@_0DP@OPDL@DB_ENV?9?$DOlock_detect?3?5unknown?5dea@ 004c8c1c     libdb41s:lock_deadlock.obj
 0003:00004c5c       ??_C@_0BE@NJNL@Aborting?5locker?5?$CFlx?$AA@ 004c8c5c     libdb41s:lock_deadlock.obj
 0003:00004c70       ??_C@_0CE@PPEF@warning?3?5unable?5to?5abort?5locker?5@ 004c8c70     libdb41s:lock_deadlock.obj
 0003:00004c94       ??_C@_0BE@DAMO@DB_ENV?9?$DOlock_detect?$AA@ 004c8c94     libdb41s:lock_deadlock.obj
 0003:00004ca8       ??_C@_0BI@POKI@No?5locks?5for?5locker?5?$CFlu?$AA@ 004c8ca8     libdb41s:lock_deadlock.obj
 0003:00004cc0       ??_C@_0M@FLBE@?$CFlu?5lockers?$AA@ 004c8cc0     libdb41s:lock_deadlock.obj
 0003:00004ccc       ??_C@_0CN@EOH@Unable?5to?5allocate?5memory?5for?5th@ 004c8ccc     libdb41s:log.obj
 0003:00004cfc       ??_C@_0DB@KAKH@Finding?5last?5valid?5log?5LSN?3?5file@ 004c8cfc     libdb41s:log.obj
 0003:00004d30       ??_C@_0BJ@NHFE@Invalid?5log?5file?3?5?$CFs?3?5?$CFs?$AA@ 004c8d30     libdb41s:log.obj
 0003:00004d4c       ??_C@_04EPDM@log?4?$AA@    004c8d4c     libdb41s:log.obj
 0003:00004d54       ??_C@_01PJCK@?4?$AA@       004c8d54     libdb41s:log.obj
 0003:00004d58       ??_C@_0BK@OHFK@Ignoring?5log?5file?3?5?$CFs?3?5?$CFs?$AA@ 004c8d58     libdb41s:log.obj
 0003:00004d74       ??_C@_0DD@LNGP@Ignoring?5log?5file?3?5?$CFs?3?5unsupport@ 004c8d74     libdb41s:log.obj
 0003:00004da8       ??_C@_0DB@LGNC@Ignoring?5log?5file?3?5?$CFs?3?5magic?5num@ 004c8da8     libdb41s:log.obj
 0003:00004ddc       ??_C@_0BN@GNAE@log?5record?5checksum?5mismatch?$AA@ 004c8ddc     libdb41s:log.obj
 0003:00004dfc       ??_C@_0BJ@IFHF@log?5record?5size?5mismatch?$AA@ 004c8dfc     libdb41s:log.obj
 0003:00004e18       ??_C@_0BB@CCPG@DB_ENV?9?$DOlog_stat?$AA@ 004c8e18     libdb41s:log.obj
 0003:00004e2c       ??_C@_0DC@MBDK@DB_ENV?9?$DOlog_put?5is?5illegal?5on?5re@ 004c8e2c     libdb41s:log_put.obj
 0003:00004e60       ??_C@_0BA@LDNG@DB_ENV?9?$DOlog_put?$AA@ 004c8e60     libdb41s:log_put.obj
 0003:00004e70       ??_C@_0DG@CDMJ@DB_ENV?9?$DOlog_put?3?5record?5larger?5t@ 004c8e70     libdb41s:log_put.obj
 0003:00004ea8       ??_C@_0BP@JMFB@Short?5read?5while?5restoring?5log?$AA@ 004c8ea8     libdb41s:log_put.obj
 0003:00004ec8       ??_C@_0BC@KHIL@DB_ENV?9?$DOlog_flush?$AA@ 004c8ec8     libdb41s:log_put.obj
 0003:00004edc       ??_C@_0CP@HMCH@DB_ENV?9?$DOlog_flush?3?5LSN?5past?5curr@ 004c8edc     libdb41s:log_put.obj
 0003:00004f0c       ??_C@_0CL@PAGF@DB_ENV?9?$DOlog_file?3?5name?5buffer?5is@ 004c8f0c     libdb41s:log_put.obj
 0003:00004f38       ??_C@_0BB@JGON@DB_ENV?9?$DOlog_file?$AA@ 004c8f38     libdb41s:log_put.obj
 0003:00004f4c       ??_C@_0BI@PJAI@DB_ENV?9?$DOlog_put?3?5?$CFs?3?5?$CFs?$AA@ 004c8f4c     libdb41s:log_put.obj
 0003:00004f64       ??_C@_08IDHC@log?4?$CF05d?$AA@ 004c8f64     libdb41s:log_put.obj
 0003:00004f70       ??_C@_0BN@ONAL@?$CFs?3?5log?5file?5open?5failed?3?5?$CFs?$AA@ 004c8f70     libdb41s:log_put.obj
 0003:00004f90       ??_C@_09KFAD@log?4?$CF010d?$AA@ 004c8f90     libdb41s:log_put.obj
 0003:00004f9c       ??_C@_0BD@FOEI@DB_ENV?9?$DOlog_cursor?$AA@ 004c8f9c     libdb41s:log_get.obj
 0003:00004fb0       ??_C@_0P@EEFM@DB_LOGC?9?$DOclose?$AA@ 004c8fb0     libdb41s:log_get.obj
 0003:00004fc0       ??_C@_0N@HGNM@DB_LOGC?9?$DOget?$AA@ 004c8fc0     libdb41s:log_get.obj
 0003:00004fd0       ??_C@_0BK@KLNO@DB_LOGC?9?$DOget?3?5invalid?5LSN?$AA@ 004c8fd0     libdb41s:log_get.obj
 0003:00004fec       ??_C@_0DL@OIOE@Encountered?5zero?5length?5records?5@ 004c8fec     libdb41s:log_get.obj
 0003:00005028       ??_C@_0DE@LLAJ@DB_LOGC?9?$DOget?3?5catastrophic?5recov@ 004c9028     libdb41s:log_get.obj
 0003:0000505c       ??_C@_0CL@GIDC@DB_LOGC?9?$DOget?3?5log?5record?5checksu@ 004c905c     libdb41s:log_get.obj
 0003:00005088       ??_C@_0CI@JOGJ@DB_LOGC?9?$DOget?3?5invalid?5log?5record@ 004c9088     libdb41s:log_get.obj
 0003:000050b0       ??_C@_0BB@FCFH@DB_LOGC?9?$DOget?3?5?$CFs?$AA@ 004c90b0     libdb41s:log_get.obj
 0003:000050c4       ??_C@_0BH@JAMB@DB_LOGC?9?$DOget?3?5read?3?5?$CFs?$AA@ 004c90c4     libdb41s:log_get.obj
 0003:000050dc       ??_C@_0BH@OPLP@DB_LOGC?9?$DOget?3?5seek?3?5?$CFs?$AA@ 004c90dc     libdb41s:log_get.obj
 0003:000050f4       ??_C@_0BF@JMGG@DB_LOGC?9?$DOget?3?5?$CFs?3?5?$CFs?$AA@ 004c90f4     libdb41s:log_get.obj
 0003:0000510c       ??_C@_0BJ@BNMM@DB_LOGC?9?$DOget?3?5short?5read?$AA@ 004c910c     libdb41s:log_get.obj
 0003:00005128       ??_C@_0BE@MGBE@DB_ENV?9?$DOlog_archive?$AA@ 004c9128     libdb41s:log_archive.obj
 0003:0000513c       ??_C@_0CP@JOBK@DB_ENV?9?$DOlog_archive?3?5unable?5to?5r@ 004c913c     libdb41s:log_archive.obj
 0003:0000516c       ??_C@_0CE@DPGL@DB_ENV?9?$DOlog_archive?3?5bad?5log?5rec@ 004c916c     libdb41s:log_archive.obj
 0003:00005190       ??_C@_0CE@IJDN@Unable?5to?5allocate?5memory?5for?5mu@ 004c9190     libdb41s:mutex.obj
 0003:000051b4       ??_C@_0DE@CCOK@Recovery?5function?5for?5LSN?5?$CFlu?5?$CFl@ 004c91b4     libdb41s:env_recover.obj
 0003:000051e8       ??_C@_0BF@PBBJ@?$CFs?5?$CFlx?5?$CFs?5?$FL?$CFlu?$FN?$FL?$CFlu?$FN?$AA@ 004c91e8     libdb41s:env_recover.obj
 0003:00005200       ??_C@_0BH@LCNG@Maximum?5transaction?5ID?$AA@ 004c9200     libdb41s:env_recover.obj
 0003:00005218       ??_C@_0BE@FFDI@Recovery?5checkpoint?$AA@ 004c9218     libdb41s:env_recover.obj
 0003:0000522c       ??_C@_0BL@CFCJ@Recovery?5complete?5at?5?$CF?424s?$AA@ 004c922c     libdb41s:env_recover.obj
 0003:00005248       ??_C@_0BL@NJDE@First?5log?5record?5not?5found?$AA@ 004c9248     libdb41s:env_recover.obj
 0003:00005264       ??_C@_07OHGK@forward?$AA@  004c9264     libdb41s:env_recover.obj
 0003:0000526c       ??_C@_08OIHD@backward?$AA@ 004c926c     libdb41s:env_recover.obj
 0003:00005278       ??_C@_0CC@MLJN@Recovery?5starting?5from?5?$FL?$CFlu?$FN?$FL?$CFlu@ 004c9278     libdb41s:env_recover.obj
 0003:0000529c       ??_C@_0CL@NCFC@Checkpoint?5LSN?5record?5?$FL?$CFld?$FN?$FL?$CFld?$FN@ 004c929c     libdb41s:env_recover.obj
 0003:000052c8       ??_C@_0CI@IPIA@Invalid?5checkpoint?5record?5at?5?$FL?$CFl@ 004c92c8     libdb41s:env_recover.obj
 0003:000052f0       ??_C@_0BK@GOML@Last?5log?5record?5not?5found?$AA@ 004c92f0     libdb41s:env_recover.obj
 0003:0000530c       ??_C@_0DD@INBM@Invalid?5recovery?5timestamp?5?$CFs?$DL?5e@ 004c930c     libdb41s:env_recover.obj
 0003:00005340       ??_C@_0CJ@FKIA@Recovery?5function?5for?5LSN?5?$CFlu?5?$CFl@ 004c9340     libdb41s:env_recover.obj
 0003:0000536c       ??_C@_0BB@BAHK@?7meta_pgno?3?5?$CFlu?6?$AA@ 004c936c     libdb41s:qam_auto.obj
 0003:00005380       ??_C@_0N@KMAD@?7recno?3?5?$CFlu?6?$AA@ 004c9380     libdb41s:qam_auto.obj
 0003:00005390       ??_C@_0O@ODJJ@?7fileid?3?5?$CFld?6?$AA@ 004c9390     libdb41s:qam_auto.obj
 0003:000053a0       ??_C@_0EB@OEL@?$FL?$CFlu?$FN?$FL?$CFlu?$FN__qam_incfirst?3?5rec?3?5?$CF@ 004c93a0     libdb41s:qam_auto.obj
 0003:000053e4       ??_C@_0BG@DBLO@?7metalsn?3?5?$FL?$CFlu?$FN?$FL?$CFlu?$FN?6?$AA@ 004c93e4     libdb41s:qam_auto.obj
 0003:000053fc       ??_C@_0P@DMIA@?7new_cur?3?5?$CFlu?6?$AA@ 004c93fc     libdb41s:qam_auto.obj
 0003:0000540c       ??_C@_0P@PIDP@?7old_cur?3?5?$CFlu?6?$AA@ 004c940c     libdb41s:qam_auto.obj
 0003:0000541c       ??_C@_0BB@CEFF@?7new_first?3?5?$CFlu?6?$AA@ 004c941c     libdb41s:qam_auto.obj
 0003:00005430       ??_C@_0BB@KBEH@?7old_first?3?5?$CFlu?6?$AA@ 004c9430     libdb41s:qam_auto.obj
 0003:00005444       ??_C@_0DO@FMLD@?$FL?$CFlu?$FN?$FL?$CFlu?$FN__qam_mvptr?3?5rec?3?5?$CFlu?5@ 004c9444     libdb41s:qam_auto.obj
 0003:00005484       ??_C@_0M@PGAO@?7indx?3?5?$CFlu?6?$AA@ 004c9484     libdb41s:qam_auto.obj
 0003:00005490       ??_C@_0M@NKGI@?7pgno?3?5?$CFlu?6?$AA@ 004c9490     libdb41s:qam_auto.obj
 0003:0000549c       ??_C@_0BC@FHIK@?7lsn?3?5?$FL?$CFlu?$FN?$FL?$CFlu?$FN?6?$AA@ 004c949c     libdb41s:qam_auto.obj
 0003:000054b0       ??_C@_0DM@CHCE@?$FL?$CFlu?$FN?$FL?$CFlu?$FN__qam_del?3?5rec?3?5?$CFlu?5tx@ 004c94b0     libdb41s:qam_auto.obj
 0003:000054ec       ??_C@_0L@CMNP@?7olddata?3?5?$AA@ 004c94ec     libdb41s:qam_auto.obj
 0003:000054f8       ??_C@_0N@GND@?7vflag?3?5?$CFlu?6?$AA@ 004c94f8     libdb41s:qam_auto.obj
 0003:00005508       ??_C@_07KDLD@?7data?3?5?$AA@ 004c9508     libdb41s:qam_auto.obj
 0003:00005510       ??_C@_0DM@EPFH@?$FL?$CFlu?$FN?$FL?$CFlu?$FN__qam_add?3?5rec?3?5?$CFlu?5tx@ 004c9510     libdb41s:qam_auto.obj
 0003:0000554c       ??_C@_0DP@KJJP@?$FL?$CFlu?$FN?$FL?$CFlu?$FN__qam_delext?3?5rec?3?5?$CFlu@ 004c954c     libdb41s:qam_auto.obj
 0003:0000558c       ??_C@_06MLGL@?7key?3?5?$AA@ 004c958c     libdb41s:hash_auto.obj
 0003:00005594       ??_C@_0BG@BECH@?7pagelsn?3?5?$FL?$CFlu?$FN?$FL?$CFlu?$FN?6?$AA@ 004c9594     libdb41s:hash_auto.obj
 0003:000055ac       ??_C@_0L@EACE@?7ndx?3?5?$CFlu?6?$AA@ 004c95ac     libdb41s:hash_auto.obj
 0003:000055b8       ??_C@_0DP@IDEA@?$FL?$CFlu?$FN?$FL?$CFlu?$FN__ham_insdel?3?5rec?3?5?$CFlu@ 004c95b8     libdb41s:hash_auto.obj
 0003:000055f8       ??_C@_0BG@GLHH@?7nextlsn?3?5?$FL?$CFlu?$FN?$FL?$CFlu?$FN?6?$AA@ 004c95f8     libdb41s:hash_auto.obj
 0003:00005610       ??_C@_0BB@JNKK@?7next_pgno?3?5?$CFlu?6?$AA@ 004c9610     libdb41s:hash_auto.obj
 0003:00005624       ??_C@_0BA@NOCO@?7new_pgno?3?5?$CFlu?6?$AA@ 004c9624     libdb41s:hash_auto.obj
 0003:00005634       ??_C@_0BG@ICNA@?7prevlsn?3?5?$FL?$CFlu?$FN?$FL?$CFlu?$FN?6?$AA@ 004c9634     libdb41s:hash_auto.obj
 0003:0000564c       ??_C@_0BB@BLHC@?7prev_pgno?3?5?$CFlu?6?$AA@ 004c964c     libdb41s:hash_auto.obj
 0003:00005660       ??_C@_0EA@CBNP@?$FL?$CFlu?$FN?$FL?$CFlu?$FN__ham_newpage?3?5rec?3?5?$CFl@ 004c9660     libdb41s:hash_auto.obj
 0003:000056a0       ??_C@_0N@LDAF@?7pageimage?3?5?$AA@ 004c96a0     libdb41s:hash_auto.obj
 0003:000056b0       ??_C@_0EC@PEDJ@?$FL?$CFlu?$FN?$FL?$CFlu?$FN__ham_splitdata?3?5rec?3?5@ 004c96b0     libdb41s:hash_auto.obj
 0003:000056f4       ??_C@_0P@FJAJ@?7makedup?3?5?$CFlu?6?$AA@ 004c96f4     libdb41s:hash_auto.obj
 0003:00005704       ??_C@_0L@JJHB@?7newitem?3?5?$AA@ 004c9704     libdb41s:hash_auto.obj
 0003:00005710       ??_C@_0L@MIIH@?7olditem?3?5?$AA@ 004c9710     libdb41s:hash_auto.obj
 0003:0000571c       ??_C@_0L@BELI@?7off?3?5?$CFld?6?$AA@ 004c971c     libdb41s:hash_auto.obj
 0003:00005728       ??_C@_0EA@JGBO@?$FL?$CFlu?$FN?$FL?$CFlu?$FN__ham_replace?3?5rec?3?5?$CFl@ 004c9728     libdb41s:hash_auto.obj
 0003:00005768       ??_C@_07NNLM@?7page?3?5?$AA@ 004c9768     libdb41s:hash_auto.obj
 0003:00005770       ??_C@_0BH@IMCO@?7nnextlsn?3?5?$FL?$CFlu?$FN?$FL?$CFlu?$FN?6?$AA@ 004c9770     libdb41s:hash_auto.obj
 0003:00005788       ??_C@_0BC@GFDE@?7nnext_pgno?3?5?$CFlu?6?$AA@ 004c9788     libdb41s:hash_auto.obj
 0003:0000579c       ??_C@_0EB@GEDP@?$FL?$CFlu?$FN?$FL?$CFlu?$FN__ham_copypage?3?5rec?3?5?$CF@ 004c979c     libdb41s:hash_auto.obj
 0003:000057e0       ??_C@_0BA@GDAH@?7newalloc?3?5?$CFlu?6?$AA@ 004c97e0     libdb41s:hash_auto.obj
 0003:000057f0       ??_C@_0N@IAOB@?7mpgno?3?5?$CFlu?6?$AA@ 004c97f0     libdb41s:hash_auto.obj
 0003:00005800       ??_C@_0BH@GGCD@?7mmetalsn?3?5?$FL?$CFlu?$FN?$FL?$CFlu?$FN?6?$AA@ 004c9800     libdb41s:hash_auto.obj
 0003:00005818       ??_C@_0O@CKLL@?7mmpgno?3?5?$CFlu?6?$AA@ 004c9818     libdb41s:hash_auto.obj
 0003:00005828       ??_C@_0O@LILF@?7bucket?3?5?$CFlu?6?$AA@ 004c9828     libdb41s:hash_auto.obj
 0003:00005838       ??_C@_0EC@MAFO@?$FL?$CFlu?$FN?$FL?$CFlu?$FN__ham_metagroup?3?5rec?3?5@ 004c9838     libdb41s:hash_auto.obj
 0003:0000587c       ??_C@_0M@FJKK@?7free?3?5?$CFlu?6?$AA@ 004c987c     libdb41s:hash_auto.obj
 0003:00005888       ??_C@_0L@PHHK@?7num?3?5?$CFlu?6?$AA@ 004c9888     libdb41s:hash_auto.obj
 0003:00005894       ??_C@_0BC@MDHF@?7start_pgno?3?5?$CFlu?6?$AA@ 004c9894     libdb41s:hash_auto.obj
 0003:000058a8       ??_C@_0BH@CEBB@?7meta_lsn?3?5?$FL?$CFlu?$FN?$FL?$CFlu?$FN?6?$AA@ 004c98a8     libdb41s:hash_auto.obj
 0003:000058c0       ??_C@_0ED@HNHN@?$FL?$CFlu?$FN?$FL?$CFlu?$FN__ham_groupalloc?3?5rec?3@ 004c98c0     libdb41s:hash_auto.obj
 0003:00005904       ??_C@_0N@JMJB@?7order?3?5?$CFlu?6?$AA@ 004c9904     libdb41s:hash_auto.obj
 0003:00005914       ??_C@_0O@ECIN@?7is_dup?3?5?$CFld?6?$AA@ 004c9914     libdb41s:hash_auto.obj
 0003:00005924       ??_C@_0L@EGDP@?7add?3?5?$CFld?6?$AA@ 004c9924     libdb41s:hash_auto.obj
 0003:00005930       ??_C@_0P@EMME@?7dup_off?3?5?$CFlu?6?$AA@ 004c9930     libdb41s:hash_auto.obj
 0003:00005940       ??_C@_0L@ICLN@?7len?3?5?$CFlu?6?$AA@ 004c9940     libdb41s:hash_auto.obj
 0003:0000594c       ??_C@_0DP@ECBF@?$FL?$CFlu?$FN?$FL?$CFlu?$FN__ham_curadj?3?5rec?3?5?$CFlu@ 004c994c     libdb41s:hash_auto.obj
 0003:0000598c       ??_C@_0BA@PCEI@?7new_indx?3?5?$CFlu?6?$AA@ 004c998c     libdb41s:hash_auto.obj
 0003:0000599c       ??_C@_0BA@OAIM@?7old_indx?3?5?$CFlu?6?$AA@ 004c999c     libdb41s:hash_auto.obj
 0003:000059ac       ??_C@_0BA@MMOK@?7old_pgno?3?5?$CFlu?6?$AA@ 004c99ac     libdb41s:hash_auto.obj
 0003:000059bc       ??_C@_0M@HOHI@?7mode?3?5?$CFld?6?$AA@ 004c99bc     libdb41s:hash_auto.obj
 0003:000059c8       ??_C@_0DO@OPBP@?$FL?$CFlu?$FN?$FL?$CFlu?$FN__ham_chgpg?3?5rec?3?5?$CFlu?5@ 004c99c8     libdb41s:hash_auto.obj
 0003:00005a08       ??_C@_0L@IJLO@?7mode?3?5?$CFo?6?$AA@ 004c9a08     libdb41s:fileops_auto.obj
 0003:00005a14       ??_C@_0P@HMLJ@?7appname?3?5?$CFlu?6?$AA@ 004c9a14     libdb41s:fileops_auto.obj
 0003:00005a24       ??_C@_07DHEL@?7name?3?5?$AA@ 004c9a24     libdb41s:fileops_auto.obj
 0003:00005a2c       ??_C@_0DP@OEMF@?$FL?$CFlu?$FN?$FL?$CFlu?$FN__fop_create?3?5rec?3?5?$CFlu@ 004c9a2c     libdb41s:fileops_auto.obj
 0003:00005a6c       ??_C@_06POLK@?7fid?3?5?$AA@ 004c9a6c     libdb41s:fileops_auto.obj
 0003:00005a74       ??_C@_0DP@HAPB@?$FL?$CFlu?$FN?$FL?$CFlu?$FN__fop_remove?3?5rec?3?5?$CFlu@ 004c9a74     libdb41s:fileops_auto.obj
 0003:00005ab4       ??_C@_0M@JPEI@?7flag?3?5?$CFlu?6?$AA@ 004c9ab4     libdb41s:fileops_auto.obj
 0003:00005ac0       ??_C@_0O@BMMF@?7offset?3?5?$CFlu?6?$AA@ 004c9ac0     libdb41s:fileops_auto.obj
 0003:00005ad0       ??_C@_0DO@MLPC@?$FL?$CFlu?$FN?$FL?$CFlu?$FN__fop_write?3?5rec?3?5?$CFlu?5@ 004c9ad0     libdb41s:fileops_auto.obj
 0003:00005b10       ??_C@_09ECIF@?7fileid?3?5?$AA@ 004c9b10     libdb41s:fileops_auto.obj
 0003:00005b1c       ??_C@_0L@OJNB@?7newname?3?5?$AA@ 004c9b1c     libdb41s:fileops_auto.obj
 0003:00005b28       ??_C@_0L@LICH@?7oldname?3?5?$AA@ 004c9b28     libdb41s:fileops_auto.obj
 0003:00005b34       ??_C@_0DP@DJCO@?$FL?$CFlu?$FN?$FL?$CFlu?$FN__fop_rename?3?5rec?3?5?$CFlu@ 004c9b34     libdb41s:fileops_auto.obj
 0003:00005b74       ??_C@_0L@PBM@?7tmp_fid?3?5?$AA@ 004c9b74     libdb41s:fileops_auto.obj
 0003:00005b80       ??_C@_0M@LOD@?7real_fid?3?5?$AA@ 004c9b80     libdb41s:fileops_auto.obj
 0003:00005b8c       ??_C@_0EE@BBG@?$FL?$CFlu?$FN?$FL?$CFlu?$FN__fop_file_remove?3?5rec@ 004c9b8c     libdb41s:fileops_auto.obj
 0003:00005bd0       ??_C@_0M@FFKB@?7id?3?50x?$CFlx?6?$AA@ 004c9bd0     libdb41s:dbreg_auto.obj
 0003:00005bdc       ??_C@_0P@FNGI@?7ftype?3?50x?$CFlx?6?$AA@ 004c9bdc     libdb41s:dbreg_auto.obj
 0003:00005bec       ??_C@_06BMIA@?7uid?3?5?$AA@ 004c9bec     libdb41s:dbreg_auto.obj
 0003:00005bf4       ??_C@_0ED@BCOF@?$FL?$CFlu?$FN?$FL?$CFlu?$FN__dbreg_register?3?5rec?3@ 004c9bf4     libdb41s:dbreg_auto.obj
 0003:00005c38       ??_C@_06NKPM@?7dbt?3?5?$AA@ 004c9c38     libdb41s:db_auto.obj
 0003:00005c40       ??_C@_06GINI@?7hdr?3?5?$AA@ 004c9c40     libdb41s:db_auto.obj
 0003:00005c48       ??_C@_0O@HAHJ@?7nbytes?3?5?$CFlu?6?$AA@ 004c9c48     libdb41s:db_auto.obj
 0003:00005c58       ??_C@_0DO@LPMO@?$FL?$CFlu?$FN?$FL?$CFlu?$FN__db_addrem?3?5rec?3?5?$CFlu?5@ 004c9c58     libdb41s:db_auto.obj
 0003:00005c98       ??_C@_0DL@JEGO@?$FL?$CFlu?$FN?$FL?$CFlu?$FN__db_big?3?5rec?3?5?$CFlu?5txn@ 004c9c98     libdb41s:db_auto.obj
 0003:00005cd4       ??_C@_0O@EIFH@?7adjust?3?5?$CFld?6?$AA@ 004c9cd4     libdb41s:db_auto.obj
 0003:00005ce4       ??_C@_0DN@DJPH@?$FL?$CFlu?$FN?$FL?$CFlu?$FN__db_ovref?3?5rec?3?5?$CFlu?5t@ 004c9ce4     libdb41s:db_auto.obj
 0003:00005d24       ??_C@_0BH@NEDM@?7lsn_next?3?5?$FL?$CFlu?$FN?$FL?$CFlu?$FN?6?$AA@ 004c9d24     libdb41s:db_auto.obj
 0003:00005d3c       ??_C@_0M@CAAE@?7next?3?5?$CFlu?6?$AA@ 004c9d3c     libdb41s:db_auto.obj
 0003:00005d48       ??_C@_0BH@EBAJ@?7lsn_prev?3?5?$FL?$CFlu?$FN?$FL?$CFlu?$FN?6?$AA@ 004c9d48     libdb41s:db_auto.obj
 0003:00005d60       ??_C@_0M@BPOH@?7prev?3?5?$CFlu?6?$AA@ 004c9d60     libdb41s:db_auto.obj
 0003:00005d6c       ??_C@_0DO@EMPI@?$FL?$CFlu?$FN?$FL?$CFlu?$FN__db_relink?3?5rec?3?5?$CFlu?5@ 004c9d6c     libdb41s:db_auto.obj
 0003:00005dac       ??_C@_0BB@LHGC@?7arg_flags?3?5?$CFlu?6?$AA@ 004c9dac     libdb41s:db_auto.obj
 0003:00005dc0       ??_C@_05BMOJ@?7op?3?5?$AA@ 004c9dc0     libdb41s:db_auto.obj
 0003:00005dc8       ??_C@_0DN@GAIK@?$FL?$CFlu?$FN?$FL?$CFlu?$FN__db_debug?3?5rec?3?5?$CFlu?5t@ 004c9dc8     libdb41s:db_auto.obj
 0003:00005e08       ??_C@_0DM@MPPL@?$FL?$CFlu?$FN?$FL?$CFlu?$FN__db_noop?3?5rec?3?5?$CFlu?5tx@ 004c9e08     libdb41s:db_auto.obj
 0003:00005e44       ??_C@_0N@OCFF@?7ptype?3?5?$CFlu?6?$AA@ 004c9e44     libdb41s:db_auto.obj
 0003:00005e54       ??_C@_0BH@MIDE@?7page_lsn?3?5?$FL?$CFlu?$FN?$FL?$CFlu?$FN?6?$AA@ 004c9e54     libdb41s:db_auto.obj
 0003:00005e6c       ??_C@_0EA@EGPP@?$FL?$CFlu?$FN?$FL?$CFlu?$FN__db_pg_alloc?3?5rec?3?5?$CFl@ 004c9e6c     libdb41s:db_auto.obj
 0003:00005eac       ??_C@_09MBCM@?7header?3?5?$AA@ 004c9eac     libdb41s:db_auto.obj
 0003:00005eb8       ??_C@_0DP@GJAF@?$FL?$CFlu?$FN?$FL?$CFlu?$FN__db_pg_free?3?5rec?3?5?$CFlu@ 004c9eb8     libdb41s:db_auto.obj
 0003:00005ef8       ??_C@_0DN@NIJB@?$FL?$CFlu?$FN?$FL?$CFlu?$FN__db_cksum?3?5rec?3?5?$CFlu?5t@ 004c9ef8     libdb41s:db_auto.obj
 0003:00005f38       ??_C@_0EC@LEKF@?$FL?$CFlu?$FN?$FL?$CFlu?$FN__crdel_metasub?3?5rec?3?5@ 004c9f38     libdb41s:crdel_auto.obj
 0003:00005f7c       ??_C@_0P@HOM@?7opflags?3?5?$CFlu?6?$AA@ 004c9f7c     libdb41s:btree_auto.obj
 0003:00005f8c       ??_C@_05GON@?7pg?3?5?$AA@  004c9f8c     libdb41s:btree_auto.obj
 0003:00005f94       ??_C@_0BB@EKNK@?7root_pgno?3?5?$CFlu?6?$AA@ 004c9f94     libdb41s:btree_auto.obj
 0003:00005fa8       ??_C@_0BD@KNHC@?7nlsn?3?5?$FL?$CFlu?$FN?$FL?$CFlu?$FN?6?$AA@ 004c9fa8     libdb41s:btree_auto.obj
 0003:00005fbc       ??_C@_0N@LPHB@?7npgno?3?5?$CFlu?6?$AA@ 004c9fbc     libdb41s:btree_auto.obj
 0003:00005fcc       ??_C@_0BD@JOOH@?7rlsn?3?5?$FL?$CFlu?$FN?$FL?$CFlu?$FN?6?$AA@ 004c9fcc     libdb41s:btree_auto.obj
 0003:00005fe0       ??_C@_0N@LKJG@?7right?3?5?$CFlu?6?$AA@ 004c9fe0     libdb41s:btree_auto.obj
 0003:00005ff0       ??_C@_0BD@EFDB@?7llsn?3?5?$FL?$CFlu?$FN?$FL?$CFlu?$FN?6?$AA@ 004c9ff0     libdb41s:btree_auto.obj
 0003:00006004       ??_C@_0M@EMPK@?7left?3?5?$CFlu?6?$AA@ 004ca004     libdb41s:btree_auto.obj
 0003:00006010       ??_C@_0DO@HKMO@?$FL?$CFlu?$FN?$FL?$CFlu?$FN__bam_split?3?5rec?3?5?$CFlu?5@ 004ca010     libdb41s:btree_auto.obj
 0003:00006050       ??_C@_0BG@HOJE@?7rootlsn?3?5?$FL?$CFlu?$FN?$FL?$CFlu?$FN?6?$AA@ 004ca050     libdb41s:btree_auto.obj
 0003:00006068       ??_C@_0L@NKLA@?7rootent?3?5?$AA@ 004ca068     libdb41s:btree_auto.obj
 0003:00006074       ??_C@_0M@MAMF@?7nrec?3?5?$CFlu?6?$AA@ 004ca074     libdb41s:btree_auto.obj
 0003:00006080       ??_C@_08EBOM@?7pgdbt?3?5?$AA@ 004ca080     libdb41s:btree_auto.obj
 0003:0000608c       ??_C@_0DP@DBJB@?$FL?$CFlu?$FN?$FL?$CFlu?$FN__bam_rsplit?3?5rec?3?5?$CFlu@ 004ca08c     libdb41s:btree_auto.obj
 0003:000060cc       ??_C@_0BB@OOAJ@?7is_insert?3?5?$CFlu?6?$AA@ 004ca0cc     libdb41s:btree_auto.obj
 0003:000060e0       ??_C@_0BB@DBDF@?7indx_copy?3?5?$CFlu?6?$AA@ 004ca0e0     libdb41s:btree_auto.obj
 0003:000060f4       ??_C@_0DM@EAB@?$FL?$CFlu?$FN?$FL?$CFlu?$FN__bam_adj?3?5rec?3?5?$CFlu?5tx@ 004ca0f4     libdb41s:btree_auto.obj
 0003:00006130       ??_C@_0EA@HOPE@?$FL?$CFlu?$FN?$FL?$CFlu?$FN__bam_cadjust?3?5rec?3?5?$CFl@ 004ca130     libdb41s:btree_auto.obj
 0003:00006170       ??_C@_0DN@NHGI@?$FL?$CFlu?$FN?$FL?$CFlu?$FN__bam_cdel?3?5rec?3?5?$CFlu?5t@ 004ca170     libdb41s:btree_auto.obj
 0003:000061b0       ??_C@_0O@MNCA@?7suffix?3?5?$CFlu?6?$AA@ 004ca1b0     libdb41s:btree_auto.obj
 0003:000061c0       ??_C@_0O@HOPG@?7prefix?3?5?$CFlu?6?$AA@ 004ca1c0     libdb41s:btree_auto.obj
 0003:000061d0       ??_C@_07BLFF@?7repl?3?5?$AA@ 004ca1d0     libdb41s:btree_auto.obj
 0003:000061d8       ??_C@_07HBLE@?7orig?3?5?$AA@ 004ca1d8     libdb41s:btree_auto.obj
 0003:000061e0       ??_C@_0BB@JEL@?7isdeleted?3?5?$CFlu?6?$AA@ 004ca1e0     libdb41s:btree_auto.obj
 0003:000061f4       ??_C@_0DN@MHIM@?$FL?$CFlu?$FN?$FL?$CFlu?$FN__bam_repl?3?5rec?3?5?$CFlu?5t@ 004ca1f4     libdb41s:btree_auto.obj
 0003:00006234       ??_C@_0DN@HEDJ@?$FL?$CFlu?$FN?$FL?$CFlu?$FN__bam_root?3?5rec?3?5?$CFlu?5t@ 004ca234     libdb41s:btree_auto.obj
 0003:00006274       ??_C@_0P@KMGF@?7to_indx?3?5?$CFlu?6?$AA@ 004ca274     libdb41s:btree_auto.obj
 0003:00006284       ??_C@_0BB@LMKH@?7from_indx?3?5?$CFlu?6?$AA@ 004ca284     libdb41s:btree_auto.obj
 0003:00006298       ??_C@_0BC@BGFP@?7first_indx?3?5?$CFlu?6?$AA@ 004ca298     libdb41s:btree_auto.obj
 0003:000062ac       ??_C@_0BB@GCDH@?7left_pgno?3?5?$CFlu?6?$AA@ 004ca2ac     libdb41s:btree_auto.obj
 0003:000062c0       ??_C@_0P@IAAD@?7to_pgno?3?5?$CFlu?6?$AA@ 004ca2c0     libdb41s:btree_auto.obj
 0003:000062d0       ??_C@_0BB@JAMB@?7from_pgno?3?5?$CFlu?6?$AA@ 004ca2d0     libdb41s:btree_auto.obj
 0003:000062e4       ??_C@_0DP@NBBF@?$FL?$CFlu?$FN?$FL?$CFlu?$FN__bam_curadj?3?5rec?3?5?$CFlu@ 004ca2e4     libdb41s:btree_auto.obj
 0003:00006324       ??_C@_0N@OAJC@?7order?3?5?$CFld?6?$AA@ 004ca324     libdb41s:btree_auto.obj
 0003:00006334       ??_C@_0N@NAAA@?7recno?3?5?$CFld?6?$AA@ 004ca334     libdb41s:btree_auto.obj
 0003:00006344       ??_C@_0M@NMJ@?7root?3?5?$CFld?6?$AA@ 004ca344     libdb41s:btree_auto.obj
 0003:00006350       ??_C@_0EA@FMFO@?$FL?$CFlu?$FN?$FL?$CFlu?$FN__bam_rcuradj?3?5rec?3?5?$CFl@ 004ca350     libdb41s:btree_auto.obj
 0003:00006390       ??_C@_0DF@FOAF@Unable?5to?5allocate?5memory?5for?5th@ 004ca390     libdb41s:txn_region.obj
 0003:000063c8       ??_C@_0CF@MDIO@Unable?5to?5abort?5transaction?50x?$CFx@ 004ca3c8     libdb41s:txn_region.obj
 0003:000063f0       ??_C@_0DP@GMJD@Error?3?5closing?5the?5transaction?5r@ 004ca3f0     libdb41s:txn_region.obj
 0003:00006430       ??_C@_0CP@PDI@lock_open?3?5incompatible?5deadlock@ 004ca430     libdb41s:lock_region.obj
 0003:00006460       ??_C@_0CN@IIMF@Unable?5to?5allocate?5memory?5for?5th@ 004ca460     libdb41s:lock_region.obj
 0003:000064a4       ??_C@_0P@FCIL@__db_txn?4share?$AA@ 004ca4a4     libdb41s:env_region.obj
 0003:000064b4       ??_C@_0BB@EDPB@__db_mpool?4share?$AA@ 004ca4b4     libdb41s:env_region.obj
 0003:000064c8       ??_C@_0P@EEFA@__db_log?4share?$AA@ 004ca4c8     libdb41s:env_region.obj
 0003:000064d8       ??_C@_0BA@CBOL@__db_lock?4share?$AA@ 004ca4d8     libdb41s:env_region.obj
 0003:000064e8       ??_C@_0BP@EMMM@unable?5to?5join?5the?5environment?$AA@ 004ca4e8     libdb41s:env_region.obj
 0003:00006508       ??_C@_0EE@PEKI@Program?5version?5?$CFd?4?$CFd?4?$CFd?5doesn?8t@ 004ca508     libdb41s:env_region.obj
 0003:0000654c       ??_C@_0BP@MOHM@?$CFs?3?5unable?5to?5find?5environment?$AA@ 004ca54c     libdb41s:env_region.obj
 0003:0000656c       ??_C@_0DK@KJEG@?$CFs?3?5existing?5environment?5not?5cre@ 004ca56c     libdb41s:env_region.obj
 0003:000065a8       ??_C@_0DG@FGAC@?$CFs?3?5unable?5to?5read?5system?9memory@ 004ca5a8     libdb41s:env_region.obj
 0003:000065e0       ??_C@_0DC@COHO@?$CFs?3?5unable?5to?5write?5out?5public?5e@ 004ca5e0     libdb41s:env_region.obj
 0003:00006614       ??_C@_0CL@ELKE@?$CFs?3?5unable?5to?5acquire?5environmen@ 004ca614     libdb41s:env_region.obj
 0003:00006640       ??_C@_0CO@CLG@?$CFs?3?5unable?5to?5initialize?5environ@ 004ca640     libdb41s:env_region.obj
 0003:00006670       ??_C@_08NEMC@__db?4001?$AA@ 004ca670     libdb41s:env_region.obj
 0003:0000667c       ??_C@_0BA@DCJO@process?9private?$AA@ 004ca67c     libdb41s:env_region.obj
 0003:0000668c       ??_C@_0DI@BIFI@region?5?$CFlu?5?$CIenvironment?$CJ?3?5refere@ 004ca68c     libdb41s:env_region.obj
 0003:000066c4       ??_C@_0BC@ECKB@region?5detach?3?5?$CFs?$AA@ 004ca6c4     libdb41s:env_region.obj
 0003:000066d8       ??_C@_0BF@NIK@region?5?$CFs?5attach?3?5?$CFs?$AA@ 004ca6d8     libdb41s:env_region.obj
 0003:000066f0       ??_C@_09IEMG@__db?4?$CF03d?$AA@ 004ca6f0     libdb41s:env_region.obj
 0003:000066fc       ??_C@_0N@IEDG@DB_ENV?9?$DOstat?$AA@ 004ca6fc     libdb41s:env_region.obj
 0003:00006728       ??_C@_06JNKG@C?3?1tmp?$AA@ 004ca728     libdb41s:os_tmpdir.obj
 0003:00006730       ??_C@_07OAIF@C?3?1temp?$AA@ 004ca730     libdb41s:os_tmpdir.obj
 0003:00006738       ??_C@_04MNA@?1tmp?$AA@     004ca738     libdb41s:os_tmpdir.obj
 0003:00006740       ??_C@_05FOBE@?1temp?$AA@   004ca740     libdb41s:os_tmpdir.obj
 0003:00006748       ??_C@_08MNPE@?1usr?1tmp?$AA@ 004ca748     libdb41s:os_tmpdir.obj
 0003:00006754       ??_C@_08MPAI@?1var?1tmp?$AA@ 004ca754     libdb41s:os_tmpdir.obj
 0003:00006760       ??_C@_0CI@HNBA@illegal?5TempFolder?5environment?5v@ 004ca760     libdb41s:os_tmpdir.obj
 0003:00006788       ??_C@_0L@BFJM@TempFolder?$AA@ 004ca788     libdb41s:os_tmpdir.obj
 0003:00006794       ??_C@_0CB@BCII@illegal?5TMP?5environment?5variable@ 004ca794     libdb41s:os_tmpdir.obj
 0003:000067b8       ??_C@_03LDNL@TMP?$AA@      004ca7b8     libdb41s:os_tmpdir.obj
 0003:000067bc       ??_C@_0CC@GLKE@illegal?5TEMP?5environment?5variabl@ 004ca7bc     libdb41s:os_tmpdir.obj
 0003:000067e0       ??_C@_04FEEL@TEMP?$AA@     004ca7e0     libdb41s:os_tmpdir.obj
 0003:000067e8       ??_C@_0CE@BIOA@illegal?5TMPDIR?5environment?5varia@ 004ca7e8     libdb41s:os_tmpdir.obj
 0003:0000680c       ??_C@_06NANE@TMPDIR?$AA@   004ca80c     libdb41s:os_tmpdir.obj
 0003:00006814       ??_C@_0BP@OLJG@GetFileInformationByHandle?3?5?$CFs?$AA@ 004ca814     libdb41s:os_stat.obj
 0003:00006834       ??_C@_04POLC@?$CFc?3?2?$AA@ 004ca834     libdb41s:os_open.obj
 0003:0000683c       ??_C@_0BC@DMKI@DBcursor?9?$DOc_count?$AA@ 004ca83c     libdb41s:db_iface.obj
 0003:00006850       ??_C@_05IJAN@c_del?$AA@    004ca850     libdb41s:db_iface.obj
 0003:00006858       ??_C@_0BA@EEDB@DBcursor?9?$DOc_del?$AA@ 004ca858     libdb41s:db_iface.obj
 0003:00006868       ??_C@_0DA@FNIL@DB_DBT_PARTIAL?5forbidden?5with?5DB@ 004ca868     libdb41s:db_iface.obj
 0003:00006898       ??_C@_0DG@NOHM@DB_MULTIPLE?$CI_KEY?$CJ?5requires?5that?5@ 004ca898     libdb41s:db_iface.obj
 0003:000068d0       ??_C@_04OMKF@data?$AA@     004ca8d0     libdb41s:db_iface.obj
 0003:000068d8       ??_C@_03DCHJ@key?$AA@      004ca8d8     libdb41s:db_iface.obj
 0003:000068dc       ??_C@_0EC@IHIH@DB_DIRTY_READ?5is?5not?5supported?5w@ 004ca8dc     libdb41s:db_iface.obj
 0003:00006920       ??_C@_0BA@EPMC@DBcursor?9?$DOc_get?$AA@ 004ca920     libdb41s:db_iface.obj
 0003:00006930       ??_C@_05HHFM@c_put?$AA@    004ca930     libdb41s:db_iface.obj
 0003:00006938       ??_C@_0BA@LKGA@DBcursor?9?$DOc_put?$AA@ 004ca938     libdb41s:db_iface.obj
 0003:00006948       ??_C@_0CP@NCFE@DBcursor?9?$DOc_put?5forbidden?5on?5sec@ 004ca948     libdb41s:db_iface.obj
 0003:00006978       ??_C@_0DI@GGFI@DB_GET_BOTH?5on?5a?5secondary?5index@ 004ca978     libdb41s:db_iface.obj
 0003:000069b0       ??_C@_0M@FPIG@primary?5key?$AA@ 004ca9b0     libdb41s:db_iface.obj
 0003:000069bc       ??_C@_0EF@HBIC@DB_MULTIPLE?5and?5DB_MULTIPLE_KEY?5@ 004ca9bc     libdb41s:db_iface.obj
 0003:00006a04       ??_C@_0CP@MCKD@DB?9?$DOpget?5may?5only?5be?5used?5on?5sec@ 004caa04     libdb41s:db_iface.obj
 0003:00006a34       ??_C@_0BB@MMPC@DBcursor?9?$DOc_pget?$AA@ 004caa34     libdb41s:db_iface.obj
 0003:00006a48       ??_C@_0DI@NKBK@DB_GET_BOTH?5requires?5both?5a?5seco@ 004caa48     libdb41s:db_iface.obj
 0003:00006a80       ??_C@_0DH@KGEK@DBcursor?9?$DOc_pget?5may?5only?5be?5use@ 004caa80     libdb41s:db_iface.obj
 0003:00006ab8       ??_C@_06IDPA@delete?$AA@   004caab8     libdb41s:db_iface.obj
 0003:00006ac0       ??_C@_0DA@NJBO@DB_MULTIPLE?5requires?5that?5DB_DBT@ 004caac0     libdb41s:db_iface.obj
 0003:00006af0       ??_C@_08DJMI@DB?9?$DOjoin?$AA@ 004caaf0     libdb41s:db_iface.obj
 0003:00006afc       ??_C@_0DM@EBLI@At?5least?5one?5secondary?5cursor?5mu@ 004caafc     libdb41s:db_iface.obj
 0003:00006b38       ??_C@_0DG@FLNM@All?5secondary?5cursors?5must?5share@ 004cab38     libdb41s:db_iface.obj
 0003:00006b70       ??_C@_0DF@BCLL@DB_DBT_PARTIAL?5may?5not?5be?5set?5on@ 004cab70     libdb41s:db_iface.obj
 0003:00006ba8       ??_C@_03ELEH@put?$AA@      004caba8     libdb41s:db_iface.obj
 0003:00006bac       ??_C@_0EI@JFPM@a?5partial?5put?5in?5the?5presence?5of@ 004cabac     libdb41s:db_iface.obj
 0003:00006bf4       ??_C@_0CH@NMOM@DB?9?$DOput?5forbidden?5on?5secondary?5i@ 004cabf4     libdb41s:db_iface.obj
 0003:00006c1c       ??_C@_0DE@GPAE@DB_THREAD?5mandates?5memory?5alloca@ 004cac1c     libdb41s:db_iface.obj
 0003:00006c50       ??_C@_0CH@EMOG@?$CFs?3?5attempt?5to?5modify?5a?5read?9onl@ 004cac50     libdb41s:db_iface.obj
 0003:00006c78       ??_C@_0DH@KABI@?$CFs?3?5the?5DB_DIRTY_READ?5and?5DB_RMW@ 004cac78     libdb41s:db_iface.obj
 0003:00006cb0       ??_C@_0DN@PPFJ@Cursor?5position?5must?5be?5set?5befo@ 004cacb0     libdb41s:db_iface.obj
 0003:00006cf0       ??_C@_0EA@HBOL@Secondary?5index?5corrupt?3?5item?5in@ 004cacf0     libdb41s:db_iface.obj
 0003:00006d30       ??_C@_0O@KIGC@DB?9?$DOassociate?$AA@ 004cad30     libdb41s:db_iface.obj
 0003:00006d40       ??_C@_0EH@GPIN@Callback?5function?5may?5be?5NULL?5on@ 004cad40     libdb41s:db_iface.obj
 0003:00006d88       ??_C@_0EB@NPEO@Renumbering?5recno?5databases?5may?5@ 004cad88     libdb41s:db_iface.obj
 0003:00006dcc       ??_C@_0DI@HDBN@Primary?5databases?5may?5not?5be?5con@ 004cadcc     libdb41s:db_iface.obj
 0003:00006e04       ??_C@_0DH@HMEI@Secondary?5indices?5may?5not?5be?5use@ 004cae04     libdb41s:db_iface.obj
 0003:00006e3c       ??_C@_0DB@FABM@Secondary?5index?5handles?5may?5not?5@ 004cae3c     libdb41s:db_iface.obj
 0003:00006e70       ??_C@_0EF@NOAL@DB_AUTO_COMMIT?5may?5not?5be?5specif@ 004cae70     libdb41s:db_iface.obj
 0003:00006eb8       ??_C@_0EE@FOAM@DB_AUTO_COMMIT?5may?5not?5be?5specif@ 004caeb8     libdb41s:db_iface.obj
 0003:00006efc       ??_C@_0BH@KJB@rename?3?5file?5?$CFs?5exists?$AA@ 004caefc     libdb41s:fop_util.obj
 0003:00006f14       ??_C@_0BD@HDAI@multiple?9databases?$AA@ 004caf14     libdb41s:db_pr.obj
 0003:00006f28       ??_C@_0P@FAAJ@recno?3renumber?$AA@ 004caf28     libdb41s:db_pr.obj
 0003:00006f38       ??_C@_0BD@MJNB@recno?3fixed?9length?$AA@ 004caf38     libdb41s:db_pr.obj
 0003:00006f4c       ??_C@_0N@DDPK@btree?3recnum?$AA@ 004caf4c     libdb41s:db_pr.obj
 0003:00006f5c       ??_C@_05HLFJ@recno?$AA@    004caf5c     libdb41s:db_pr.obj
 0003:00006f64       ??_C@_08MCKG@verifier?$AA@ 004caf64     libdb41s:db_pr.obj
 0003:00006f70       ??_C@_0O@NLDO@transactional?$AA@ 004caf70     libdb41s:db_pr.obj
 0003:00006f80       ??_C@_08CFNE@needswap?$AA@ 004caf80     libdb41s:db_pr.obj
 0003:00006f8c       ??_C@_0N@EPGF@subdatabases?$AA@ 004caf8c     libdb41s:db_pr.obj
 0003:00006f9c       ??_C@_0N@BJCO@load?5on?5open?$AA@ 004caf9c     libdb41s:db_pr.obj
 0003:00006fac       ??_C@_09OICA@secondary?$AA@ 004cafac     libdb41s:db_pr.obj
 0003:00006fb8       ??_C@_0BC@GHIM@no?5reverse?5splits?$AA@ 004cafb8     libdb41s:db_pr.obj
 0003:00006fcc       ??_C@_08ODJN@renumber?$AA@ 004cafcc     libdb41s:db_pr.obj
 0003:00006fd8       ??_C@_0BE@IHIK@opened?5for?5recovery?$AA@ 004cafd8     libdb41s:db_pr.obj
 0003:00006fec       ??_C@_0BF@LJPN@Btree?5record?5numbers?$AA@ 004cafec     libdb41s:db_pr.obj
 0003:00007004       ??_C@_09EOCJ@read?9only?$AA@ 004cb004     libdb41s:db_pr.obj
 0003:00007010       ??_C@_0BC@LLFA@default?5page?5size?$AA@ 004cb010     libdb41s:db_pr.obj
 0003:00007024       ??_C@_09GFJP@pad?5value?$AA@ 004cb024     libdb41s:db_pr.obj
 0003:00007030       ??_C@_0BA@CBJE@DB?9?$DOopen?5called?$AA@ 004cb030     libdb41s:db_pr.obj
 0003:00007040       ??_C@_0BG@LJDD@file?5is?5being?5renamed?$AA@ 004cb040     libdb41s:db_pr.obj
 0003:00007058       ??_C@_09EMMJ@in?9memory?$AA@ 004cb058     libdb41s:db_pr.obj
 0003:00007064       ??_C@_0BF@BOKA@fixed?9length?5records?$AA@ 004cb064     libdb41s:db_pr.obj
 0003:0000707c       ??_C@_09IDCJ@encrypted?$AA@ 004cb07c     libdb41s:db_pr.obj
 0003:00007088       ??_C@_0BC@CDCH@sorted?5duplicates?$AA@ 004cb088     libdb41s:db_pr.obj
 0003:0000709c       ??_C@_0L@NIHG@duplicates?$AA@ 004cb09c     libdb41s:db_pr.obj
 0003:000070a8       ??_C@_0BF@GEBO@discard?5cached?5pages?$AA@ 004cb0a8     libdb41s:db_pr.obj
 0003:000070c0       ??_C@_0M@BGFP@dirty?5reads?$AA@ 004cb0c0     libdb41s:db_pr.obj
 0003:000070cc       ??_C@_0BA@PJI@variable?5length?$AA@ 004cb0cc     libdb41s:db_pr.obj
 0003:000070dc       ??_C@_0P@LOKK@dbm?1ndbm?5error?$AA@ 004cb0dc     libdb41s:db_pr.obj
 0003:000070ec       ??_C@_0BK@ILOK@encompassing?5file?5created?$AA@ 004cb0ec     libdb41s:db_pr.obj
 0003:00007108       ??_C@_0BB@KGFI@database?5created?$AA@ 004cb108     libdb41s:db_pr.obj
 0003:0000711c       ??_C@_0CE@OPCH@created?5by?5compensating?5transact@ 004cb11c     libdb41s:db_pr.obj
 0003:00007140       ??_C@_0BG@PIDP@client?5replica?5writer?$AA@ 004cb140     libdb41s:db_pr.obj
 0003:00007158       ??_C@_0N@JPHG@checksumming?$AA@ 004cb158     libdb41s:db_pr.obj
 0003:00007168       ??_C@_03HHKO@?$CFs?6?$AA@  004cb168     libdb41s:db_pr.obj
 0003:0000716c       ??_C@_01LLF@w?$AA@         004cb16c     libdb41s:db_pr.obj
 0003:00007170       ??_C@_0P@FNEP@page_ext?3?5?$CFlu?6?$AA@ 004cb170     libdb41s:db_pr.obj
 0003:00007180       ??_C@_0P@ELDK@rec_page?3?5?$CFlu?6?$AA@ 004cb180     libdb41s:db_pr.obj
 0003:00007190       ??_C@_0BK@FLKE@re_pad?3?5?$CF?$CDlx?5re_len?3?5?$CFlu?6?$AA@ 004cb190     libdb41s:db_pr.obj
 0003:000071ac       ??_C@_0N@HBFG@q_root?3?5?$CFlu?6?$AA@ 004cb1ac     libdb41s:db_pr.obj
 0003:000071bc       ??_C@_0N@KMIJ@q_meta?3?5?$CFlu?6?$AA@ 004cb1bc     libdb41s:db_pr.obj
 0003:000071cc       ??_C@_0O@BJJE@h_hash?3?5?$CF?$CDlx?6?$AA@ 004cb1cc     libdb41s:db_pr.obj
 0003:000071dc       ??_C@_0O@FGPH@h_nelem?3?5?$CFlu?6?$AA@ 004cb1dc     libdb41s:db_pr.obj
 0003:000071ec       ??_C@_0BA@JCHG@h_ffactor?3?5?$CFlu?6?$AA@ 004cb1ec     libdb41s:db_pr.obj
 0003:000071fc       ??_C@_0BA@DPKN@meta_pgno?3?5?$CFlu?6?$AA@ 004cb1fc     libdb41s:db_pr.obj
 0003:0000720c       ??_C@_0CJ@JHDH@re_modified?3?5?$CFd?5re_eof?3?5?$CFd?5re_la@ 004cb20c     libdb41s:db_pr.obj
 0003:00007238       ??_C@_0DH@BEAM@re_pad?3?5?$CF?$CDlx?5re_delim?3?5?$CF?$CDlx?5re_l@ 004cb238     libdb41s:db_pr.obj
 0003:00007270       ??_C@_0P@NJGA@bt_lpgno?3?5?$CFlu?6?$AA@ 004cb270     libdb41s:db_pr.obj
 0003:00007280       ??_C@_0CC@ODME@bt_compare?3?5?$CF?$CDlx?5bt_prefix?3?5?$CF?$CDlx@ 004cb280     libdb41s:db_pr.obj
 0003:000072a4       ??_C@_0BP@DJME@bt_maxkey?3?5?$CFlu?5bt_minkey?3?5?$CFlu?6?$AA@ 004cb2a4     libdb41s:db_pr.obj
 0003:000072c4       ??_C@_0BL@CCOH@bt_meta?3?5?$CFlu?5bt_root?3?5?$CFlu?6?$AA@ 004cb2c4     libdb41s:db_pr.obj
 0003:000072e0       ??_C@_0CB@CMLH@In?9memory?5DB?5structure?3?6?$CFs?3?5?$CF?$CDlx@ 004cb2e0     libdb41s:db_pr.obj
 0003:00007304       ??_C@_0CH@HPPE@ILLEGAL?5PAGE?5OFFSET?3?5indx?3?5?$CFlu?5o@ 004cb304     libdb41s:db_pr.obj
 0003:0000732c       ??_C@_0BI@KEBK@ILLEGAL?5PAGE?5ITEM?3?5?$CFlu?6?$AA@ 004cb32c     libdb41s:db_pr.obj
 0003:00007344       ??_C@_0CL@PMHB@ILLEGAL?5DUPLICATE?1LBTREE?1LRECNO?5@ 004cb344     libdb41s:db_pr.obj
 0003:00007370       ??_C@_0BI@ILFF@entries?5?$CF4lu?5pgno?5?$CF4lu?6?$AA@ 004cb370     libdb41s:db_pr.obj
 0003:00007388       ??_C@_0BN@ILHB@ILLEGAL?5BINTERNAL?5TYPE?3?5?$CFlu?6?$AA@ 004cb388     libdb41s:db_pr.obj
 0003:000073a8       ??_C@_0CC@NFDK@count?3?5?$CF4lu?5pgno?3?5?$CF4lu?5type?3?5?$CF4l@ 004cb3a8     libdb41s:db_pr.obj
 0003:000073cc       ??_C@_0CG@MGAJ@overflow?3?5total?5len?3?5?$CF4lu?5page?3?5@ 004cb3cc     libdb41s:db_pr.obj
 0003:000073f4       ??_C@_02FNNB@?7?7?$AA@     004cb3f4     libdb41s:db_pr.obj
 0003:000073f8       ??_C@_0N@FOJO@Duplicates?3?6?$AA@ 004cb3f8     libdb41s:db_pr.obj
 0003:00007408       ??_C@_0BF@ENGL@?$CF4lu?5?$FLoffpage?5dups?$FN?6?$AA@ 004cb408     libdb41s:db_pr.obj
 0003:00007420       ??_C@_0P@BANP@?5offset?3?5?$CF4lu?6?$AA@ 004cb420     libdb41s:db_pr.obj
 0003:00007430       ??_C@_0BA@MJNC@?$CFsentries?3?5?$CF4lu?$AA@ 004cb430     libdb41s:db_pr.obj
 0003:00007440       ??_C@_0BB@EAPI@?$CFsref?5cnt?3?5?$CF4lu?5?$AA@ 004cb440     libdb41s:db_pr.obj
 0003:00007454       ??_C@_0BI@BBJD@?$CFsprev?3?5?$CF4lu?5next?3?5?$CF4lu?$AA@ 004cb454     libdb41s:db_pr.obj
 0003:0000746c       ??_C@_0O@FJGB@?$FL?$CF03lu?$FN?5?$CF4lu?5?$AA@ 004cb46c     libdb41s:db_pr.obj
 0003:0000747c       ??_C@_08FFJB@?5?5?5?5?5?5?5D?$AA@ 004cb47c     libdb41s:db_pr.obj
 0003:00007488       ??_C@_01POCP@?7?$AA@       004cb488     libdb41s:db_pr.obj
 0003:0000748c       ??_C@_0CC@PCMM@?5?$CIlsn?4file?3?5?$CFlu?5lsn?4offset?3?5?$CFlu?$CJ@ 004cb48c     libdb41s:db_pr.obj
 0003:000074b0       ??_C@_0O@NBNA@?5records?3?5?$CFlu?$AA@ 004cb4b0     libdb41s:db_pr.obj
 0003:000074c0       ??_C@_0BI@HBBM@page?5?$CFlu?3?5?$CFs?5level?3?5?$CFlu?$AA@ 004cb4c0     libdb41s:db_pr.obj
 0003:000074d8       ??_C@_0CI@BPCI@ILLEGAL?5PAGE?5TYPE?3?5page?3?5?$CFlu?5typ@ 004cb4d8     libdb41s:db_pr.obj
 0003:00007500       ??_C@_0M@HBMK@?7root?3?5?$CFlu?6?$AA@ 004cb500     libdb41s:db_pr.obj
 0003:0000750c       ??_C@_0BL@PEBF@?7re_len?3?5?$CF?$CDlx?5re_pad?3?5?$CFlu?6?$AA@ 004cb50c     libdb41s:db_pr.obj
 0003:00007528       ??_C@_0BK@FEHH@?7maxkey?3?5?$CFlu?5minkey?3?5?$CFlu?6?$AA@ 004cb528     libdb41s:db_pr.obj
 0003:00007544       ??_C@_0N@JMCM@?7flags?3?5?$CF?$CDlx?$AA@ 004cb544     libdb41s:db_pr.obj
 0003:00007554       ??_C@_0BB@OBHG@?7last_pgno?3?5?$CFlu?6?$AA@ 004cb554     libdb41s:db_pr.obj
 0003:00007568       ??_C@_0CM@GBIH@Unable?5to?5retrieve?5free?9list?5pag@ 004cb568     libdb41s:db_pr.obj
 0003:00007594       ??_C@_05HGAB@?$CFs?$CFlu?$AA@ 004cb594     libdb41s:db_pr.obj
 0003:0000759c       ??_C@_0BA@BMJB@?7free?5list?3?5?$CFlu?$AA@ 004cb59c     libdb41s:db_pr.obj
 0003:000075ac       ??_C@_0BJ@IPCI@?7keys?3?5?$CFlu?7records?3?5?$CFlu?6?$AA@ 004cb5ac     libdb41s:db_pr.obj
 0003:000075c8       ??_C@_0M@EOO@?7type?3?5?$CFlu?6?$AA@ 004cb5c8     libdb41s:db_pr.obj
 0003:000075d4       ??_C@_0BA@HPEM@?7pagesize?3?5?$CFlu?6?$AA@ 004cb5d4     libdb41s:db_pr.obj
 0003:000075e4       ??_C@_0P@LKGD@?7version?3?5?$CFlu?6?$AA@ 004cb5e4     libdb41s:db_pr.obj
 0003:000075f4       ??_C@_0O@DDDK@?7magic?3?5?$CF?$CDlx?6?$AA@ 004cb5f4     libdb41s:db_pr.obj
 0003:00007604       ??_C@_04OHG@?$CFlu?5?$AA@  004cb604     libdb41s:db_pr.obj
 0003:0000760c       ??_C@_0BA@KNPE@?7spare?5points?3?5?$AA@ 004cb60c     libdb41s:db_pr.obj
 0003:0000761c       ??_C@_0BC@GFIJ@?7h_charkey?3?5?$CF?$CDlx?6?$AA@ 004cb61c     libdb41s:db_pr.obj
 0003:00007630       ??_C@_0N@GDCL@?7nelem?3?5?$CFlu?6?$AA@ 004cb630     libdb41s:db_pr.obj
 0003:00007640       ??_C@_0P@KLMA@?7ffactor?3?5?$CFlu?6?$AA@ 004cb640     libdb41s:db_pr.obj
 0003:00007650       ??_C@_0BC@NEOC@?7low_mask?3?5?5?$CF?$CDlx?6?$AA@ 004cb650     libdb41s:db_pr.obj
 0003:00007664       ??_C@_0BC@MGON@?7high_mask?3?5?$CF?$CDlx?6?$AA@ 004cb664     libdb41s:db_pr.obj
 0003:00007678       ??_C@_0BC@IACG@?7max_bucket?3?5?$CFlu?6?$AA@ 004cb678     libdb41s:db_pr.obj
 0003:0000768c       ??_C@_0BA@IKON@?7page_ext?3?5?$CFlu?6?$AA@ 004cb68c     libdb41s:db_pr.obj
 0003:0000769c       ??_C@_0BA@JMJI@?7rec_page?3?5?$CFlu?6?$AA@ 004cb69c     libdb41s:db_pr.obj
 0003:000076ac       ??_C@_0BB@IOI@?7cur_recno?3?5?$CFlu?6?$AA@ 004cb6ac     libdb41s:db_pr.obj
 0003:000076c0       ??_C@_0BD@IAOD@?7first_recno?3?5?$CFlu?6?$AA@ 004cb6c0     libdb41s:db_pr.obj
 0003:000076d4       ??_C@_03NAME@?4?4?4?$AA@   004cb6d4     libdb41s:db_pr.obj
 0003:000076d8       ??_C@_06FMIO@0x?$CF?42x?$AA@ 004cb6d8     libdb41s:db_pr.obj
 0003:000076e0       ??_C@_07CLDP@?5data?3?5?$AA@ 004cb6e0     libdb41s:db_pr.obj
 0003:000076e8       ??_C@_09GPCD@len?3?5?$CF3lu?$AA@ 004cb6e8     libdb41s:db_pr.obj
 0003:000076f4       ??_C@_04LKNH@?$CFc?$CFc?$AA@ 004cb6f4     libdb41s:db_pr.obj
 0003:000076fc       ??_C@_05DAGJ@?2?$CFc?$CFc?$AA@ 004cb6fc     libdb41s:db_pr.obj
 0003:00007704       ??_C@_03JGAL@?$CFlu?$AA@   004cb704     libdb41s:db_pr.obj
 0003:00007708       ??_C@_09FCIL@__OTHER__?$AA@ 004cb708     libdb41s:db_pr.obj
 0003:00007714       ??_C@_0BH@ONHJ@duplicate?3?5page?3?5?$CF4lu?6?$AA@ 004cb714     libdb41s:db_pr.obj
 0003:0000772c       ??_C@_01KMMP@?$CJ?$AA@     004cb72c     libdb41s:db_pr.obj
 0003:00007730       ??_C@_02NDAK@?5?$CI?$AA@   004cb730     libdb41s:db_pr.obj
 0003:00007734       ??_C@_0N@PJPB@UNKNOWN?5TYPE?$AA@ 004cb734     libdb41s:db_pr.obj
 0003:00007744       ??_C@_05MHPE@queue?$AA@    004cb744     libdb41s:db_pr.obj
 0003:0000774c       ??_C@_04MMAH@hash?$AA@     004cb74c     libdb41s:db_pr.obj
 0003:00007754       ??_C@_05PFDO@btree?$AA@    004cb754     libdb41s:db_pr.obj
 0003:0000775c       ??_C@_0P@GMGI@queue?5metadata?$AA@ 004cb75c     libdb41s:db_pr.obj
 0003:0000776c       ??_C@_084overflow?$AA@     004cb76c     libdb41s:db_pr.obj
 0003:00007778       ??_C@_0L@KJPA@recno?5leaf?$AA@ 004cb778     libdb41s:db_pr.obj
 0003:00007784       ??_C@_0L@PIIL@btree?5leaf?$AA@ 004cb784     libdb41s:db_pr.obj
 0003:00007790       ??_C@_0P@CFEB@recno?5internal?$AA@ 004cb790     libdb41s:db_pr.obj
 0003:000077a0       ??_C@_07KLCM@invalid?$AA@  004cb7a0     libdb41s:db_pr.obj
 0003:000077a8       ??_C@_0P@NONO@btree?5internal?$AA@ 004cb7a8     libdb41s:db_pr.obj
 0003:000077b8       ??_C@_0O@FIGB@hash?5metadata?$AA@ 004cb7b8     libdb41s:db_pr.obj
 0003:000077c8       ??_C@_09JPJI@duplicate?$AA@ 004cb7c8     libdb41s:db_pr.obj
 0003:000077d4       ??_C@_0P@KPCB@btree?5metadata?$AA@ 004cb7d4     libdb41s:db_pr.obj
 0003:000077e4       ??_C@_0M@CPGA@HEADER?$DNEND?6?$AA@ 004cb7e4     libdb41s:db_pr.obj
 0003:000077f0       ??_C@_07EENH@keys?$DN1?6?$AA@ 004cb7f0     libdb41s:db_pr.obj
 0003:000077f8       ??_C@_0BB@LNFP@db_pagesize?$DN?$CFlu?6?$AA@ 004cb7f8     libdb41s:db_pr.obj
 0003:0000780c       ??_C@_09JACC@chksum?$DN1?6?$AA@ 004cb80c     libdb41s:db_pr.obj
 0003:00007818       ??_C@_0CE@GNKI@Impossible?5DB?5type?5in?5__db_prhea@ 004cb818     libdb41s:db_pr.obj
 0003:0000783c       ??_C@_0L@MLDC@dupsort?$DN1?6?$AA@ 004cb83c     libdb41s:db_pr.obj
 0003:00007848       ??_C@_0O@BPEE@duplicates?$DN1?6?$AA@ 004cb848     libdb41s:db_pr.obj
 0003:00007858       ??_C@_0M@HKHM@renumber?$DN1?6?$AA@ 004cb858     libdb41s:db_pr.obj
 0003:00007864       ??_C@_0M@LHOG@type?$DNrecno?6?$AA@ 004cb864     libdb41s:db_pr.obj
 0003:00007870       ??_C@_0BA@GLFJ@extentsize?$DN?$CFlu?6?$AA@ 004cb870     libdb41s:db_pr.obj
 0003:00007880       ??_C@_0M@KLNO@re_pad?$DN?$CF?$CDx?6?$AA@ 004cb880     libdb41s:db_pr.obj
 0003:0000788c       ??_C@_0M@CGME@re_len?$DN?$CFlu?6?$AA@ 004cb88c     libdb41s:db_pr.obj
 0003:00007898       ??_C@_0M@LFK@type?$DNqueue?6?$AA@ 004cb898     libdb41s:db_pr.obj
 0003:000078a4       ??_C@_0N@GALG@h_nelem?$DN?$CFlu?6?$AA@ 004cb8a4     libdb41s:db_pr.obj
 0003:000078b4       ??_C@_0P@OBMK@h_ffactor?$DN?$CFlu?6?$AA@ 004cb8b4     libdb41s:db_pr.obj
 0003:000078c4       ??_C@_0L@HIP@type?$DNhash?6?$AA@ 004cb8c4     libdb41s:db_pr.obj
 0003:000078d0       ??_C@_0P@FKCG@bt_minkey?$DN?$CFlu?6?$AA@ 004cb8d0     libdb41s:db_pr.obj
 0003:000078e0       ??_C@_0P@INAG@bt_maxkey?$DN?$CFlu?6?$AA@ 004cb8e0     libdb41s:db_pr.obj
 0003:000078f0       ??_C@_09BPIG@recnum?$DN1?6?$AA@ 004cb8f0     libdb41s:db_pr.obj
 0003:000078fc       ??_C@_0M@MBGI@type?$DNbtree?6?$AA@ 004cb8fc     libdb41s:db_pr.obj
 0003:00007908       ??_C@_09ODBB@database?$DN?$AA@ 004cb908     libdb41s:db_pr.obj
 0003:00007914       ??_C@_0BC@LDNI@format?$DNbytevalue?6?$AA@ 004cb914     libdb41s:db_pr.obj
 0003:00007928       ??_C@_0O@NCKH@format?$DNprint?6?$AA@ 004cb928     libdb41s:db_pr.obj
 0003:00007938       ??_C@_0L@KGME@VERSION?$DN3?6?$AA@ 004cb938     libdb41s:db_pr.obj
 0003:00007944       ??_C@_09BIGG@DATA?$DNEND?6?$AA@ 004cb944     libdb41s:db_pr.obj
 0003:00007950       ??_C@_0BF@DHBP@read?3?50x?$CFlx?0?5?$CFlu?3?5?$CFs?$AA@ 004cb950     libdb41s:os_rw.obj
 0003:00007968       ??_C@_0BF@GJBC@write?3?50x?$CFx?0?5?$CFlu?3?5?$CFs?$AA@ 004cb968     libdb41s:os_rw.obj
 0003:00007980       ??_C@_0BE@OICO@seek?3?5?$CFlu?5?$CFd?5?$CFd?3?5?$CFs?$AA@ 004cb980     libdb41s:os_seek.obj
 0003:00007994       ??_C@_0EH@KIKI@Page?5?$CFlu?3?5queue?5record?5length?5?$CFl@ 004cb994     libdb41s:qam_verify.obj
 0003:000079dc       ??_C@_0EI@PHLJ@Page?5?$CFlu?3?5current?5recno?5?$CFlu?5refe@ 004cb9dc     libdb41s:qam_verify.obj
 0003:00007a24       ??_C@_0CP@CGKN@Page?5?$CFlu?3?5queue?5databases?5must?5b@ 004cba24     libdb41s:qam_verify.obj
 0003:00007a54       ??_C@_0DE@OEC@Page?5?$CFlu?3?5queue?5record?5?$CFlu?5exten@ 004cba54     libdb41s:qam_verify.obj
 0003:00007a88       ??_C@_0DE@POMH@Page?5?$CFlu?3?5queue?5database?5page?5of@ 004cba88     libdb41s:qam_verify.obj
 0003:00007abc       ??_C@_0CK@GMKH@Page?5?$CFlu?3?5queue?5database?5has?5no?5@ 004cbabc     libdb41s:qam_verify.obj
 0003:00007ae8       ??_C@_0DF@GIPJ@Page?5?$CFlu?3?5re_len?5of?5?$CFlu?5in?5non?9f@ 004cbae8     libdb41s:bt_verify.obj
 0003:00007b20       ??_C@_0DD@GLD@Page?5?$CFlu?3?5recno?5metadata?5page?5sp@ 004cbb20     libdb41s:bt_verify.obj
 0003:00007b54       ??_C@_0DP@HLJM@Page?5?$CFlu?3?5metadata?5page?5has?5renu@ 004cbb54     libdb41s:bt_verify.obj
 0003:00007b94       ??_C@_0EC@DCBC@Page?5?$CFlu?3?5Btree?5metadata?5page?5il@ 004cbb94     libdb41s:bt_verify.obj
 0003:00007bd8       ??_C@_0EJ@KDGF@Page?5?$CFlu?3?5Btree?5metadata?5page?5ha@ 004cbbd8     libdb41s:bt_verify.obj
 0003:00007c24       ??_C@_0DF@DMPH@Page?5?$CFlu?3?5nonsensical?5root?5page?5@ 004cbc24     libdb41s:bt_verify.obj
 0003:00007c5c       ??_C@_0DL@GIGH@Page?5?$CFlu?3?5nonsensical?5bt_minkey?5@ 004cbc5c     libdb41s:bt_verify.obj
 0003:00007c98       ??_C@_0CI@MDFM@Page?5?$CFlu?3?5nonsensical?5type?5for?5i@ 004cbc98     libdb41s:bt_verify.obj
 0003:00007cc0       ??_C@_0CC@KKFA@Page?5?$CFlu?3?5Recno?5database?5has?5dup@ 004cbcc0     libdb41s:bt_verify.obj
 0003:00007ce4       ??_C@_0DE@CAKP@Page?5?$CFlu?3?5?$CFs?5called?5on?5nonsensic@ 004cbce4     libdb41s:bt_verify.obj
 0003:00007d18       ??_C@_0BA@CMPH@__ram_vrfy_leaf?$AA@ 004cbd18     libdb41s:bt_verify.obj
 0003:00007d28       ??_C@_0L@LHAA@__bam_vrfy?$AA@ 004cbd28     libdb41s:bt_verify.obj
 0003:00007d34       ??_C@_0CM@LIHI@Page?5?$CFlu?3?5item?5order?5check?5unsaf@ 004cbd34     libdb41s:bt_verify.obj
 0003:00007d60       ??_C@_0CN@CFKJ@Page?5?$CFlu?3?5bad?5HOFFSET?5?$CFlu?0?5appea@ 004cbd60     libdb41s:bt_verify.obj
 0003:00007d90       ??_C@_0CK@MPCP@Page?5?$CFlu?3?5gap?5between?5items?5at?5o@ 004cbd90     libdb41s:bt_verify.obj
 0003:00007dbc       ??_C@_0CG@FAKN@Page?5?$CFlu?3?5bad?5offset?5?$CFlu?5at?5inde@ 004cbdbc     libdb41s:bt_verify.obj
 0003:00007de4       ??_C@_0DN@PJAI@Page?5?$CFlu?3?5RINTERNAL?5structure?5at@ 004cbde4     libdb41s:bt_verify.obj
 0003:00007e24       ??_C@_0P@DCGH@__ram_vrfy_inp?$AA@ 004cbe24     libdb41s:bt_verify.obj
 0003:00007e34       ??_C@_0P@OMMP@__bam_vrfy_inp?$AA@ 004cbe34     libdb41s:bt_verify.obj
 0003:00007e44       ??_C@_0CK@HFIK@Page?5?$CFlu?3?5overlapping?5items?5at?5o@ 004cbe44     libdb41s:bt_verify.obj
 0003:00007e70       ??_C@_0BP@DPCM@Page?5?$CFlu?3?5offset?5?$CFlu?5unaligned?$AA@ 004cbe70     libdb41s:bt_verify.obj
 0003:00007e90       ??_C@_0CM@JLAN@Page?5?$CFlu?3?5offpage?5item?5?$CFlu?5has?5b@ 004cbe90     libdb41s:bt_verify.obj
 0003:00007ebc       ??_C@_0CI@KKMF@Page?5?$CFlu?3?5impossible?5tlen?5?$CFlu?0?5i@ 004cbebc     libdb41s:bt_verify.obj
 0003:00007ee4       ??_C@_0DO@BKAA@Page?5?$CFlu?3?5duplicate?5page?5referen@ 004cbee4     libdb41s:bt_verify.obj
 0003:00007f24       ??_C@_0EH@DGPJ@Page?5?$CFlu?3?5duplicate?5page?5referen@ 004cbf24     libdb41s:bt_verify.obj
 0003:00007f6c       ??_C@_0CH@OICH@Page?5?$CFlu?3?5item?5?$CFlu?5of?5invalid?5ty@ 004cbf6c     libdb41s:bt_verify.obj
 0003:00007f94       ??_C@_0CC@NMCK@Page?5?$CFlu?3?5item?5?$CFlu?5marked?5delete@ 004cbf94     libdb41s:bt_verify.obj
 0003:00007fb8       ??_C@_0BO@BAMK@Page?5?$CFlu?3?5duplicated?5item?5?$CFlu?$AA@ 004cbfb8     libdb41s:bt_verify.obj
 0003:00007fd8       ??_C@_0BF@JGCC@__bam_vrfy_itemorder?$AA@ 004cbfd8     libdb41s:bt_verify.obj
 0003:00007ff0       ??_C@_0DK@PKF@Page?5?$CFlu?3?5database?5with?5no?5dupli@ 004cbff0     libdb41s:bt_verify.obj
 0003:0000802c       ??_C@_0CI@ECAE@Page?5?$CFlu?3?5out?9of?9order?5key?5at?5en@ 004cc02c     libdb41s:bt_verify.obj
 0003:00008054       ??_C@_0DC@HHOB@Page?5?$CFlu?3?5error?5?$CFlu?5in?5fetching?5@ 004cc054     libdb41s:bt_verify.obj
 0003:00008088       ??_C@_0DM@PCJD@Page?5?$CFlu?3?5btree?5root?5of?5incorrec@ 004cc088     libdb41s:bt_verify.obj
 0003:000080c4       ??_C@_0DH@HJBC@Page?5?$CFlu?3?5duplicate?5tree?5referen@ 004cc0c4     libdb41s:bt_verify.obj
 0003:000080fc       ??_C@_0CM@OPOD@Page?5?$CFlu?3?5recno?5database?5has?5bad@ 004cc0fc     libdb41s:bt_verify.obj
 0003:00008128       ??_C@_0CK@GCNN@Page?5?$CFlu?3?5btree?5metadata?5page?5ha@ 004cc128     libdb41s:bt_verify.obj
 0003:00008154       ??_C@_0CN@MIHM@Page?5?$CFlu?3?5btree?5metadata?5page?5ob@ 004cc154     libdb41s:bt_verify.obj
 0003:00008184       ??_C@_0DL@EADL@Page?5?$CFlu?3?5btree?5or?5recno?5page?5is@ 004cc184     libdb41s:bt_verify.obj
 0003:000081c0       ??_C@_0BE@NNAM@btree?5or?5recno?5page?$AA@ 004cc1c0     libdb41s:bt_verify.obj
 0003:000081d4       ??_C@_0CC@HHGK@Page?5?$CFlu?3?5unterminated?5leaf?5chai@ 004cc1d4     libdb41s:bt_verify.obj
 0003:000081f8       ??_C@_0BH@NDJF@Page?5?$CFlu?3?5linked?5twice?$AA@ 004cc1f8     libdb41s:bt_verify.obj
 0003:00008210       ??_C@_0DI@DMOG@Page?5?$CFlu?3?5bad?5record?5count?3?5has?5@ 004cc210     libdb41s:bt_verify.obj
 0003:00008248       ??_C@_0DD@DOHP@Page?5?$CFlu?3?5internal?5page?5is?5empty@ 004cc248     libdb41s:bt_verify.obj
 0003:0000827c       ??_C@_0DH@COKN@Page?5?$CFlu?3?5Btree?5level?5incorrect?3@ 004cc27c     libdb41s:bt_verify.obj
 0003:000082b4       ??_C@_0EE@HLAA@Page?5?$CFlu?3?5item?5?$CFlu?5has?5incorrect@ 004cc2b4     libdb41s:bt_verify.obj
 0003:000082f8       ??_C@_0BD@CLIB@__bam_vrfy_subtree?$AA@ 004cc2f8     libdb41s:bt_verify.obj
 0003:0000830c       ??_C@_0DH@NMCC@Page?5?$CFlu?3?5recno?5level?5incorrect?3@ 004cc30c     libdb41s:bt_verify.obj
 0003:00008344       ??_C@_0CN@MAHK@Page?5?$CFlu?3?5recno?5page?5returned?5ba@ 004cc344     libdb41s:bt_verify.obj
 0003:00008374       ??_C@_0CG@EBOM@Page?5?$CFlu?3?5duplicates?5in?5non?9dup?5@ 004cc374     libdb41s:bt_verify.obj
 0003:0000839c       ??_C@_0CM@PMDJ@Page?5?$CFlu?3?5non?9recno?5leaf?5page?5in@ 004cc39c     libdb41s:bt_verify.obj
 0003:000083c8       ??_C@_0CJ@NBNN@Page?5?$CFlu?3?5recno?5leaf?5page?5non?9re@ 004cc3c8     libdb41s:bt_verify.obj
 0003:000083f4       ??_C@_0EG@NJOG@Page?5?$CFlu?3?5incorrect?5prev_pgno?5?$CFl@ 004cc3f4     libdb41s:bt_verify.obj
 0003:0000843c       ??_C@_0EG@NEJJ@Page?5?$CFlu?3?5incorrect?5next_pgno?5?$CFl@ 004cc43c     libdb41s:bt_verify.obj
 0003:00008484       ??_C@_0EG@IPMA@Page?5?$CFlu?3?5unexpected?5page?5type?5?$CF@ 004cc484     libdb41s:bt_verify.obj
 0003:000084cc       ??_C@_0DB@OEGC@Page?5?$CFlu?3?5last?5item?5on?5page?5had?5@ 004cc4cc     libdb41s:bt_verify.obj
 0003:00008500       ??_C@_0DN@ODGH@Page?5?$CFlu?3?5last?5item?5on?5page?5sort@ 004cc500     libdb41s:bt_verify.obj
 0003:00008540       ??_C@_0CL@BMGF@Page?5?$CFlu?3?5unknown?5type?5for?5inter@ 004cc540     libdb41s:bt_verify.obj
 0003:0000856c       ??_C@_0DC@GDFF@Page?5?$CFlu?3?5first?5item?5on?5page?5had@ 004cc56c     libdb41s:bt_verify.obj
 0003:000085a0       ??_C@_0DO@MIKK@Page?5?$CFlu?3?5first?5item?5on?5page?5sor@ 004cc5a0     libdb41s:bt_verify.obj
 0003:000085e0       ??_C@_0BF@HGGP@__bam_vrfy_treeorder?$AA@ 004cc5e0     libdb41s:bt_verify.obj
 0003:000085f8       ??_C@_0DB@HAIP@__bam_salvage_walkdupint?5called?5@ 004cc5f8     libdb41s:bt_verify.obj
 0003:0000862c       ??_C@_0CL@BAC@Page?5?$CFlu?3?5spares?5array?5entry?5?$CFd?5@ 004cc62c     libdb41s:hash_verify.obj
 0003:00008658       ??_C@_0CJ@LON@Page?5?$CFlu?3?5suspiciously?5high?5nele@ 004cc658     libdb41s:hash_verify.obj
 0003:00008684       ??_C@_0DA@OKMM@Page?5?$CFlu?3?5incorrect?5low_mask?5?$CFlu@ 004cc684     libdb41s:hash_verify.obj
 0003:000086b4       ??_C@_0DB@MMLN@Page?5?$CFlu?3?5incorrect?5high_mask?5?$CFl@ 004cc6b4     libdb41s:hash_verify.obj
 0003:000086e8       ??_C@_0DB@LBLH@Page?5?$CFlu?3?5Impossible?5max_bucket?5@ 004cc6e8     libdb41s:hash_verify.obj
 0003:0000871c       ??_C@_0FH@GCDG@Page?5?$CFlu?3?5database?5has?5different@ 004cc71c     libdb41s:hash_verify.obj
 0003:00008774       ??_C@_0DC@GHBO@Page?5?$CFlu?3?5item?5?$CFlu?5is?5out?5of?5ord@ 004cc774     libdb41s:hash_verify.obj
 0003:000087a8       ??_C@_0CL@BBBN@Page?5?$CFlu?3?5entries?5array?5collided@ 004cc7a8     libdb41s:hash_verify.obj
 0003:000087d4       ??_C@_0L@GGCJ@__ham_vrfy?$AA@ 004cc7d4     libdb41s:hash_verify.obj
 0003:000087e0       ??_C@_0BP@GCBC@Page?5?$CFlu?3?5item?5?$CFi?5has?5bad?5type?$AA@ 004cc7e0     libdb41s:hash_verify.obj
 0003:00008800       ??_C@_0CP@LJCN@Page?5?$CFlu?3?5offpage?5item?5?$CFlu?5has?5b@ 004cc800     libdb41s:hash_verify.obj
 0003:00008830       ??_C@_0CM@LGEO@Page?5?$CFlu?3?5duplicate?5item?5?$CFlu?5has@ 004cc830     libdb41s:hash_verify.obj
 0003:0000885c       ??_C@_0DH@NIJE@Page?5?$CFlu?3?5duplicate?5item?5?$CFlu?5has@ 004cc85c     libdb41s:hash_verify.obj
 0003:00008894       ??_C@_0DA@FOLF@Page?5?$CFlu?3?5hash?5key?5stored?5as?5dup@ 004cc894     libdb41s:hash_verify.obj
 0003:000088c4       ??_C@_0DA@ICGB@Page?5?$CFlu?3?5hash?5bucket?5?$CFlu?5maps?5t@ 004cc8c4     libdb41s:hash_verify.obj
 0003:000088f4       ??_C@_0DD@KMGF@Page?5?$CFlu?3?5non?9empty?5page?5in?5unus@ 004cc8f4     libdb41s:hash_verify.obj
 0003:00008928       ??_C@_0CG@JIG@Page?5?$CFlu?3?5above?5max_bucket?5refer@ 004cc928     libdb41s:hash_verify.obj
 0003:00008950       ??_C@_0CK@HHIA@Page?5?$CFlu?3?5Hash?5meta?5page?5referen@ 004cc950     libdb41s:hash_verify.obj
 0003:0000897c       ??_C@_0CO@FKBJ@Page?5?$CFlu?3?5impossible?5first?5page?5@ 004cc97c     libdb41s:hash_verify.obj
 0003:000089ac       ??_C@_0CF@OLJI@Page?5?$CFlu?3?5hash?5page?5referenced?5t@ 004cc9ac     libdb41s:hash_verify.obj
 0003:000089d4       ??_C@_0CG@CMNN@Page?5?$CFlu?3?5hash?5page?5has?5bad?5next@ 004cc9d4     libdb41s:hash_verify.obj
 0003:000089fc       ??_C@_0CG@MPPK@Page?5?$CFlu?3?5hash?5page?5has?5bad?5prev@ 004cc9fc     libdb41s:hash_verify.obj
 0003:00008a24       ??_C@_0CP@DEPG@Page?5?$CFlu?3?5unsorted?5dups?5in?5sorte@ 004cca24     libdb41s:hash_verify.obj
 0003:00008a54       ??_C@_0DH@CKDH@Page?5?$CFlu?3?5duplicates?5present?5in?5@ 004cca54     libdb41s:hash_verify.obj
 0003:00008a8c       ??_C@_0DI@DNCJ@Page?5?$CFlu?3?5first?5page?5in?5hash?5buc@ 004cca8c     libdb41s:hash_verify.obj
 0003:00008ac4       ??_C@_0CG@GDIF@Page?5?$CFlu?3?5item?5?$CFlu?5hashes?5incorr@ 004ccac4     libdb41s:hash_verify.obj
 0003:00008aec       ??_C@_0DB@PCCA@Page?5?$CFlu?3?5overflow?5page?5has?5zero@ 004ccaec     libdb41s:db_overflow.obj
 0003:00008b20       ??_C@_0CD@FFGK@Page?5?$CFlu?3?5overflow?5item?5incomple@ 004ccb20     libdb41s:db_overflow.obj
 0003:00008b44       ??_C@_0DC@NLHD@Page?5?$CFlu?3?5encountered?5twice?5in?5o@ 004ccb44     libdb41s:db_overflow.obj
 0003:00008b78       ??_C@_0CN@BGOH@Page?5?$CFlu?3?5bad?5next_pgno?5?$CFlu?5on?5o@ 004ccb78     libdb41s:db_overflow.obj
 0003:00008ba8       ??_C@_0DN@FBMD@Page?5?$CFlu?3?5bad?5prev_pgno?5?$CFlu?5on?5o@ 004ccba8     libdb41s:db_overflow.obj
 0003:00008be8       ??_C@_0DL@IJNA@Page?5?$CFlu?3?5first?5page?5in?5overflow@ 004ccbe8     libdb41s:db_overflow.obj
 0003:00008c24       ??_C@_0CM@ID@Page?5?$CFlu?3?5overflow?5page?5of?5inval@ 004ccc24     libdb41s:db_overflow.obj
 0003:00008c50       ??_C@_0BO@MPHF@Closing?5already?9closed?5cursor?$AA@ 004ccc50     libdb41s:db_cam.obj
 0003:00008c70       ??_C@_0N@FNND@__db_c_count?$AA@ 004ccc70     libdb41s:db_cam.obj
 0003:00008c80       ??_C@_0CC@NIDJ@Cannot?5duplicate?5writeable?5curso@ 004ccc80     libdb41s:db_cam.obj
 0003:00008ca4       ??_C@_0M@NLFH@__db_c_idup?$AA@ 004ccca4     libdb41s:db_cam.obj
 0003:00008cb0       ??_C@_0L@MHHF@__db_c_get?$AA@ 004cccb0     libdb41s:db_cam.obj
 0003:00008cbc       ??_C@_0DB@DJJG@Put?5results?5in?5a?5non?9unique?5seco@ 004cccbc     libdb41s:db_cam.obj
 0003:00008cf0       ??_C@_0CL@IFB@index?5not?5configured?5to?5support?5@ 004cccf0     libdb41s:db_cam.obj
 0003:00008d1c       ??_C@_0CM@IOKO@Length?5improper?5for?5fixed?5length@ 004ccd1c     libdb41s:db_cam.obj
 0003:00008d48       ??_C@_0DI@BEGC@Duplicate?5data?5items?5are?5not?5sup@ 004ccd48     libdb41s:db_cam.obj
 0003:00008d80       ??_C@_0CE@KCOK@Write?5attempted?5on?5read?9only?5cur@ 004ccd80     libdb41s:db_cam.obj
 0003:00008da4       ??_C@_08MKFC@fsync?5?$CFs?$AA@ 004ccda4     libdb41s:os_fsync.obj
 0003:00008db0       ??_C@_0O@MHLP@__bam_c_close?$AA@ 004ccdb0     libdb41s:bt_cursor.obj
 0003:00008dc0       ??_C@_0M@GMNH@__bam_c_get?$AA@ 004ccdc0     libdb41s:bt_cursor.obj
 0003:00008dcc       ??_C@_0M@JJHF@__bam_c_put?$AA@ 004ccdcc     libdb41s:bt_cursor.obj
 0003:00008dd8       ??_C@_0P@GHMH@__bam_c_search?$AA@ 004ccdd8     libdb41s:bt_cursor.obj
 0003:00008de8       ??_C@_0M@PLCP@__qam_c_put?$AA@ 004ccde8     libdb41s:qam.obj
 0003:00008df4       ??_C@_0M@OIN@__qam_c_get?$AA@ 004ccdf4     libdb41s:qam.obj
 0003:00008e00       ??_C@_0BL@IHDO@illegal?5record?5number?5of?50?$AA@ 004cce00     libdb41s:qam.obj
 0003:00008e1c       ??_C@_0CB@CFBB@H_NOMORE?5returned?5to?5__ham_c_get@ 004cce1c     libdb41s:hash.obj
 0003:00008e40       ??_C@_0M@EIFF@__ram_c_get?$AA@ 004cce40     libdb41s:bt_recno.obj
 0003:00008e4c       ??_C@_0CF@CBOD@?$CFs?3?5write?5failed?5to?5backing?5file@ 004cce4c     libdb41s:bt_recno.obj
 0003:00008e74       ??_C@_0CP@GBDI@checksum?5error?3?5catastrophic?5rec@ 004cce74     libdb41s:db_conv.obj
 0003:00008ea4       ??_C@_0DO@JLI@Extent?5size?5may?5not?5be?5specified@ 004ccea4     libdb41s:qam_open.obj
 0003:00008ee4       ??_C@_0CB@LIAB@?$CFs?3?5unsupported?5qam?5version?3?5?$CFlu@ 004ccee4     libdb41s:qam_open.obj
 0003:00008f08       ??_C@_0DB@JBJ@?$CFs?3?5queue?5version?5?$CFlu?5requires?5a@ 004ccf08     libdb41s:qam_open.obj
